(dp1
S'Holy Cow!'
p2
(lp3
I3862
asS'Red Dog'
p4
(lp5
I3396
asS'Augustine: A New Biography'
p6
(lp7
I1701
asS'Aristophanes and Athens: An Introduction to the Plays'
p8
(lp9
I1585
asS'Hello, Lied the Agent: And Other Bullshit You Hear as a Hollywood TV Writer'
p10
(lp11
I393
asS'Life of Pi'
p12
(lp13
I1226
asS'Head First HTML with CSS & XHTML'
p14
(lp15
I564
asS'Men Are from Mars, Women Are from Venus: Secrets of Passion/Audio Cassette'
p16
(lp17
I1279
asS"An Artist's Way Of Seeing"
p18
(lp19
I2787
asS'A Wrinkle in Time: LitPlan Teacher Pack'
p20
(lp21
I179
asS'The Corrections'
p22
(lp23
I3805
asS'Ways of Seeing'
p24
(lp25
I2784
asS'Summer Crossing'
p26
(lp27
I2294
asS'The Complete Short Stories'
p28
(lp29
I2504
asS'Tides of War'
p30
(lp31
I1317
asS'City Eclogue'
p32
(lp33
I1403
asS'Classics: A Discipline and Profession in Crisis?'
p34
(lp35
I2436
asS'Sex in Middlesex: Popular Mores in a Massachusetts County, 1649-1699'
p36
(lp37
I2189
asS"Breakfast at Tiffany's: A Short Novel and Three Stories"
p38
(lp39
I2282
asS'El hacha'
p40
(lp41
I52
asS'The No-Salt, Lowest-Sodium Cookbook: Hundreds of Favorite Recipes Created to Combat Congestive Heart Failure and Dangerous Hypertension'
p42
(lp43
I2717
asS'A People and a Nation: A History of the United States, Dolphin Edition - Complete'
p44
(lp45
I2775
asS'A Wrinkle in Time: Student Packet'
p46
(lp47
I200
asS'Kahlil Gibran: His Life and World'
p48
(lp49
I288
asS"Madeleine L'Engle: Author of a Wrinkle in Time (People in Focus)"
p50
(lp51
I188
asS'The Canterbury Tales'
p52
(lp53
I2696
asS'Akin to Anne: Tales of Other Orphans'
p54
(lp55
I3570
asS'Uno y el Universo'
p56
(lp57
I1673
asS'Den of Thieves (Ad&d 2nd Edition)'
p58
(lp59
I1973
asS'Warren Buffett:: Master of the Market'
p60
(lp61
I1141
asS'A Taste for Death (Adam Dalgliesh #7)'
p62
(lp63
I3830
asS'Under The Banner Of Heaven'
p64
(lp65
I1899
asS'The Advanced Guitar Case Chord Book: Compact Reference Library'
p66
(lp67
I744
asS'The Languages of Native North America'
p68
(lp69
I485
asS"I'm a Stranger Here Myself: Notes on Returning to America after Twenty Years Away"
p70
(lp71
I25
asS'The Essential Cook: Everything You Really Need to Know about Foods and Cooking Except the Recipes'
p72
(lp73
I2610
asS'Clouds/Wasps/Peace'
p74
(lp75
I1572
asS'Way of the Peaceful Warrior: A Book That Changes Lives'
p76
(lp77
I2255
asS'From Java to Ruby'
p78
(lp79
I518
asS'Starman Jones'
p80
(lp81
I351
asS'The Illustrated On The Shoulders of Giants'
p82
(lp83
I2097
asS'Red Hot Chili Peppers'
p84
(lp85
I726
asS'The Book of Life: Ascension and the Divine World Order'
p86
(lp87
I3518
asS'Electric Universe: How Electricity Switched on the Modern World'
p88
(lp89
I2803
asS'Giving Good Weight'
p90
(lp91
I81
asS'The Dosadi Experiment (ConSentiency Universe, #2)'
p92
(lp93
I2011
asS'Peripheral (Post) Modernity: The Syncretist Aesthetics of Borges, Piglia, Kalokyris and Kyriakidis'
p94
(lp95
I1650
asS'The Path to Buddha: A Tibetan Pilgrimage'
p96
(lp97
I780
asS'Transgender Emergence: Therapeutic Guidelines for Working with Gender-Variant People and Their Families'
p98
(lp99
I2303
asS"Your Baby's First Year for Dummies"
p100
(lp101
I2221
asS'Together Alone: Personal Relationships in Public Places'
p102
(lp103
I259
asS'Against the Odds: Tales of Achievement'
p104
(lp105
I3566
asS'Twelfth Night'
p106
(lp107
I1625
asS'Greek Bucolic Poets: Theocritus. Bion. Moschus'
p108
(lp109
I2450
asS'The Oxford Shakespeare: The Complete Works'
p110
(lp111
I1421
asS'The Fountainhead: An American Novel'
p112
(lp113
I2121
asS'John Adams and the Spirit of Liberty'
p114
(lp115
I2208
asS'Olympos (Ilium, #2)'
p116
(lp117
I3972
asS'Memory of Fire (The World Gates, #1)'
p118
(lp119
I1309
asS'Tenth Man Down'
p120
(lp121
I3709
asS"Paul Kirk's Championship Barbecue Sauces: 175 Make-Your-Own Sauces, Marinades, Dry Rubs, Wet Rubs, Mops and Salsas"
p122
(lp123
I1408
asS"Not Your Mother's Slow Cooker Cookbook"
p124
(lp125
I3893
asS'Lincoln at Gettysburg: The Words That Remade America'
p126
(lp127
I394
asS'Lovely in Her Bones (Elizabeth MacPherson, #2)'
p128
(lp129
I539
asS'The Three Ways of Getting Things Done: Hierarchy, Heterarchy and Responsible Autonomy in Organizations'
p130
(lp131
I1637
asS'Introducing Mind & Brain'
p132
(lp133
I3289
asS'Fast Food/ Fast Food Nation (Actualidad)'
p134
(lp135
I1101
asS'The Absent City'
p136
(lp137
I1644
asS'Gorgias'
p138
(lp139
I1354
asS'The Letters of J.R.R. Tolkien'
p140
(lp141
I2327
asS"Moonraker's Bride"
p142
(lp143
I3751
asS'An Original Sin'
p144
(lp145
I3820
asS'The Art of War by Sun Tzu - Special Edition'
p146
(lp147
I2590
asS'Wedding Wishes and Woes (The Story Girl #6)'
p148
(lp149
I3578
asS'Art Invention House'
p150
(lp151
I502
asS'The Ghost Stories of Edith Wharton'
p152
(lp153
I2305
asS'Wire'
p154
(lp155
I845
asS'New Media Language'
p156
(lp157
I2756
asS'The Alchemist'
p158
(lp159
I864
asS'Off the Main Sequence: The Other Science Fiction Stories of Robert A. Heinlein'
p160
(lp161
I347
asS'No Room for Francie'
p162
(lp163
I3951
asS'The Bridge on the Drina'
p164
(lp165
I3140
asS'Oliver Twist'
p166
(lp167
I1986
asS"The Facilitator's Book of Questions: Tools for Looking Together at Student and Teacher Work"
p168
(lp169
I2584
asS'The Music of Chance'
p170
(lp171
I453
asS'Pompeii'
p172
(lp173
I880
asS'Ever Wonder Why? and Other Controversial Essays'
p174
(lp175
I3046
asS'Love Medicine and Miracles CD-ROM for Windows & Mac'
p176
(lp177
I1046
asS'Ovid\'s "Metamorphoses"'
p178
(lp179
I1726
asS'Logo Design Workbook: A Hands-On Guide to Creating Logos'
p180
(lp181
I649
asS'The Hunters'
p182
(lp183
I3650
asS'Ziggy the Zebra'
p184
(lp185
I331
asS'The World is Flat'
p186
(lp187
I3460
asS'The Virtues of War: A Novel of Alexander the Great'
p188
(lp189
I1316
asS"Chaucer's Canterbury Tales (Selected): An Interlinear Translation"
p190
(lp191
I2702
asS'Batman: Holy Terror'
p192
(lp193
I3277
asS'The Language of New Media'
p194
(lp195
I2753
asS'First Love: Renewing Your Passion for God'
p196
(lp197
I3533
asS'Practice! Practice!: A Latin Via Ovid Workbook'
p198
(lp199
I1731
asS'Caesar (Masters of Rome, #5)'
p200
(lp201
I3416
asS'Ulysses: The Amazing Adventures of'
p202
(lp203
I3989
asS'Salmon of Doubt: Hitchhiking the Galaxy One Last Time'
p204
(lp205
I377
asS"Cliffsnotes on Steinbeck's of Mice and Men"
p206
(lp207
I891
asS'The Portable Graham Greene'
p208
(lp209
I3691
asS'Under the Banner of Heaven'
p210
(lp211
I1894
asS'The Journals of Louisa May Alcott'
p212
(lp213
I2994
asS'Powers Unlimited One: A Sourcebook for Heroes Unlimited (Heroes Unlimited, #1)'
p214
(lp215
I127
asS'Big Sur and the Oranges of Hieronymus Bosch'
p216
(lp217
I248
asS'The Automatic Millionaire Workbook: A Personalized Plan to Live and Finish Rich. . . Automatically'
p218
(lp219
I623
asS'The Universe in a Nutshell'
p220
(lp221
I2095
asS'Three Nights in August: Strategy, Heartbreak, and Joy Inside the Mind of a Manager'
p222
(lp223
I815
asS'Where Angels Fear to Tread'
p224
(lp225
I3677
asS'How to Meet Beautiful Women'
p226
(lp227
I1903
asS"The Diamond Age: or, A Young Lady's Illustrated Primer"
p228
(lp229
I827
asS'Tom Hunter: Living in Hell and Other Stories'
p230
(lp231
I2877
asS'Cooking with Fernet Branca (Gerald Samper, #1)'
p232
(lp233
I40
asS'Sailing Alone Around the Room: New and Selected Poems'
p234
(lp235
I676
asS'The Nonsense Verse Of Edward Lear'
p236
(lp237
I2086
asS'Behind the Couch'
p238
(lp239
I3950
asS'The Zebra Wall'
p240
(lp241
I333
asS'The 3-Hour Diet: On the Go'
p242
(lp243
I2126
asS'The Language of New Media Design: Theory and Practice'
p244
(lp245
I2760
asS'Aeschylus: Seven Plays (Complete Greek Tragedies, #1)'
p246
(lp247
I1527
asS'Blink'
p248
(lp249
I2142
asS'The Five Love Languages'
p250
(lp251
I958
asS'The Bacchae of Euripides'
p252
(lp253
I1478
asS'An Iliad'
p254
(lp255
I1379
asS'The Second John McPhee Reader (John McPhee Reader, #2)'
p256
(lp257
I82
asS'Wonderous Mushroom: Sacred Mushrooms In Mexico And Mesoamerica.'
p258
(lp259
I3350
asS'Lance Armstrong: A Biography'
p260
(lp261
I2271
asS'The Ecclesiazusae (or Women in Council)'
p262
(lp263
I2018
asS'On Bullshit'
p264
(lp265
I385
asS"The Compleat Gentleman: The Modern Man's Guide to Chivalry"
p266
(lp267
I560
asS'Comoediae 1: Acharenses/Equites/Nubes/Vespae/Pax/Aves'
p268
(lp269
I2034
asS'Gabriel Garcia Marquez'
p270
(lp271
I769
asS'Three Plays: The Wasps / The Poet and the Women / The Frogs'
p272
(lp273
I1576
asS'Schiffbruch mit Tiger'
p274
(lp275
I3312
asS'Simply Sicilian: Family Recipes'
p276
(lp277
I1190
asS'Historia del cerco de Lisboa'
p278
(lp279
I2537
asS'Into the Wild'
p280
(lp281
I1845
asS'Leadership: Theory and Practice'
p282
(lp283
I1250
asS'Encomium of Ptolemy Philadelphus'
p284
(lp285
I2454
asS'The Purpose-Driven Life'
p286
(lp287
I1088
asS'Agile Web Development with Rails: A Pragmatic Guide'
p288
(lp289
I45
asS'Living to Tell the Tale'
p290
(lp291
I765
asS"Tyler's Ultimate: Brilliant Simple Food to Make Any Time"
p292
(lp293
I1196
asS'120 Studies for Right Hand Development'
p294
(lp295
I1258
asS'The Tenants'
p296
(lp297
I3072
asS'How Angel Peterson Got His Name'
p298
(lp299
I2917
asS'Blessing the Bridge: What Animals Teach Us About Death, Dying, and Beyond'
p300
(lp301
I2233
asS'Tesla Papers'
p302
(lp303
I498
asS'Life Is a Road, the Soul Is a Motorcycle'
p304
(lp305
I640
asS'A Tear and a Smile'
p306
(lp307
I2549
asS'The Politically Incorrect Guide to American History'
p308
(lp309
I3871
asS'The Salmon of Doubt: Hitchhiking the Galaxy One Last Time'
p310
(lp311
I372
asS'To Kill a Mockingbird'
p312
(lp313
I2654
asS'Out to Eat London 2001 (Lonely Planet)'
p314
(lp315
I798
asS'Un puente sobre el Drina'
p316
(lp317
I3324
asS"101 Reasons to Own the World's Greatest Investment: Warren Buffett's Berkshire Hathaway"
p318
(lp319
I1154
asS'Baltasar and Blimunda'
p320
(lp321
I2530
asS'Ovid: The Art of Love and Other Poems (Loeb Classical Library No. 232)'
p322
(lp323
I1725
asS'Birth Marks: The Tragedy of Primogeniture in Pierre Corneille, Thomas Corneille, and Jean Racine'
p324
(lp325
I2829
asS'Romance For Dummies'
p326
(lp327
I2217
asS'Power and Struggle'
p328
(lp329
I3514
asS'Elektra'
p330
(lp331
I1481
asS'Icy Sparks'
p332
(lp333
I3476
asS'Nickel and Dimed: On (Not) Getting By in America'
p334
(lp335
I1869
asS'Black Beauty'
p336
(lp337
I3685
asS'Beating the Odds'
p338
(lp339
I3132
asS'Den of Thieves - Acting Edition'
p340
(lp341
I2485
asS'Cryptonomicon'
p342
(lp343
I816
asS'Harry Potter Schoolbooks Box Set: Two Classic Books from the Library of Hogwarts School of Witchcraft and Wizardry'
p344
(lp345
I2002
asS"Pindar's Mythmaking: The Fourth Pythian Ode"
p346
(lp347
I1755
asS'Cockfighter'
p348
(lp349
I228
asS"Drina's Dancing Year (Drina, #2)"
p350
(lp351
I3149
asS'Sideswipe'
p352
(lp353
I229
asS"On Her Majesty's Secret Service (James Bond, #11)"
p354
(lp355
I3762
asS'The Egypt Game (Game, #1)'
p356
(lp357
I903
asS'The 7 Habits of Highly Effective People Personal Workbook'
p358
(lp359
I2250
asS'The Long Goodbye. Based on the Novel by Raymond Chandler'
p360
(lp361
I2059
asS'Goldfinger (James Bond, #7)'
p362
(lp363
I3759
asS'Helen'
p364
(lp365
I1498
asS'The Pigeon'
p366
(lp367
I2899
asS'Four Complete Novels'
p368
(lp369
I2966
asS'The Power of a City at Prayer: What Happens When Churches Unite'
p370
(lp371
I2275
asS'Tristia. Ex Ponto'
p372
(lp373
I1732
asS'Mornings on Horseback'
p374
(lp375
I2368
asS'Agamemnon (Oresteia, #1)'
p376
(lp377
I1524
asS'Histories of Sexuality: Antiquity to Sexual Revolution'
p378
(lp379
I1881
asS'Nursing Diagnosis Reference Manual'
p380
(lp381
I3477
asS'A Lonely Resurrection (John Rain, #2)'
p382
(lp383
I915
asS'Insights on Death & Dying'
p384
(lp385
I2230
asS'1968: The Year That Rocked the World'
p386
(lp387
I3345
asS'Great Expectations: Authoritative Text, Backgrounds, Contexts, Criticism (Critical Editions)'
p388
(lp389
I2626
asS'Travels in the Scriptorium'
p390
(lp391
I454
asS'Deception Point'
p392
(lp393
I975
asS'Medea - Literary Touchstone Classic'
p394
(lp395
I1482
asS'The Graham Greene Film Reader'
p396
(lp397
I3700
asS'Competing for Customers and Capital'
p398
(lp399
I2576
asS'World History in Brief: Major Patterns of Change and Continuity, Volume II: Since 1450'
p400
(lp401
I3455
asS"Bryson's Dictionary of Troublesome Words: A Writer's Guide to Getting It Right"
p402
(lp403
I23
asS'Sand and Foam'
p404
(lp405
I292
asS'Changeling (Changeling, #1)'
p406
(lp407
I58
asS'If You Were There in 1776'
p408
(lp409
I1074
asS'A Wrinkle in Time: Teaching Unit'
p410
(lp411
I198
asS'Freakonomics: O Lado Oculto E Inesperado De Tudo Que Nos Afeta'
p412
(lp413
I2795
asS'Stover at Yale'
p414
(lp415
I2512
asS'The Syriac Church and Fathers'
p416
(lp417
I3208
asS'"A" Is for Zebra'
p418
(lp419
I334
asS'Practical Subversion'
p420
(lp421
I1016
asS"Fanaroff and Martin's Neonatal-Perinatal Medicine: Diseases of the Fetus and Infant (Expert Consult - Online and Print) (2-Volume Set)"
p422
(lp423
I1773
asS'Willem de Kooning: The Life of an Artist'
p424
(lp425
I2561
asS'Daniel Deronda Notebooks'
p426
(lp427
I306
asS'The World Is Flat: A Brief History Of The Twenty-First Century'
p428
(lp429
I1912
asS"Gulliver's Travels / A Modest Proposal"
p430
(lp431
I2678
asS'Ghosts'
p432
(lp433
I3665
asS'White Boots (Collins Modern Classics)'
p434
(lp435
I3789
asS'The Complete Plays'
p436
(lp437
I1538
asS"The Color of Love: An Artist's Book of Poetry and Passion"
p438
(lp439
I2890
asS'Aleppo Tales'
p440
(lp441
I1662
asS'Molokai (Pacific Classics, No. 4) (Pacific Classics, # 4)'
p442
(lp443
I3265
asS'Fedro y Fabulas Latinas de Todos Los Tiempos'
p444
(lp445
I3194
asS'Confesiones de un chef = Kitchen Confidential (Punto de Lectura) (Spanish Edition)'
p446
(lp447
I1710
asS'City of Glass (The New York Trilogy, #1)'
p448
(lp449
I432
asS'The Battles of Dune'
p450
(lp451
I118
asS'Bookclub-In-A-Box Discusses the Novel the Hours by Michael Cunningham'
p452
(lp453
I2133
asS"A People's History of the United States"
p454
(lp455
I2767
asS'The Peloponnesian War'
p456
(lp457
I1445
asS'Letters of Ayn Rand'
p458
(lp459
I670
asS'A Grammar of the Icelandic or Old Norse Tongue'
p460
(lp461
I2354
asS'Eat This Book: Cooking with Global Fresh Flavors'
p462
(lp463
I1198
asS"Dr. Pitcairn's Complete Guide to Natural Health for Dogs & Cats"
p464
(lp465
I3063
asS'The Art of Love'
p466
(lp467
I1723
asS'Church is Stranger Than Fiction'
p468
(lp469
I3720
asS'I Love Artists'
p470
(lp471
I2888
asS'Sexus (The Rosy Crucifixion, #1)'
p472
(lp473
I252
asS'The Racketty-Packetty House'
p474
(lp475
I3012
asS'Day by Day with Saint Augustine'
p476
(lp477
I1704
asS'Aristophanes'
p478
(lp479
I1581
asS'A Million Little Pieces of Feces'
p480
(lp481
I1242
asS'The Song of Troy'
p482
(lp483
I3423
asS'Jazz Guitar Chord System'
p484
(lp485
I733
asS"Meg's Dearest Wish (Madame Alexander Little Women Journals)"
p486
(lp487
I1950
asS'Amazons: An Intimate Memoir by the First Woman Ever to Play in the National Hockey League'
p488
(lp489
I429
asS'Whitethorn'
p490
(lp491
I2340
asS'True Believer (Jeremy Marsh & Lexie Darnell, #1)'
p492
(lp493
I3464
asS'Heirs of General Practice'
p494
(lp495
I76
asS'Further Adventures of Huck Finn'
p496
(lp497
I2950
asS'Genres in Dialogue: Plato and the Construct of Philosophy'
p498
(lp499
I1595
asS'Den of Thieves (Cat Royal, #3)'
p500
(lp501
I1976
asS'Harry Potter Paperback Boxed Set, Books 1-5 (Harry Potter, #1-5)'
p502
(lp503
I8
asS'Hamlet: An Authoritative Text, Intellectual Backgrounds, Extracts from the Sources, Essays in Criticism (Norton Critical Edition)'
p504
(lp505
I1436
asS"Sophocles' Antigone"
p506
(lp507
I1550
asS'Lost Horizon'
p508
(lp509
I2978
asS'The Modern Prince and Other Writings'
p510
(lp511
I3557
asS'The Long Italian Goodbye'
p512
(lp513
I2061
asS'Three Tales'
p514
(lp515
I2182
asS'Splish Splash!: A Book about Rain'
p516
(lp517
I1829
asS'1000 Record Covers'
p518
(lp519
I576
asS"Louisa May Alcott's Christmas Treasury"
p520
(lp521
I2988
asS"Ratner's Star"
p522
(lp523
I405
asS"George Eliot and Judaism: An Attempt to Appreciate 'Daniel Deronda'"
p524
(lp525
I305
asS'Athena (The Freddie Montgomery Trilogy, #3)'
p526
(lp527
I3660
asS'Ballet Shoes: A Story of Three Children on the Stage (Shoes, #1)'
p528
(lp529
I3779
asS'Body for Life for Women: 12 Weeks to a Firm, Fit, Fabulous Body at Any Age'
p530
(lp531
I1124
asS'Idylls'
p532
(lp533
I2455
asS'The Basque History of the World: The Story of a Nation'
p534
(lp535
I3347
asS'Hamlet (Folger Shakespeare Library)'
p536
(lp537
I1434
asS'Mapping the Big Picture: Integrating Curriculum & Assessment K-12'
p538
(lp539
I92
asS'Basic Economics'
p540
(lp541
I3029
asS"Gorgias (World's Classics)"
p542
(lp543
I1353
asS'Collected Travel Writings: The Continent'
p544
(lp545
I2685
asS'Guide to Rock Art of the Utah Region: Sites with Public Access'
p546
(lp547
I590
asS"Warren Buffett Speaks: Wit and Wisdom from the World's Greatest Investor"
p548
(lp549
I1134
asS'Power of One'
p550
(lp551
I2342
asS"April Fool's Day"
p552
(lp553
I2345
asS'Angels & Demons  (Robert Langdon, #1)'
p554
(lp555
I960
asS'Getting Results with Curriculum Mapping'
p556
(lp557
I94
asS'The Pilgrimage: A Contemporary Quest for Ancient Wisdom'
p558
(lp559
I1424
asS'By the River Piedra I Sat Down and Wept'
p560
(lp561
I1428
asS"The Forewarned Investor: Don't Get Fooled Again by Corporate Fraud"
p562
(lp563
I911
asS"The Phoenician Solar Theology: An Investigation Into the Phoenician Opinion of the Sun Found in Julian's Hymn to King Helios"
p564
(lp565
I3215
asS"Phil Gordon's Poker Box Set: Phil Gordon's Little Black Book, Phil Gordon's Little Green Book, Phil Gordon's Little Blue Book"
p566
(lp567
I3114
asS'The Salmon of Doubt'
p568
(lp569
I371
asS'Thomas Cole'
p570
(lp571
I1599
asS'Intertextuality and the Reading of Roman Poetry'
p572
(lp573
I2435
asS"The Emperor's Children"
p574
(lp575
I3648
asS"Anne's World, Maud's World: The Sacred Sites of L.M. Montgomery"
p576
(lp577
I3572
asS'Rudolph Giuliani'
p578
(lp579
I1272
asS'Sylvia'
p580
(lp581
I3914
asS'Moby Dick: Or, the White Whale (Oxford Illustrated Classics Series)'
p582
(lp583
I2409
asS'The Reasons of Love'
p584
(lp585
I3494
asS'Moon Palace'
p586
(lp587
I447
asS'Naked Pictures of Famous People'
p588
(lp589
I707
asS'The Locked Room (The New York Trilogy, #3)'
p590
(lp591
I435
asS"Body Life: The Book That Inspired a Return to the Church's Real Meaning and Mission"
p592
(lp593
I1125
asS'Alex & Penny in Egypt'
p594
(lp595
I1194
asS'The Basic Principles of Marketing Warfare'
p596
(lp597
I2598
asS'Rooms with a View: Two Decades of Outstanding American Interior Design from the Kips Bay...'
p598
(lp599
I3095
asS'King of the Vagabonds (The Baroque Cycle, Vol. 1, Book 2)'
p600
(lp601
I2016
asS'Shroud'
p602
(lp603
I3664
asS"MAXNotes Literature Guides: Harper Lee's To Kill a Mockingbird"
p604
(lp605
I2662
asS'The Psychology of Everyday Things'
p606
(lp607
I842
asS'Great Expectations'
p608
(lp609
I1989
asS'My First Love (Love Stories #1)'
p610
(lp611
I3537
asS"Thucydides Book I: A Students' Grammatical Commentary"
p612
(lp613
I1454
asS'Gates of Fire: An Epic Novel of the Battle of Thermopylae'
p614
(lp615
I1305
asS'The Enchiridion on Faith Hope and Love (Augustine Series 1)'
p616
(lp617
I1685
asS'How to Think Like Benjamin Graham and Invest Like Warren Buffett'
p618
(lp619
I1135
asS'The Gulf War Did Not Take Place'
p620
(lp621
I1884
asS'Jack Kerouac on the Road'
p622
(lp623
I2555
asS'Euripides: Bacchae (Duckworth Companions to Greek & Roman Tragedy) (Duckworth Companions to Greek & Roman Tragedy)'
p624
(lp625
I1500
asS'Zodiac'
p626
(lp627
I825
asS'Revolutionary Characters: What Made the Founders Different'
p628
(lp629
I3113
asS'How to Buy, Sell & Profit on eBay: Kick-Start Your Home-Based Business in Just Thirty Days'
p630
(lp631
I132
asS'Lacrimal Gland, Tear Film, and Dry Eye Syndromes: Basic Science and Clinical Relevance'
p632
(lp633
I1410
asS'The Divine Hours (Volume Two): Prayers for Autumn and Wintertime: A Manual for Prayer'
p634
(lp635
I2128
asS'The Rise And Fall Of The Third Chimpanzee'
p636
(lp637
I1992
asS"Don't Make Me Think: A Common Sense Approach to Web Usability"
p638
(lp639
I3368
asS'Ovid IV: Metamorphoses: Volume 2, Books IX-XV (Loeb Classical Library #43)'
p640
(lp641
I1729
asS'A Circle of Quiet (Crosswicks Journals #1)'
p642
(lp643
I2819
asS'J.K.Rowling'
p644
(lp645
I1999
asS'Rhetoric and Reality in Plato\'s "Phaedrus"'
p646
(lp647
I1347
asS'A Tale of Two Cities (SparkNotes Literature Guide)'
p648
(lp649
I1958
asS'The Stories of Eva Luna'
p650
(lp651
I3291
asS'Small Gardens: How to Get the Most Impact from the Least Space'
p652
(lp653
I2468
asS'Arts with the Brain in Mind'
p654
(lp655
I3285
asS'The First Man in Rome (Masters of Rome, #1)'
p656
(lp657
I3422
asS'Live and Let Die (James Bond, #2)'
p658
(lp659
I3763
asS'Applied Economics: Thinking Beyond Stage One'
p660
(lp661
I3041
asS'Time Machines: The Best Time Travel Stories Ever Written'
p662
(lp663
I2502
asS'Theban Plays'
p664
(lp665
I1546
asS'Open City #9: Bewitched'
p666
(lp667
I3352
asS'La balsa de piedra'
p668
(lp669
I2533
asS'A Day in the Life of a Mayor: Featuring New York City Mayor Rudy Giuliani'
p670
(lp671
I1267
asS'Baby Minds: Brain-Building Games Your Baby Will Love'
p672
(lp673
I3284
asS'Aeschylus: The Oresteia (A Student Guide: Landmarks of World Literature)'
p674
(lp675
I1529
asS'Original Sin: A Biblical Theology of the Hebrew Bible'
p676
(lp677
I3818
asS"Madeleine L'Engle Herself: Reflections on a Writing Life"
p678
(lp679
I2812
asS'Treasure Island'
p680
(lp681
I295
asS'Guns, Germs, and Steel: The Fates of Human Societies'
p682
(lp683
I1842
asS'You Must Set Forth at Dawn: A Memoir'
p684
(lp685
I2569
asS'The Good Eye'
p686
(lp687
I836
asS'The Hidden Persuaders'
p688
(lp689
I3730
asS'In the Name of Jesus: Reflections on Christian Leadership'
p690
(lp691
I2520
asS'The Oxford Illustrated Jane Austen: 6-Volume Set'
p692
(lp693
I2154
asS'Last of the Amazons'
p694
(lp695
I1318
asS'On Tolkien: Interviews, Reminiscences, and Other Essays'
p696
(lp697
I2328
asS"David Guterson's Snow Falling on Cedars: A Reader's Guide"
p698
(lp699
I2737
asS'The Confessions of St. Augustine'
p700
(lp701
I1682
asS'The Real Warren Buffett: Managing Capital, Leading People'
p702
(lp703
I1139
asS'Stranger than Fiction'
p704
(lp705
I3717
asS'Body for Life: 12 Weeks to Mental and Physical Strength'
p706
(lp707
I1120
asS'Vida de Pi'
p708
(lp709
I1227
asS'Drina Dances in Italy (Drina, #4)'
p710
(lp711
I3146
asS'Tales from Ovid'
p712
(lp713
I1717
asS'Pompeii: The History, Life and Art of the Buried City'
p714
(lp715
I882
asS'Endymion (Hyperion Cantos #3)'
p716
(lp717
I3977
asS"The Clan of the Cave Bear (Earth's Children, #1)"
p718
(lp719
I1295
asS'Communication, Technology and Cultural Change'
p720
(lp721
I3369
asS'Seven-Year Seduction'
p722
(lp723
I102
asS'The Illustrated A Brief History of Time'
p724
(lp725
I2093
asS'Trump: The Way to the Top: The Best Business Advice I Ever Received'
p726
(lp727
I1036
asS'The Last Days of Pompeii'
p728
(lp729
I888
asS'Jack: A Life Like No Other'
p730
(lp731
I532
asS"Searching for Lost City: On the Trail of America's Native Languages"
p732
(lp733
I487
asS"The Languages of Tolkien's Middle-Earth"
p734
(lp735
I2330
asS'Sideswipe: A Hoke Moseley Novel'
p736
(lp737
I214
asS'Live Strong: Inspirational Stories from Cancer Survivors-from Diagnosis to Treatment and Beyond'
p738
(lp739
I2270
asS'The Oresteia: Agamemnon/The Libation Bearers/The Eumenides'
p740
(lp741
I1526
asS"The President's House: A First Daughter Shares the History and Secrets of the World's Most Famous Home"
p742
(lp743
I2295
asS'The Selected Journals Of L.M. Montgomery, Vol. 5: 1935-1942'
p744
(lp745
I3564
asS'Minds, Brains, and Learning: Understanding the Psychological and Educational Relevance of Neuroscientific Research'
p746
(lp747
I3287
asS'Whipping Star'
p748
(lp749
I2012
asS'Aristophanes 1: The Acharnians/Peace/Celebrating Ladies/Wealth'
p750
(lp751
I1563
asS'Eye of the Storm (Hudson, #3)'
p752
(lp753
I991
asS'Apologies to Thucydides: Understanding History as Culture and Vice Versa'
p754
(lp755
I1456
asS'Moby Dick (Great Illustrated Classics)'
p756
(lp757
I2391
asS'Brave Companions: Portraits In History'
p758
(lp759
I2367
asS'Advanced Mathematical Economics'
p760
(lp761
I3032
asS'The Air-Conditioned Nightmare'
p762
(lp763
I253
asS'The Bacchae Euripides the Frogs Aristophanes'
p764
(lp765
I2038
asS'Collapse: How Societies Choose to Fail or Succeed'
p766
(lp767
I475
asS'Fabeln.'
p768
(lp769
I3171
asS"Edith Wharton : Novellas and Other Writings : Madame De Treymes / Ethan Frome / Summer / Old New York / The Mother's Recompense / A Backward Glance"
p770
(lp771
I2309
asS"Seeing What's Next: Using the Theories of Innovation to Predict Industry Change"
p772
(lp773
I2616
asS'Temptations'
p774
(lp775
I3409
asS'The Rough Guide to Walks in London and Southeast England'
p776
(lp777
I789
asS"Basic Economics: A Citizen's Guide to the Economy"
p778
(lp779
I3023
asS'Sir Gawain and the Green Knight; Pearl; [and] Sir Orfeo'
p780
(lp781
I3048
asS'Fix-It and Forget-It Cookbook'
p782
(lp783
I3891
asS"The Hit Man: One Man's Strategy for Growth, Change, and Profit"
p784
(lp785
I2163
asS'Cold Counsel: Women in Old Norse Literature and Myth (Hardcover)'
p786
(lp787
I2353
asS'Natural Hormone Replacement: The Safe and Natural Menopause Treaatment Alternative...'
p788
(lp789
I3064
asS'Damn Right!: Behind the Scenes with Berkshire Hathaway Billionaire Charlie Munger'
p790
(lp791
I1160
asS'Empire 2.0: A Modest Proposal for a United States of the West (Terra Nova)'
p792
(lp793
I2680
asS'Sorting Out Your Finances for Dummies'
p794
(lp795
I3606
asS'What Maisie Knew'
p796
(lp797
I2690
asS'Maurice'
p798
(lp799
I3103
asS"Essays on Ayn Rand's the Fountainhead"
p800
(lp801
I2116
asS'Trump University Real Estate 101: Building Wealth with Real Estate Investments'
p802
(lp803
I1034
asS'Monkey Business'
p804
(lp805
I1163
asS"eBay PowerSeller Secrets: Insider Tips from eBay's Most Successful Sellers"
p806
(lp807
I134
asS"The America's Test Kitchen Family Cookbook"
p808
(lp809
I3888
asS'The Giver (The Giver, #1)'
p810
(lp811
I3636
asS'Roadside Guide to Indian Ruins & Rock Art of the Southwest'
p812
(lp813
I588
asS'Pride and Prejudice'
p814
(lp815
I1885
asS'Otis Spofford (Ellen & Otis, #2)'
p816
(lp817
I3408
asS'Ambiguous Images: Gender and Rock Art'
p818
(lp819
I587
asS'The Physics of Star Trek'
p820
(lp821
I2104
asS'When Johnny Came Sliding Home: The Post-Civil War Baseball Boom, 1865-1870'
p822
(lp823
I512
asS'Ten Plays'
p824
(lp825
I1467
asS'Fast Food Nation: What the All-American Meal Is Doing to the World'
p826
(lp827
I1102
asS'Harry Potter and the Chamber of Secrets (Harry Potter, #2)'
p828
(lp829
I4
asS'The Fall of Hyperion (Hyperion Cantos, #2)'
p830
(lp831
I3939
asS'Winterdance: The Fine Madness of Running the Iditarod'
p832
(lp833
I2923
asS'A Million Little Pieces'
p834
(lp835
I1241
asS'Buddhism: A New Approach'
p836
(lp837
I778
asS"Tyler Florence's Real Kitchen: An Indespensible Guide for Anybody Who Likes to Cook"
p838
(lp839
I1197
asS'The Invention of Solitude: A Memoir'
p840
(lp841
I452
asS'Love @ First Site'
p842
(lp843
I3536
asS"To Kill a Mockingbird (Barron's Book Notes)"
p844
(lp845
I2663
asS'Chess for Zebras'
p846
(lp847
I328
asS'Mientras Nieva Sobre Los Cedros/Snow Falling on Cedars (Spanish Edition)'
p848
(lp849
I2738
asS'New Junior Cookbook (Better Homes & Gardens Test Kitchen)'
p850
(lp851
I3894
asS'Stranger Than Fiction: The Shooting Script'
p852
(lp853
I3716
asS'In Spite of Innocence'
p854
(lp855
I1746
asS"Freedom's Shadow"
p856
(lp857
I1238
asS'Hard Rain (Code Red #16)'
p858
(lp859
I924
asS"Huck Finn/Pudd'nhead Wilson/No 44 Mysterious Stranger other Writings"
p860
(lp861
I2953
asS'Sharp Edges'
p862
(lp863
I3509
asS'Truth Stranger Than Fiction: Race, Realism, and the U.S. Literary Marketplace'
p864
(lp865
I3724
asS'Sophocles I: Oedipus The King, Oedipus at Colonus, Antigone (The Complete Greek Tragedies, #8)'
p866
(lp867
I1535
asS'The Rock Art of Texas Indians'
p868
(lp869
I591
asS'Obra Completa Narrativa'
p870
(lp871
I1671
asS'Bridge to Terabithia'
p872
(lp873
I2836
asS"Aristophanes' Old-And-New Comedy: Volume I: Six Essays in Perspective"
p874
(lp875
I2020
asS'A Modest Proposal: A Plan for the Golden Years'
p876
(lp877
I2682
asS'Night'
p878
(lp879
I1617
asS'2012: The Return of Quetzalcoatl'
p880
(lp881
I1814
asS"A Don't Sweat the Small Stuff Treasury: A Special Collection for Newlyweds"
p882
(lp883
I3955
asS'Geisha of Gion'
p884
(lp885
I935
asS'Tea with Jane Austen'
p886
(lp887
I2157
asS"Dubin's Lives"
p888
(lp889
I3071
asS"The Last Hours of Ancient Sunlight: The Fate of the World and What We Can Do Before It's Too Late"
p890
(lp891
I2127
asS'Wonderful World of Collecting Perfume Bottles: Identification & Value Guide'
p892
(lp893
I340
asS'Fullmetal Alchemist, Vol. 1 (Fullmetal Alchemist, #1)'
p894
(lp895
I870
asS'The Language of Heroes'
p896
(lp897
I1775
asS'Voices from Colonial America: Delaware 1638-1776'
p898
(lp899
I1072
asS'Designing for Interaction: Creating Smart Applications and Clever Devices'
p900
(lp901
I1854
asS"Teacher of Holiness: The Holy Spirit in Origen's Commentary on the Epistle to the Romans"
p902
(lp903
I3206
asS'The Barefoot Contessa Cookbook'
p904
(lp905
I3895
asS'The Essential Guide to Motorcycle Maintenance'
p906
(lp907
I631
asS"J.K. Rowling's Harry Potter Novels: A Reader's Guide"
p908
(lp909
I2004
asS'Along the Shore'
p910
(lp911
I3576
asS'Sir Gawain and the Green Knight'
p912
(lp913
I3049
asS'Did My First Mother Love Me?: A Story for an Adopted Child'
p914
(lp915
I3540
asS'Springboard 1'
p916
(lp917
I3133
asS'How to Make Anyone Fall in Love with You'
p918
(lp919
I938
asS'Euripides: Trojan Women'
p920
(lp921
I3252
asS"Sex Lover's Book of Lists"
p922
(lp923
I1291
asS'Luther and Erasmus: Free Will and Salvation (Library of Christian Classics)'
p924
(lp925
I2646
asS'The Vision of the Anointed: Self-Congratulation as a Basis for Social Policy'
p926
(lp927
I3044
asS"A House Like a Lotus (O'Keefe Family, #3)"
p928
(lp929
I2811
asS"Untouchables: My Family's Triumphant Journey Out of the Caste System in Modern India"
p930
(lp931
I165
asS"The Ultimate Hitchhiker's Guide to the Galaxy (Hitchhiker's Guide to the Galaxy #1-5)"
p932
(lp933
I13
asS'The New York Stories of Henry James'
p934
(lp935
I2693
asS'In the Heart of the Sea: The Epic True Story That Inspired Moby-Dick'
p936
(lp937
I2418
asS'V.'
p938
(lp939
I410
asS'Poetic Interplay: Catullus and Horace'
p940
(lp941
I1737
asS'A Brief History of the Western World (with CD-ROM and InfoTrac)'
p942
(lp943
I3452
asS'The Complete Sherlock Holmes, Vol 2'
p944
(lp945
I3586
asS'Politics of Subversion'
p946
(lp947
I1019
asS"Captain Corelli's Mandolin"
p948
(lp949
I3389
asS'Divorcio a la Francesa: Le Divorce'
p950
(lp951
I3918
asS'Notes from a Small Island'
p952
(lp953
I28
asS'Illuminations: Essays and Reflections'
p954
(lp955
I2725
asS'Cucina Fresca: Italian Food, Simply Prepared'
p956
(lp957
I1185
asS'Rough Guide Directions: London'
p958
(lp959
I790
asS'Scholastic Bookfiles: Bridge To Terabithia By Katherine Paterson'
p960
(lp961
I2840
asS'Aiding Democracy Abroad: The Learning Curve'
p962
(lp963
I2446
asS'Tennis Shoes'
p964
(lp965
I3785
asS'My Name is Red'
p966
(lp967
I2517
asS'Snow Falling On Cedars'
p968
(lp969
I2735
asS'Daniel Deronda'
p970
(lp971
I304
asS'Leaps of Faith: Science, Miracles & the Search for Supernatural Consolation'
p972
(lp973
I2077
asS'Salmon Doubts'
p974
(lp975
I374
asS'The History of Sexuality, Volume 2: The Use of Pleasure'
p976
(lp977
I1878
asS'Protagoras and Logos: A Study in Greek Philosophy and Rhetoric'
p978
(lp979
I1613
asS'What to Sell on ebay and Where to Get It: The Definitive Guide to Product Sourcing for eBay and Beyond'
p980
(lp981
I135
asS"Corporate Vices: What's Gone Wrong with Business?"
p982
(lp983
I607
asS'Three Comedies: The Birds/The Clouds/The Wasps'
p984
(lp985
I1589
asS'Rooms with a View: Two Decades of Outstanding American Interior Design from Kips Bay Decorator Show Houses'
p986
(lp987
I3094
asS'Hard Times'
p988
(lp989
I1983
asS'God Emperor of Dune (Dune Chronicles, #4)'
p990
(lp991
I103
asS'Armageddon Averted: The Soviet Collapse, 1970-2000'
p992
(lp993
I482
asS'Public Enemies (On The Run, #5)'
p994
(lp995
I3120
asS'The Secret Garden: Dawn to Dusk in the Astonishing Hidden World of the Garden'
p996
(lp997
I2809
asS'Phaedrus'
p998
(lp999
I1323
asS'The History of Love'
p1000
(lp1001
I3867
asS'Great Expectations (MAXNotes Literature Guides)'
p1002
(lp1003
I2628
asS'Read My Lips: Sexual Subversion and the End of Gender'
p1004
(lp1005
I1022
asS'Escape from Fire Mountain'
p1006
(lp1007
I2912
asS'The Honorary Consul'
p1008
(lp1009
I3699
asS'Cirque Du Soleil: The Spark: Igniting the Creative Fire That Lives Within Us All'
p1010
(lp1011
I3470
asS"How to Ride a Motorcycle: A Rider's Guide to Strategy, Safety, and Skill Development"
p1012
(lp1013
I644
asS'The Sun Also Rises: A Novel of the Twenties'
p1014
(lp1015
I3878
asS'Results That Matter: Improving Communities by Engaging Citizens, Measuring Performance, and Getting Things Done'
p1016
(lp1017
I1638
asS'Answered Prayers - The Unfinished Novel'
p1018
(lp1019
I2288
asS'Oedipus the King (Enriched Classics)'
p1020
(lp1021
I1559
asS'Online Investing Hacks: 100 Industrial-Strength Tips & Tools'
p1022
(lp1023
I1287
asS'Against the Wind'
p1024
(lp1025
I3670
asS'The Art of Structural Design: A Swiss Legacy'
p1026
(lp1027
I715
asS'Assembly of Women (Literary Classics)'
p1028
(lp1029
I2028
asS'The Ambassadors'
p1030
(lp1031
I2689
asS'LOGO Lounge: 2,000 International Identities by Leading Designers'
p1032
(lp1033
I650
asS'1776'
p1034
(lp1035
I1067
asS'A Short History of Decay'
p1036
(lp1037
I2855
asS'Sailing from Byzantium: How a Lost Empire Shaped the World'
p1038
(lp1039
I675
asS'The Rough Guide to London'
p1040
(lp1041
I786
asS'Martin Chuzzlewit'
p1042
(lp1043
I1990
asS'American Heart Association Low-Salt Cookbook, 3rd Edition: A Complete Guide to Reducing Sodium and Fat in Your Diet'
p1044
(lp1045
I2716
asS'The Electric Kool-Aid Acid Test'
p1046
(lp1047
I2667
asS"The Biggest Loser Cookbook: More Than 125 Healthy, Delicious Recipes Adapted from NBC's Hit Show"
p1048
(lp1049
I3881
asS'Is Your World Flat?: Experiencing Emotional Awareness in an Upwards-Moving Cycle'
p1050
(lp1051
I1915
asS'The John McPhee Reader (John McPhee Reader, #1)'
p1052
(lp1053
I74
asS"Aftifices of Eternity: Horace's Fourth Book of Odes"
p1054
(lp1055
I1736
asS'New York Trilogy: New York Underground, Trapped, Love and Sex'
p1056
(lp1057
I438
asS'Her Pilgrim Soul'
p1058
(lp1059
I3278
asS'The History (Great Minds)'
p1060
(lp1061
I1364
asS'Returning to Your First Love: Putting God Back in First Place'
p1062
(lp1063
I3528
asS'Angelfish'
p1064
(lp1065
I837
asS'The Complete Plays of Sophocles'
p1066
(lp1067
I1539
asS'Leadership Is an Art'
p1068
(lp1069
I1251
asS'Trump'
p1070
(lp1071
I1037
asS'West with the Night'
p1072
(lp1073
I1624
asS'Four Comedies: Lysistrata/The Congresswomen/The Acharnians/The Frogs'
p1074
(lp1075
I1578
asS'Undue Influence (Paul Madriani, #3)'
p1076
(lp1077
I2427
asS'High Exposure: An Enduring Passion for Everest and Unforgiving Places'
p1078
(lp1079
I1895
asS'Questions and Answers on Death and Dying: A Companion Volume to On Death and Dying'
p1080
(lp1081
I2227
asS'Persian Nights'
p1082
(lp1083
I3901
asS'El bosque de los pigmeos'
p1084
(lp1085
I3298
asS'Falconry  Hawking'
p1086
(lp1087
I2107
asS'MDX Solutions: With Microsoft SQL Server Analysis Services 2005 and Hyperion Essbase'
p1088
(lp1089
I3954
asS'The Book of Evidence'
p1090
(lp1091
I170
asS'The Chap Manifesto: Revolutionary Etiquette for the Modern Gentleman'
p1092
(lp1093
I556
asS'Ruby Slippers Cookbook: Life, Culture, Family & Food after Katrina'
p1094
(lp1095
I148
asS'Gorgias (Clarendon)'
p1096
(lp1097
I1357
asS'Fullmetal Alchemist, Vol. 2 (Fullmetal Alchemist, #2)'
p1098
(lp1099
I873
asS'The Rhetoric Of Imitation: Genre And Poetic Memory In Virgil And Other Latin Poets'
p1100
(lp1101
I1765
asS'How to Draw Action Dragonball Z (Dragonball Z)'
p1102
(lp1103
I3923
asS'Heat Wave: A Social Autopsy of Disaster in Chicago'
p1104
(lp1105
I3850
asS'The Persian War (Translations from Greek & Roman Authors)'
p1106
(lp1107
I1370
asS"The Theban Plays (Everyman's Library, #93)"
p1108
(lp1109
I1547
asS'Tandia'
p1110
(lp1111
I2336
asS'The Feeling Good Handbook'
p1112
(lp1113
I2222
asS"Fire at Eden's Gate: Tom McCall and the Oregon Story"
p1114
(lp1115
I1310
asS'The Long Dark Tea-Time of the Soul (Dirk Gently, #2)'
p1116
(lp1117
I357
asS'On Heroes and Tombs'
p1118
(lp1119
I1666
asS'Prescription for Natural Cures'
p1120
(lp1121
I3062
asS'The Westing Game'
p1122
(lp1123
I902
asS'Frogs/Assemblywomen/Wealth (Loeb Classical Library 180)'
p1124
(lp1125
I1579
asS'Aliens: Original Sin'
p1126
(lp1127
I3822
asS'The Life of Graham Greene: Volume II: 1939-1955'
p1128
(lp1129
I3696
asS'The World Treasury of Physics, Astronomy & Mathematics from Albert Einstein to Stephen W. Hawking & from Annie Dillard to John Updike'
p1130
(lp1131
I2109
asS'Moonraker (James Bond, #3)'
p1132
(lp1133
I3750
asS'Climate of Fear: The Quest for Dignity in a Dehumanized World'
p1134
(lp1135
I2571
asS'Hey Nostradamus!'
p1136
(lp1137
I3381
asS'Lose Weight with The Power of One: A Motivational Journey to Nutritional Sanity'
p1138
(lp1139
I124
asS'The Motorcycle Diaries: Notes on a Latin American Journey'
p1140
(lp1141
I632
asS'The Lord of the Rings: The Art of The Fellowship of the Ring'
p1142
(lp1143
I119
asS'Democracy Without Citizens: Media and the Decay of American Politics'
p1144
(lp1145
I2859
asS'Unpainted to the Last: "Moby Dick" and Twentieth-century American Art'
p1146
(lp1147
I2412
asS'Twelve Sharp (Stephanie Plum, #12)'
p1148
(lp1149
I3507
asS'Happiness, Death, and the Remainder of Life'
p1150
(lp1151
I2092
asS'Desert Heat (Joanna Brady, #1)'
p1152
(lp1153
I3848
asS'The Iliad/The Odyssey'
p1154
(lp1155
I1375
asS'The Mother Tongue: English and How It Got That Way'
p1156
(lp1157
I29
asS'Homeric Responses'
p1158
(lp1159
I1781
asS'Thucydides: Book I'
p1160
(lp1161
I1451
asS'Original Sin (Adam Dalgliesh #9)'
p1162
(lp1163
I3815
asS'When the World Was Steady'
p1164
(lp1165
I3651
asS'David Carson 2ndsight'
p1166
(lp1167
I692
asS'The 1776 Quilt: Heartache, Heritage, and Happiness'
p1168
(lp1169
I1071
asS'A Fairy Tale Created Original Sin'
p1170
(lp1171
I3821
asS'The Foods of Greece'
p1172
(lp1173
I2362
asS'Neither Here nor There: Travels in Europe'
p1174
(lp1175
I27
asS'The Myth of the Holy Cow'
p1176
(lp1177
I3863
asS'The Inner Life of Martin Frost'
p1178
(lp1179
I461
asS'Truth and Beauty'
p1180
(lp1181
I3686
asS'Hyperion Cantos: Hyperion / The Fall of Hyperion'
p1182
(lp1183
I3942
asS'Death and Dying: Life and Living [With Infotrac]'
p1184
(lp1185
I2235
asS"Paul Auster (Bloom's Modern Critical Views)"
p1186
(lp1187
I469
asS'On Christian Teaching'
p1188
(lp1189
I1691
asS'A Full House: An Austin Family Christmas (Austin Family, #9)'
p1190
(lp1191
I2817
asS'On Death and Dying'
p1192
(lp1193
I2226
asS'Of Mice and Men (SparkNotes Literature Guide)'
p1194
(lp1195
I894
asS'Chicago Blues: As Seen from the Inside'
p1196
(lp1197
I2922
asS'Lance Armstrong: The Race of His Life'
p1198
(lp1199
I2268
asS'The Broken Wings'
p1200
(lp1201
I291
asS"Tucket's Travels: Francis Tucket's Adventures In The West, 1847-1849 (The Tucket Adventures, #1-5)"
p1202
(lp1203
I2920
asS'Angels, Demons & Gods of the New Millenium: Musings on Modern Magick'
p1204
(lp1205
I962
asS'Advanced Global Illumination, Second Edition'
p1206
(lp1207
I2731
asS'My Nestorian Adventure in China: A Popular Account of the Holm-Nestorian Expedition to Sian-Fu and Its Results'
p1208
(lp1209
I3229
asS'Meditation, Compassion & Lovingkindness: An Approach to Vipassana Practice'
p1210
(lp1211
I782
asS'Silent Screens: The Decline and Transformation of the American Movie Theater'
p1212
(lp1213
I1733
asS'A World of Heroes: Selections from Homer, Herodotus and Sophocles'
p1214
(lp1215
I1553
asS"CliffsComplete Shakespeare's Hamlet (Cliffs Complete)"
p1216
(lp1217
I1438
asS'Good Earth'
p1218
(lp1219
I1085
asS'Dog Handling'
p1220
(lp1221
I3632
asS'Hank the Cowdog and Monkey Business (Hank the Cowdog, #14)'
p1222
(lp1223
I1166
asS'Monkey Business: True Story of the Scopes Trial'
p1224
(lp1225
I1164
asS'Seeing'
p1226
(lp1227
I2525
asS'Reading Greek Tragedy'
p1228
(lp1229
I1801
asS'Jesus the Son of Man'
p1230
(lp1231
I290
asS'Friday Night Lights: A Town, a Team, And a Dream'
p1232
(lp1233
I1621
asS'Gates Of Fire'
p1234
(lp1235
I1306
asS'The Fate of Empire, 1776-2000 (A History of Britain, #3)'
p1236
(lp1237
I1069
asS'Archaic Period (Greek Literature, Volume 2)'
p1238
(lp1239
I1788
asS'HTML Utopia'
p1240
(lp1241
I569
asS'Modern Latin America'
p1242
(lp1243
I702
asS"Caesar's Women (Masters of Rome, #4)"
p1244
(lp1245
I3417
asS'Breast Health the Natural Way'
p1246
(lp1247
I3127
asS'Love First: A New Approach to Intervention for Alcoholism and Drug Addiction (A Hazelden Guidebook)'
p1248
(lp1249
I3527
asS'Lysistrata'
p1250
(lp1251
I1570
asS'The War'
p1252
(lp1253
I278
asS"The Senator and the Socialite: The True Story of America's First Black Dynasty"
p1254
(lp1255
I3404
asS'Holy Cow! Does God Care about What We Eat?'
p1256
(lp1257
I3861
asS'Aristophanes\' "Lysistrata"'
p1258
(lp1259
I2030
asS"The Omnivore's Dilemma: A Natural History of Four Meals"
p1260
(lp1261
I3109
asS'Joe Pass Guitar Chords'
p1262
(lp1263
I753
asS'Old Norse-Icelandic Literature: A Short Introduction'
p1264
(lp1265
I2350
asS'Spectacles of Truth in Classical Greek Philosophy: Theoria in Its Cultural Context'
p1266
(lp1267
I1594
asS'Digging to America'
p1268
(lp1269
I698
asS'The Names'
p1270
(lp1271
I408
asS'The Adventures of Sherlock Holmes (Sherlock Holmes, #3)'
p1272
(lp1273
I3588
asS"The Wealthy Barber: Everyone's Commonsense Guide to Becoming Financially Independent"
p1274
(lp1275
I2672
asS'The Richest Man In Babylon'
p1276
(lp1277
I1058
asS"The Wealthy Barber: Everyone's Common-Sense Guide to Becoming Financially Independent"
p1278
(lp1279
I2673
asS"L'Affaire"
p1280
(lp1281
I3920
asS'Smart Mobs: The Next Social Revolution'
p1282
(lp1283
I2728
asS'Maui Handbook: Including Molokai and Lanai'
p1284
(lp1285
I3270
asS'A Shadow in Summer (Long Price Quartet, #1)'
p1286
(lp1287
I208
asS'How Artists See: Feelings: Joy, Sadness, Fear, Love'
p1288
(lp1289
I2894
asS'Shakespeare and the Denial of Death'
p1290
(lp1291
I2765
asS'Da Vinci Code (Robert Langdon, #2)'
p1292
(lp1293
I972
asS'Ballet Shoes (CD)'
p1294
(lp1295
I3778
asS'The Nightingale Question: Five Poets from Saxony'
p1296
(lp1297
I1596
asS'The Little Black Book of Martinis'
p1298
(lp1299
I2428
asS'Do It Tomorrow and Other Secrets of Time Management'
p1300
(lp1301
I3668
asS'Lord of the Flies'
p1302
(lp1303
I524
asS'Euripidean Polemic: The Trojan Women and the Function of Tragedy'
p1304
(lp1305
I3261
asS'A Broken Bow'
p1306
(lp1307
I3551
asS'Moby Dick (Troll Illustrated Classics)'
p1308
(lp1309
I2397
asS'Unauthorized Harry Potter Book Seven News: "Half-Blood Prince" Analysis and Speculation'
p1310
(lp1311
I9
asS'Electra and Other Plays'
p1312
(lp1313
I1472
asS'Guitar Picture Chords in Color'
p1314
(lp1315
I754
asS'Indian Givers: How the Indians of the Americas Transformed the World'
p1316
(lp1317
I3640
asS"Bill Bryson's African Diary"
p1318
(lp1319
I22
asS'The Dream Giver'
p1320
(lp1321
I3635
asS'The Letters of Gustave Flaubert, 1857-1880'
p1322
(lp1323
I2177
asS'Swiss Graphic Design: The Origins and Growth of an International Style, 1920-1965'
p1324
(lp1325
I710
asS'A Briefer History of Time'
p1326
(lp1327
I2094
asS'The Amazing Adventures of the Escapist: Volume 1'
p1328
(lp1329
I3986
asS'Lance Armstrong: Images of a Champion'
p1330
(lp1331
I2272
asS'Version Control with Subversion'
p1332
(lp1333
I1015
asS'The Praise of Folly'
p1334
(lp1335
I2629
asS'The Healthy College Cookbook: Quick. Cheap. Easy.'
p1336
(lp1337
I3897
asS'El perfume: historia de un asesino'
p1338
(lp1339
I337
asS'Dalit: The Black Untouchables of India'
p1340
(lp1341
I166
asS'Herman Melville:  Moby Dick, Billy Budd and Other Writings'
p1342
(lp1343
I2406
asS'The Origins of Rhetoric in Ancient Greece'
p1344
(lp1345
I1605
asS'The Histories'
p1346
(lp1347
I1362
asS'Into Thin Air: A Personal Account of the Mount Everest Disaster'
p1348
(lp1349
I1898
asS"America (The Book): A Citizen's Guide to Democracy Inaction"
p1350
(lp1351
I706
asS'The Double-Bass (Bloomsbury Classics)'
p1352
(lp1353
I2902
asS'Ensayo sobre la ceguera'
p1354
(lp1355
I2540
asS'Slouching Towards Bethlehem'
p1356
(lp1357
I424
asS"Augustine's Laws"
p1358
(lp1359
I1696
asS'Another Bullshit Night in Suck City'
p1360
(lp1361
I386
asS'Reading Families'
p1362
(lp1363
I3374
asS'Bullets, Badges, and Bullshit'
p1364
(lp1365
I392
asS'Minor Works: On Colours/On Things Heard/Physiognomics/On Plants/On Marvellous Things Heard/Mechanical Problems/On Indivisible Lines/The...Gorgias'
p1366
(lp1367
I3232
asS'Odalisque (The Baroque Cycle, Vol. 1, Book 3)'
p1368
(lp1369
I829
asS'Coming into the Country'
p1370
(lp1371
I79
asS'Greek Literature in the Roman Period and in Late Antiquity'
p1372
(lp1373
I1790
asS'The Sea'
p1374
(lp1375
I3656
asS'More Natural Cures Revealed'
p1376
(lp1377
I682
asS"23 Days in July: Inside the Tour de France and Lance Armstrong's Record-Breaking Victory"
p1378
(lp1379
I2267
asS'The Power of One: One Person, One Rule, One Month'
p1380
(lp1381
I129
asS'From the Good Earth: A Celebration of Growing Food Around the World'
p1382
(lp1383
I1084
asS'The Lover'
p1384
(lp1385
I275
asS'The List'
p1386
(lp1387
I2430
asS'The Riverside Shakespeare'
p1388
(lp1389
I1414
asS'Falling Angels'
p1390
(lp1391
I2872
asS'The Time of the Assassins:  a Study of Rimbaud'
p1392
(lp1393
I254
asS'Heat and Dust'
p1394
(lp1395
I3853
asS'Black Swan/White Crow'
p1396
(lp1397
I3481
asS'Recovering Subversion: FEMINIST POLITICS BEYOND THE LAW'
p1398
(lp1399
I1021
asS'Roman Fever (and Other Stories)'
p1400
(lp1401
I2313
asS"Fodor's Guide to The Da Vinci Code: On the Trail of the Bestselling Novel"
p1402
(lp1403
I970
asS'The Name of the Rose'
p1404
(lp1405
I2519
asS'A Long Shadow (Inspector Ian Rutledge, #8)'
p1406
(lp1407
I205
asS'Stranger in a Strange Land'
p1408
(lp1409
I350
asS'Bread and Roses, Too'
p1410
(lp1411
I2847
asS'Drina Dances Again (Drina, #5)'
p1412
(lp1413
I3150
asS'Les Heures'
p1414
(lp1415
I2135
asS'The Lira Da Braccio'
p1416
(lp1417
I3601
asS"Matthew Flinders' Cat"
p1418
(lp1419
I2338
asS'The Natural Way to Draw'
p1420
(lp1421
I3061
asS'Swiss Design 2002: Netzwerke / Ra(c)Seaux / Networks'
p1422
(lp1423
I711
asS'American Notes for General Circulation'
p1424
(lp1425
I3021
asS'The House of Mirth'
p1426
(lp1427
I2314
asS"Morgan's Run"
p1428
(lp1429
I3420
asS'Sex For Dummies'
p1430
(lp1431
I2218
asS'The Random House Book of 20th Century French Poetry'
p1432
(lp1433
I459
asS"Harrington on Hold 'em: Expert Strategy for No-Limit Tournaments, Volume II: The Endgame"
p1434
(lp1435
I834
asS'Special Topics in Calamity Physics'
p1436
(lp1437
I3483
asS'Gorgias: Encomium of Helen'
p1438
(lp1439
I1358
asS'Euripides III: Hecuba/Andromache/The Trojan Women/Ion (Complete Greek Tragedies, #7)'
p1440
(lp1441
I1468
asS"O'Brien's the Things They Carried"
p1442
(lp1443
I3426
asS'The Peaceful Warrior: The Diary of Deborahs Armor Bearer, Israel, 1200 B.C.'
p1444
(lp1445
I2263
asS'A Journal of the Plague Year'
p1446
(lp1447
I2945
asS'Ballet Shoes'
p1448
(lp1449
I3776
asS'Out to Eat London 2002 (Lonely Planet Out to Eat)'
p1450
(lp1451
I799
asS'Blue Chicago: The Search for Authenticity in Urban Blues Clubs'
p1452
(lp1453
I2918
asS"CliffsNotes on Euripides' Medea and Electra"
p1454
(lp1455
I1506
asS'Eva Luna'
p1456
(lp1457
I3290
asS'The Colossus of Maroussi'
p1458
(lp1459
I246
asS'Money to Burn'
p1460
(lp1461
I1645
asS'Knit India Through Literature, Volume II: The East'
p1462
(lp1463
I2248
asS'Harry Potter and the Order of the Phoenix (Harry Potter, #5)'
p1464
(lp1465
I2
asS'The Kite Runner'
p1466
(lp1467
I874
asS'The Future of Spacetime'
p1468
(lp1469
I2100
asS'Huck Finn & Tom Sawyer among the Indians & Other Unfinished Stories (Mark Twain Library)'
p1470
(lp1471
I2949
asS'The Shaolin Way: 10 Modern Secrets of Survival from a Shaolin Grandmaster'
p1472
(lp1473
I781
asS'Dune Trilogy Box Set (Dune Chronicles, #1-3)'
p1474
(lp1475
I114
asS'Harry Potter et la Chambre des Secrets (Harry Potter, #2)'
p1476
(lp1477
I3354
asS'Scents (Chic Simple)'
p1478
(lp1479
I814
asS'Daily Inspiration for the Purpose Driven Life'
p1480
(lp1481
I1096
asS'The Grass Crown (Masters of Rome, #2)'
p1482
(lp1483
I3424
asS'Pragmatic Version Control: Using Subversion (The Pragmatic Starter Kit Series)'
p1484
(lp1485
I1014
asS'Sex, Drugs, and Cocoa Puffs: A Low Culture Manifesto'
p1486
(lp1487
I599
asS'The Big Book of Logos 3'
p1488
(lp1489
I653
asS'The Amazing Adventures Of Bathman!'
p1490
(lp1491
I3987
asS'The Language of News Media'
p1492
(lp1493
I2754
asS'Augustine Came to Kent'
p1494
(lp1495
I1687
asS'Girl with a Pearl Earring'
p1496
(lp1497
I2864
asS"New Essays on 'The Portrait of a Lady'"
p1498
(lp1499
I271
asS'The Fountainheads: Wright, Rand, the FBI and Hollywood'
p1500
(lp1501
I2118
asS'Unleashing the Ideavirus: Stop Marketing AT People! Turn Your Ideas into Epidemics by Helping Your Customers Do the Marketing thing for You.'
p1502
(lp1503
I2613
asS'The Canterbury Tales (original-spelling edition)'
p1504
(lp1505
I2701
asS'Indian Sign Language'
p1506
(lp1507
I488
asS'La Chute de John R.'
p1508
(lp1509
I1221
asS'The Peloponnesian War: A New Translation, Backgrounds, Interpretations'
p1510
(lp1511
I1449
asS'Nexus (The Rosy Crucifixion, #3)'
p1512
(lp1513
I251
asS'Theocritus and the Archaeology of Greek Poetry'
p1514
(lp1515
I2453
asS'Swiss Graphic Design'
p1516
(lp1517
I716
asS'A Tale of Two Cities, Spotlight Edition'
p1518
(lp1519
I1969
asS'Some of the Funniest Things Happen in the Most Unlikely and Unexpected Places'
p1520
(lp1521
I2472
asS'The Runaways'
p1522
(lp1523
I2320
asS'Breaking Open the Head: A Psychedelic Journey Into the Heart of Contemporary Shamanism'
p1524
(lp1525
I1815
asS'The Goddess Rules'
p1526
(lp1527
I3629
asS'Conversations with Bernard Malamud (Literary Conversations)'
p1528
(lp1529
I3070
asS'Simply Beautiful Beading'
p1530
(lp1531
I100
asS'Trump: The Best Real Estate Advice I Ever Received: 100 Top Experts Share Their Strategies'
p1532
(lp1533
I1041
asS'Collapse: How Societies Choose to Fail or Survive'
p1534
(lp1535
I1994
asS'Aspects of the Novel'
p1536
(lp1537
I3667
asS'Not One More Death'
p1538
(lp1539
I1812
asS"I Wish I Had Known That!: World's Greatest Money & Time Saving Baby Secrets Revealed!"
p1540
(lp1541
I70
asS"Euripides' Bacchae"
p1542
(lp1543
I1487
asS'Plata quemada'
p1544
(lp1545
I1654
asS'History of Graphic Design 3e IM'
p1546
(lp1547
I2779
asS'Getting Pregnant the Natural Way: The 6-Step Natural Fertility Program Integrating Nutrition, Herbal Therapy, Movement Therapy, Massage, and Mind-Body Techniques'
p1548
(lp1549
I3125
asS'A People and a Nation: A History of the United States'
p1550
(lp1551
I2773
asS'Shadows in the Starlight (Changeling Detective, #2)'
p1552
(lp1553
I65
asS'The Complete Stories of Truman Capote'
p1554
(lp1555
I2281
asS'Thucydides'
p1556
(lp1557
I1457
asS'The Invention of Tradition'
p1558
(lp1559
I505
asS'Kindred Spirits'
p1560
(lp1561
I3274
asS'Music at the Aragonese Court of Naples'
p1562
(lp1563
I2381
asS"The Innovator's Solution: Creating and Sustaining Successful Growth"
p1564
(lp1565
I2618
asS'The Phaedrus Of Plato'
p1566
(lp1567
I3178
asS'And a Hard Rain Fell'
p1568
(lp1569
I916
asS'Typee, Omoo, Mardi'
p1570
(lp1571
I3738
asS'Wilfrid Gordon McDonald Partridge'
p1572
(lp1573
I3118
asS'The Metamorphoses of Ovid'
p1574
(lp1575
I1713
asS'Prologue (Geoffrey Chaucer   The Canterbury Tales)'
p1576
(lp1577
I2714
asS'The Richest Man in Babylon: 2the Success Secrets of the Ancients'
p1578
(lp1579
I1055
asS'Oxford Guides to Chaucer: The Canterbury Tales'
p1580
(lp1581
I2705
asS"Ruby Ann's Down Home Trailer Park Cookbook"
p1582
(lp1583
I142
asS'The Old Way of Seeing: How Architecture Lost Its Magic - And How to Get It Back'
p1584
(lp1585
I2785
asS'Shadows and Wind: A View of Modern Vietnam'
p1586
(lp1587
I1234
asS"Always Enough: God's Miraculous Provision Among the Poorest Children on Earth"
p1588
(lp1589
I91
asS'Burning'
p1590
(lp1591
I3907
asS'The Life of Graham Greene, Vol. 1: 1904-1939'
p1592
(lp1593
I3687
asS'The Long Secret'
p1594
(lp1595
I3747
asS'In An Uncertain World: Tough Choices From Wall Street To Washington'
p1596
(lp1597
I2986
asS'Assassination Vacation'
p1598
(lp1599
I3110
asS'50,001 Best Baby Names'
p1600
(lp1601
I2524
asS'The Oresteia Trilogy: Agamemnon/The Libation-Bearers/The Furies'
p1602
(lp1603
I1532
asS'The Shadow of the Wind (The Cemetery of Forgotten Books,  #1)'
p1604
(lp1605
I1232
asS'The Family Idiot 5: Gustave Flaubert 1821-1857'
p1606
(lp1607
I2186
asS'City as Comedy'
p1608
(lp1609
I2465
asS'Specimen Days'
p1610
(lp1611
I2136
asS'Antiquities'
p1612
(lp1613
I1787
asS'Christina Cooks: Everything You Always Wanted to Know About Whole Foods But Were Afraid to Ask'
p1614
(lp1615
I2609
asS'Seven Days of Solitude: A Guidebook for a Personal Retreat'
p1616
(lp1617
I2492
asS'Elbow Room: The Varieties of Free Will Worth Wanting'
p1618
(lp1619
I2078
asS'The ELEGANT UNIVERSE S.S.'
p1620
(lp1621
I773
asS'A Was Once an Apple Pie'
p1622
(lp1623
I241
asS"The Hitchhiker's Guide to the Galaxy (Hitchhiker's Guide, #1)"
p1624
(lp1625
I3501
asS'Dos Logos'
p1626
(lp1627
I648
asS'Buddhism Plain and Simple'
p1628
(lp1629
I776
asS"There's Always Enough: The Miraculous Move of God in Mozambique"
p1630
(lp1631
I96
asS"It's Not About The Bike - My Journey Back To Life"
p1632
(lp1633
I2265
asS'The Confessions (Christian Classics)'
p1634
(lp1635
I1689
asS'Anthem (Paperback)'
p1636
(lp1637
I2114
asS'From the Mixed-Up Files of Mrs. Basil E. Frankweiler'
p1638
(lp1639
I3980
asS'Out-of-This-World Astronomy: 50 Amazing Activities  Projects'
p1640
(lp1641
I1833
asS'The Guitar Chord Wheel Book: Over 22,000 Chords!'
p1642
(lp1643
I725
asS'Euripides I: Alcestis/The Medea/The Heracleidae/Hippolytus'
p1644
(lp1645
I1462
asS'Kiffe Kiffe Tomorrow'
p1646
(lp1647
I3402
asS'Kare First Love, Vol. 9 (Kare First Love, #9)'
p1648
(lp1649
I3525
asS'Classical Period : Poetics of Drama (Greek Literature, Volume 3)'
p1650
(lp1651
I1795
asS'The Think and Grow Rich Action Pack'
p1652
(lp1653
I1009
asS'The Lord of the Rings: Complete Visual Companion'
p1654
(lp1655
I37
asS'Maximum Accessibility: Making Your Web Site More Usable for Everyone: Making Your Web Site More Usable for Everyone'
p1656
(lp1657
I1826
asS'Mason & Dixon'
p1658
(lp1659
I413
asS'Mars and Venus Book of Days: 365 Inspriations to Enrich Your Relationships'
p1660
(lp1661
I1276
asS'In Praise of Folly'
p1662
(lp1663
I2630
asS'Trinity (Works of Saint Augustine)'
p1664
(lp1665
I1688
asS'The Old Man and the Sea'
p1666
(lp1667
I2165
asS'Flight: 100 Years of Aviation'
p1668
(lp1669
I312
asS'Wild Swans: Three Daughters of China'
p1670
(lp1671
I1848
asS'Bacchae (Plays of Euripides)'
p1672
(lp1673
I1493
asS'Frances Hodgson Burnett: The Unexpected Life of the Author of the Secret Garden'
p1674
(lp1675
I3005
asS"A Historical Commentary on Thucydides: A Companion to Rex Warner's Penguin Translation"
p1676
(lp1677
I1448
asS'The History of Sexuality, Volume 1: An Introduction'
p1678
(lp1679
I1875
asS'Burning Man: Art in the Desert'
p1680
(lp1681
I3349
asS'7 Habits of Highly Effective People: Powerful Lessons in Personal Change'
p1682
(lp1683
I2252
asS'The Things They Carried'
p1684
(lp1685
I3430
asS'Encyclopedia of Thai Massage'
p1686
(lp1687
I806
asS'Runaway Time'
p1688
(lp1689
I3124
asS'Fullmetal Alchemist, Vol. 9 (Fullmetal Alchemist, #9)'
p1690
(lp1691
I866
asS'100 Years of Lynchings'
p1692
(lp1693
I313
asS'Huck Finn\'s "Hidden" Lessons: Teaching and Learning Across the Color Line'
p1694
(lp1695
I2954
asS"Dr No / Moonraker / Thunderball / From Russia with Love / On Her Majesty's Secret Service / Goldfinger"
p1696
(lp1697
I3754
asS"Michelin's Charming Places to Stay in France 2003: 1000 Hotels & Guesthouses for Less Than 80 Euros"
p1698
(lp1699
I575
asS'Oedipus Rex  (The Theban Plays, #1)'
p1700
(lp1701
I1554
asS'Oracle Night'
p1702
(lp1703
I458
asS"Heat: An Amateur's Adventures as Kitchen Slave, Line Cook, Pasta-Maker, and Apprentice to a Butcher in Tuscany"
p1704
(lp1705
I3844
asS'Children of Dune (Dune Chronicles #3)'
p1706
(lp1707
I112
asS'Three Weeks With My Brother'
p1708
(lp1709
I3465
asS'Aeschylus I: Oresteia (Agamemnon, The Libation Bearers, The Eumenides)'
p1710
(lp1711
I1516
asS'Memoirs Of A Geisha'
p1712
(lp1713
I936
asS'Los Logos: A Selected LOGO Collection'
p1714
(lp1715
I652
asS'The Trojan Women'
p1716
(lp1717
I3250
asS'The Frogs'
p1718
(lp1719
I1582
asS'Alcestis/Medea/Heracleidae/Hippolytus/Cyclops/Heracles/Iphigenia in Tauris/Helen/Hecuba/Andromache/The Trojan Women (Complete Greek Tragedies, #3)'
p1720
(lp1721
I1515
asS'Kinds of Minds: Towards an Understanding of Consciousness'
p1722
(lp1723
I2074
asS'Robert Johnson (Signature Licks)'
p1724
(lp1725
I2983
asS'Getting Things Done: The Art of Stress-Free Productivity'
p1726
(lp1727
I1633
asS'Atlas Shrugged'
p1728
(lp1729
I662
asS'Dragonball Z: How To Draw Ii'
p1730
(lp1731
I3922
asS'A Little Princess'
p1732
(lp1733
I3008
asS'The Dark Horse'
p1734
(lp1735
I3800
asS'The Puffin Book Of Nonsense Verse'
p1736
(lp1737
I244
asS'Real Boys: Rescuing Our Sons from the Myths of Boyhood'
p1738
(lp1739
I2745
asS'A Tomb for Anatole: Poetry'
p1740
(lp1741
I448
asS'Robert Johnson - King of the Delta Blues: Guitar Transcriptions and Detailed Lessons for 29 Songs'
p1742
(lp1743
I2984
asS'Kepler'
p1744
(lp1745
I3663
asS'Secrets of Angels and Demons'
p1746
(lp1747
I964
asS'One Last Kill (John Rain, #4)'
p1748
(lp1749
I1224
asS'The Time Hackers'
p1750
(lp1751
I2919
asS'Traders, Guns & Money: Knowns and Unknowns in the Dazzling World of Derivatives'
p1752
(lp1753
I71
asS'Modos de ensayo: De Borges a Piglia'
p1754
(lp1755
I1652
asS'The Warren Buffett Portfolio: Mastering the Power of the Focus Investment Strategy'
p1756
(lp1757
I1131
asS'The Autograph Man'
p1758
(lp1759
I3710
asS'Ortlos: Architecture of the Net.Works'
p1760
(lp1761
I697
asS'Angel Customers & Demon Customers: Discover Which is Which, and Turbo-Charge Your Stock'
p1762
(lp1763
I967
asS"Into a Paris Quartier: Reine Margot's Chapel and Other Haunts of St. Germain"
p1764
(lp1765
I3900
asS'Kiowa Trail'
p1766
(lp1767
I1292
asS'The Five People You Meet in Heaven'
p1768
(lp1769
I3431
asS'The Art of Rock: Posters from Presley to Punk'
p1770
(lp1771
I585
asS'The Moon is a Harsh Mistress'
p1772
(lp1773
I349
asS'To Kill a Mockingbird (To Kill A Mockingbird #1)'
p1774
(lp1775
I2660
asS'Banking Online For Dummies'
p1776
(lp1777
I3610
asS'Through Gates of Fire: A Journey into World Disorder'
p1778
(lp1779
I1311
asS'Harriet Spies Again'
p1780
(lp1781
I3748
asS"Cliffs Notes on Shakespeare's Hamlet"
p1782
(lp1783
I1437
asS"Thursday's Children"
p1784
(lp1785
I3791
asS'Benzin: Young Swiss Graphic Design'
p1786
(lp1787
I712
asS'The Deeper Meaning of Liff'
p1788
(lp1789
I2322
asS'The Richest Man in Babylon'
p1790
(lp1791
I1052
asS'Marketing Warfare!'
p1792
(lp1793
I2596
asS'Antigone (Greek and Latin Classics)'
p1794
(lp1795
I1544
asS'Flip-Flop Girl'
p1796
(lp1797
I2853
asS'The Storm'
p1798
(lp1799
I2943
asS'Computational Physics: The Proceedings of the Second International Conference on Computational Physics (ICCP-2): September 13-17, 1993, Beijing, China'
p1800
(lp1801
I3485
asS'Generation X: Tales for an Accelerated Culture'
p1802
(lp1803
I3378
asS'The Bad Guys Won!'
p1804
(lp1805
I1300
asS"Moloka'i"
p1806
(lp1807
I3273
asS'Women of Troy/Hecuba/Helen: Three Plays'
p1808
(lp1809
I3259
asS'Surgery: Basic Science and Clinical Evidence'
p1810
(lp1811
I172
asS'Lots and Lots of Zebra Stripes'
p1812
(lp1813
I335
asS'The Lost Continent: Travels in Small-Town America'
p1814
(lp1815
I26
asS'Hunting the Hunter (On the Run, #6)'
p1816
(lp1817
I3119
asS'The Intellectual Revolution: Selections from Euripides, Thucydides and Plato'
p1818
(lp1819
I1458
asS'UFOs Over Topanga Canyon'
p1820
(lp1821
I2080
asS"Tim O'Brien: A Critical Companion"
p1822
(lp1823
I3448
asS'The Assistant'
p1824
(lp1825
I3068
asS'Hippolytos'
p1826
(lp1827
I1508
asS'Winds of Change (The Story Girl #8)'
p1828
(lp1829
I3568
asS'Novels, 1901-1902'
p1830
(lp1831
I2688
asS'Love Artist (Harlequin Romance #2860)'
p1832
(lp1833
I2893
asS'The Art of War'
p1834
(lp1835
I2593
asS'Instant Songwriting with the Piano'
p1836
(lp1837
I1767
asS'Breaking Open the Head: A Psychedelic Journey from Cynicism to Shamanism'
p1838
(lp1839
I1817
asS'Selected Writings from Protagoras/Republic/Phaedrus/Gorgias'
p1840
(lp1841
I3162
asS'No Logo'
p1842
(lp1843
I647
asS'Creative Correction: Extraordinary Ideas For Everyday Discipline'
p1844
(lp1845
I3806
asS"CliffsNotes on Tolstoy's Anna Karenina"
p1846
(lp1847
I154
asS'The Birth of Tragedy'
p1848
(lp1849
I2822
asS'Salmon of Doubt'
p1850
(lp1851
I375
asS'The Praise of Folly and Other Writings'
p1852
(lp1853
I2631
asS'Harry Potter and the Prisoner of Azkaban (Harry Potter, #3)'
p1854
(lp1855
I5
asS'The Crying of Lot 49'
p1856
(lp1857
I411
asS'Trump: How to Get Rich'
p1858
(lp1859
I1035
asS'Loving Graham Greene: A Novel'
p1860
(lp1861
I3704
asS'The Black Tower (Adam Dalgliesh #5)'
p1862
(lp1863
I3833
asS"The Clan of the Cave Bear, Part 1 of 2 (Earth's Children, #1)"
p1864
(lp1865
I1297
asS'Nineveh and Its Remains, Volume 1'
p1866
(lp1867
I3200
asS"L'Amour"
p1868
(lp1869
I282
asS'Annals of the Former World'
p1870
(lp1871
I78
asS'Islands, Mounds, And Atoms: Patterns And Processes In Crystal Growth Far From Equilibrium'
p1872
(lp1873
I3373
asS'No Fluff, Just Stuff Anthology'
p1874
(lp1875
I521
asS'Chasing Jordan'
p1876
(lp1877
I101
asS'The Story of Mr Sommer'
p1878
(lp1879
I2900
asS"Thucydides: Man's Place in History"
p1880
(lp1881
I1455
asS'Augustine: A Very Short Introduction'
p1882
(lp1883
I1703
asS'Earth is Flat" and Other Great Mistakes'
p1884
(lp1885
I1908
asS'Moby Dick'
p1886
(lp1887
I2386
asS'Born To Be Wild'
p1888
(lp1889
I1850
asS'The Last Assassin (John Rain, #5)'
p1890
(lp1891
I1218
asS'Commodities For Dummies'
p1892
(lp1893
I3613
asS'The Santaroga Barrier'
p1894
(lp1895
I2010
asS'Angle of Repose'
p1896
(lp1897
I3359
asS"The Lady in the Lake, The Little Sister, The Long Goodbye, Playback (Everyman's Library)"
p1898
(lp1899
I2048
asS'The Power of an Hour: Business and Life Mastery in One Hour a Week'
p1900
(lp1901
I130
asS'Iron Ties'
p1902
(lp1903
I3366
asS'A Field Guide to Rock Art Symbols of the Greater Southwest'
p1904
(lp1905
I589
asS'Movie Shoes (Shoes, #6)'
p1906
(lp1907
I3784
asS'A Tale of Two Cities'
p1908
(lp1909
I1952
asS'The Puritan Tradition in Revolutionary, Federalist, and Whig Political Theory: A Rhetoric of Origins'
p1910
(lp1911
I1608
asS'Chicago Blues: Portraits and Stories'
p1912
(lp1913
I2914
asS'Melville and the politics of identity: From *King Lear* to *Moby-Dick*'
p1914
(lp1915
I2411
asS"Geoffrey Chaucer's The Pardoner's Tale"
p1916
(lp1917
I2709
asS'Cool Names for Babies'
p1918
(lp1919
I2523
asS'Guitar Case Chord Book (Guitar)'
p1920
(lp1921
I755
asS'The Automatic Millionaire: A Powerful One-Step Plan to Live and Finish Rich'
p1922
(lp1923
I621
asS'The Other Side of Nowhere: Jazz, Improvisation, and Communities in Dialogue'
p1924
(lp1925
I2358
asS'The World Is Flat: A Brief History of the Twenty-first Century'
p1926
(lp1927
I1911
asS'The Complete Anne of Green Gables Boxed Set (Anne of Green Gables, #1-8)'
p1928
(lp1929
I3579
asS'Ethnography: A Way of Seeing'
p1930
(lp1931
I2792
asS'The Shark-Infested Custard'
p1932
(lp1933
I222
asS'Capitalism: The Unknown Ideal'
p1934
(lp1935
I669
asS'Heretics of Dune (Dune Chronicles, #5)'
p1936
(lp1937
I109
asS'White Teeth'
p1938
(lp1939
I3711
asS'Practice of the Wild'
p1940
(lp1941
I1836
asS'Living Abroad in Costa Rica'
p1942
(lp1943
I2448
asS'A Wrinkle in Time: Teacher Guide'
p1944
(lp1945
I197
asS'The Complete Works'
p1946
(lp1947
I1419
asS'Necessity, Volition, and Love'
p1948
(lp1949
I3495
asS'Selected Stories'
p1950
(lp1951
I2506
asS'The 48 Laws of Power'
p1952
(lp1953
I1303
asS'UFOs Over California: A True History of Extraterrestrial Encounters in the Golden State'
p1954
(lp1955
I2079
asS'Our Man in Havana'
p1956
(lp1957
I3697
asS'Dictionary of Bullshit'
p1958
(lp1959
I391
asS'Great Short Works'
p1960
(lp1961
I654
asS'Leadership'
p1962
(lp1963
I1265
asS'English-Cayuga/Cayuga-English Dictionary'
p1964
(lp1965
I522
asS"Warren Buffett: An Illustrated Biography of the World's Most Successful Investor"
p1966
(lp1967
I1144
asS"A People's History of the United States: A Lecture at Reed College"
p1968
(lp1969
I2771
asS'A Nation of Victims: The Decay of the American Character'
p1970
(lp1971
I2857
asS'The Book of Salt'
p1972
(lp1973
I2719
asS'Graphic Design: A Concise History (World of Art)'
p1974
(lp1975
I2778
asS'Greek Literature in the Byzantine Period: Greek Literature'
p1976
(lp1977
I1791
asS'Gordon Ramsay Makes It Easy'
p1978
(lp1979
I3116
asS'Den of Thieves'
p1980
(lp1981
I1972
asS'Poetry and Myth in Ancient Pastoral: Essays on Theocritus and Virgil'
p1982
(lp1983
I1753
asS'Robinson Crusoe'
p1984
(lp1985
I2933
asS'Shibumi'
p1986
(lp1987
I1059
asS"A. Lincoln'S Gettysburg Addres"
p1988
(lp1989
I396
asS'Object-Oriented Programming in C++'
p1990
(lp1991
I1771
asS'Grand Theft Auto: Vice City Stories Official Strategy Guide'
p1992
(lp1993
I610
asS'The Eclogues of Virgil: A Translation'
p1994
(lp1995
I1407
asS"Reinventing the Enemy's Language: Contemporary Native Women's Writings of North America"
p1996
(lp1997
I484
asS'Motorcycle Camping Made Easy'
p1998
(lp1999
I645
asS'Bleach, Volume 12'
p2000
(lp2001
I2883
asS'Amazing Leonardo da Vinci Inventions: You Can Build Yourself'
p2002
(lp2003
I507
asS"A Chosen Few: The Resurrection of European Jewry (Reader's Circle)"
p2004
(lp2005
I3346
asS'Growing Up Untouchable in India: A Dalit Autobiography'
p2006
(lp2007
I168
asS'Poetry for Young People: Edward Lear'
p2008
(lp2009
I237
asS'How to Cook Everything Simple Recipes for Great Food'
p2010
(lp2011
I2604
asS'CSS Pocket Reference'
p2012
(lp2013
I567
asS"The Complete Idiot's Guide to Cashing in On Your Inventions"
p2014
(lp2015
I508
asS'Rich Dad Poor Dad Classics - Boxed Set'
p2016
(lp2017
I913
asS"Thomas Pynchon (Bloom's Modern Critical Views)"
p2018
(lp2019
I417
asS"Motorcycle Owner's Manual"
p2020
(lp2021
I634
asS'Perimenopause the Natural Way'
p2022
(lp2023
I3134
asS'Holy Man: Father Damien of Molokai'
p2024
(lp2025
I3271
asS'The Power of One Christlike Life'
p2026
(lp2027
I128
asS'Random Harvest'
p2028
(lp2029
I2981
asS'Oedipus Rex'
p2030
(lp2031
I1556
asS"Through Otis' Eyes: Lessons from a Guide Dog Puppy"
p2032
(lp2033
I3405
asS"Homer's Text and Language"
p2034
(lp2035
I1783
asS'Douglas Adams Starship Titanic: The Official Strategy Guide'
p2036
(lp2037
I369
asS'Gecko Gathering PB'
p2038
(lp2039
I1834
asS'Chandler: Stories and Early Novels'
p2040
(lp2041
I2046
asS"What's Out There: Images from Here to the Edge of the Universe"
p2042
(lp2043
I2106
asS'Children Are from Heaven: How to Have Strong, Confident Children'
p2044
(lp2045
I1282
asS'Emily Climbs'
p2046
(lp2047
I3569
asS'Trump: The Art of the Deal'
p2048
(lp2049
I1032
asS'London: City Guide (Lonely Planet City Guide)'
p2050
(lp2051
I792
asS'Dear John'
p2052
(lp2053
I3461
asS'The Amazing Adventures of Kavalier & Clay'
p2054
(lp2055
I3985
asS'Saul Steinberg: Illuminations'
p2056
(lp2057
I2727
asS'Ghost In the Shell 2: Innocence (Novel-Hard Cover): After the Long Goodbye'
p2058
(lp2059
I2058
asS'Cuentos de Eva Luna - Bolsillo'
p2060
(lp2061
I3296
asS'Treasure Island (Great Illustrated Classics)'
p2062
(lp2063
I302
asS'To Sail Beyond the Sunset'
p2064
(lp2065
I354
asS'Moby Dick (Complete And Unabridged)'
p2066
(lp2067
I2403
asS'The Crossing'
p2068
(lp2069
I2931
asS'Humanity Dick: A Biography of Richard Martin, M. P., 1754-1834'
p2070
(lp2071
I1774
asS"Mrs. Sharp's Traditions: Reviving Victorian Family Celebrations of Comfort & Joy"
p2072
(lp2073
I3510
asS'In the Country of Last Things'
p2074
(lp2075
I455
asS'The Worm Ouroboros'
p2076
(lp2077
I2909
asS"The Ultimate Hitchhiker's Guide: Five Complete Novels and One Story (Hitchhiker's Guide to the Galaxy, #1-5)"
p2078
(lp2079
I12
asS'Critical Mass'
p2080
(lp2081
I2426
asS'1000 Families'
p2082
(lp2083
I582
asS'Behind a Mask: The Unknown Thrillers of Louisa May Alcott'
p2084
(lp2085
I2989
asS'Plays 1: Medea/The Phoenician Women/Bacchae'
p2086
(lp2087
I1480
asS'E. M. Forster: A Life'
p2088
(lp2089
I3104
asS"The Passion of Ayn Rand's Critics: The Case Against the Brandens"
p2090
(lp2091
I1977
asS"Norman Hall's Corrections Officer Exam Preparation Book"
p2092
(lp2093
I3813
asS'The Life Of Dashiell Hammett'
p2094
(lp2095
I3916
asS'Life After God'
p2096
(lp2097
I3383
asS'Lonely Planet Londres'
p2098
(lp2099
I796
asS'Cities of Salt'
p2100
(lp2101
I2722
asS'Slow Learner: Early Stories'
p2102
(lp2103
I416
asS'The Semi-Complete Guide to Sort of Being a Gentleman'
p2104
(lp2105
I1208
asS"Programming Ruby: The Pragmatic Programmers' Guide"
p2106
(lp2107
I515
asS'The Book of Probes'
p2108
(lp2109
I693
asS'Swiss Federal Design Grants 2006'
p2110
(lp2111
I719
asS'Message in a Bottle'
p2112
(lp2113
I3471
asS'The Five Love Languages of Teenagers'
p2114
(lp2115
I954
asS'Endymion'
p2116
(lp2117
I3968
asS'The Eyes of Heisenberg'
p2118
(lp2119
I2015
asS'The Leadership Challenge'
p2120
(lp2121
I1246
asS'Beyond the Red Notebook'
p2122
(lp2123
I473
asS"The Oresteia: Agamemnon, Choephoroe & Eumenides (Everyman's Library, No. 260)"
p2124
(lp2125
I1530
asS'Moby-Dick'
p2126
(lp2127
I2387
asS'The Bostonians'
p2128
(lp2129
I2686
asS"Corelli's Mandolin - Unabridged"
p2130
(lp2131
I3393
asS'How to Cook: And Everything Else You Need to Know in the Kitchen'
p2132
(lp2133
I2611
asS'The Poetical Works of Christopher Smart: Volume VI: A Poetical Translation of the Fables of Phaedrus'
p2134
(lp2135
I3163
asS'Personal Finance For Dummies'
p2136
(lp2137
I3603
asS'Eclogues and Georgics'
p2138
(lp2139
I1404
asS'A Brief History of Time'
p2140
(lp2141
I3869
asS'We Tell Ourselves Stories in Order to Live: Collected Nonfiction'
p2142
(lp2143
I426
asS"God's Grace"
p2144
(lp2145
I3069
asS'Comedy Quotes from the Movies: Over 4,000 Bits of Humorous Dialogue from All Film Genres, Topically Arranged and Indexed'
p2146
(lp2147
I2357
asS'Monkey Business: Are Yor Controlling Events or Are Events Controlling You?'
p2148
(lp2149
I1168
asS'Thai Massage: A Traditional Medical Technique'
p2150
(lp2151
I813
asS'Harry Potter and the Half-Blood Prince (Harry Potter, #6)'
p2152
(lp2153
I1
asS'Grand Theft Auto: Vice City Official Strategy Guide for PC'
p2154
(lp2155
I609
asS'Wild Wives'
p2156
(lp2157
I221
asS'Houses of God: Religious Architecture for a New Millennium'
p2158
(lp2159
I3998
asS'The Norton Shakespeare'
p2160
(lp2161
I1416
asS'A Severed Wasp'
p2162
(lp2163
I2816
asS'Burning Bright'
p2164
(lp2165
I2871
asS'Going After Cacciato'
p2166
(lp2167
I3446
asS"Zadie Smith's White Teeth: A Reader's Guide"
p2168
(lp2169
I3712
asS'The Taste of Home Cookbook'
p2170
(lp2171
I3885
asS'Antigone (Translations from Greek Drama)'
p2172
(lp2173
I1541
asS'The Death of Ivan Ilych And Other Stories'
p2174
(lp2175
I655
asS'James Bond and Moonraker'
p2176
(lp2177
I3756
asS'Consciousness Explained'
p2178
(lp2179
I2069
asS'Gap Creek: A Novel'
p2180
(lp2181
I1077
asS'No Price Too High: A Pentecostal Preacher Becomes Catholic - The Inspirational Story of Alex Jones as Told to Diane Hanson'
p2182
(lp2183
I848
asS'Americans in Paris: Great Short Stories of the City of Light'
p2184
(lp2185
I3910
asS'A Conflict Of Visions: Ideological Origins of Political Struggles'
p2186
(lp2187
I3047
asS'Bakkhai'
p2188
(lp2189
I1479
asS'Guts: The True Stories behind Hatchet and the Brian Books'
p2190
(lp2191
I53
asS'Euripides: Ten Plays'
p2192
(lp2193
I1464
asS"The Real Estate Investor's Tax Guide"
p2194
(lp2195
I997
asS'The Invention of Dionysus'
p2196
(lp2197
I2825
asS'A Short History of Nearly Everything'
p2198
(lp2199
I21
asS"The Official Crazy Bones Collector's Guide"
p2200
(lp2201
I2376
asS"Trading with the Enemy: Seduction and Betrayal on Jim Cramer's Wall Street"
p2202
(lp2203
I910
asS'The Best 50 Martinis'
p2204
(lp2205
I2429
asS'The Works Of H. G. Wells:  Complete & Unabridged'
p2206
(lp2207
I2511
asS'Augustine of Hippo: A Biography'
p2208
(lp2209
I1686
asS"The Science of Sherlock Holmes: From Baskerville Hall to the Valley of Fear, the Real Forensics Behind the Great Detective's Greatest Cases"
p2210
(lp2211
I3584
asS'Latin (Vergil)'
p2212
(lp2213
I1398
asS'The Sun Also Rises'
p2214
(lp2215
I3874
asS'Along the Juniata: Thomas Cole and the Dissemination of American Landscape Imagery'
p2216
(lp2217
I1604
asS'The Poet of Tolstoy Park'
p2218
(lp2219
I660
asS'Guitar Chord Bible (Music Bibles)'
p2220
(lp2221
I724
asS'Boogaloo on 2nd Avenue'
p2222
(lp2223
I3343
asS'Bishop Lists: Formation of Apostolic Succession of Bishops in Ecclesiastical Crises'
p2224
(lp2225
I3221
asS'The Annotated Huckleberry Finn'
p2226
(lp2227
I2962
asS'Earth Odyssey: Around the World in Search of Our Environmental Future'
p2228
(lp2229
I1390
asS'The Rough Guide to London Restaurants 2004 6'
p2230
(lp2231
I788
asS'Fields of Gold'
p2232
(lp2233
I855
asS'One Body, One Life: Six Weeks to the New You'
p2234
(lp2235
I1126
asS'Natural Disasters [with Online Learning Center Access Code]'
p2236
(lp2237
I689
asS'The Next 100 Years: Predictions to the Nations and the Church of the 21st Century'
p2238
(lp2239
I318
asS'The No-Salt Cookbook: Reduce or Eliminate Salt Without Sacrificing Flavor'
p2240
(lp2241
I2721
asS"The Dolls' House"
p2242
(lp2243
I3799
asS'Your Call Is Important to Us: The Truth About Bullshit'
p2244
(lp2245
I390
asS'The Invisible Child'
p2246
(lp2247
I2851
asS'Introducing Mind and Brain (Introducing...)'
p2248
(lp2249
I3283
asS'Emergence: Labeled Autistic'
p2250
(lp2251
I2299
asS'Liars Poker Rising Through The Wreckage/International Edition'
p2252
(lp2253
I1176
asS'Blood From Blood (John Rain, #2)'
p2254
(lp2255
I1220
asS'Simply Beautiful Beaded Jewelry'
p2256
(lp2257
I90
asS'The New York Trilogy: City of Glass / Ghosts / The Locked Room'
p2258
(lp2259
I433
asS'Fire Sea (The Death Gate Cycle, #3)'
p2260
(lp2261
I1307
asS'E.M. Forster'
p2262
(lp2263
I3100
asS'Blessed Is He Who Has Brought Adam from Sheol'
p2264
(lp2265
I3223
asS'The Rescue'
p2266
(lp2267
I3462
asS'Runaway Bride'
p2268
(lp2269
I3130
asS'The Notebooks of Lazarus Long'
p2270
(lp2271
I352
asS'On Beauty'
p2272
(lp2273
I3679
asS"The Kid's Cookbook: A Great Book for Kids Who Love to Cook"
p2274
(lp2275
I3890
asS'Avalanche: Heretical Reflections on the Dark and the Light'
p2276
(lp2277
I1928
asS"Sex: A User's Guide"
p2278
(lp2279
I3625
asS'Las razones del amor/ The Reasons Of Love: El Sentido de Nuestras Vidas / The Sense of Our Lives'
p2280
(lp2281
I3500
asS'How to Build a Real Estate Empire: Wisdom from the Best in the Business'
p2282
(lp2283
I863
asS'The Angle of Repose: Four American Photographers in Egypt'
p2284
(lp2285
I3360
asS"A People's History of the United States: The Civil War to the Present"
p2286
(lp2287
I2770
asS'Changelings (The Twins of Petaybee, #1)'
p2288
(lp2289
I60
asS'The Complete Short Stories of Mark Twain'
p2290
(lp2291
I2968
asS'Simply Italian: 100 Easy-To-Make, Zesty, Satisfying Favorites'
p2292
(lp2293
I1179
asS'Ensayo sobre la lucidez'
p2294
(lp2295
I2539
asS'Think and Grow Rich!'
p2296
(lp2297
I1006
asS'Prometheus Bound and Other Plays'
p2298
(lp2299
I1523
asS"Solomon's Song (The Potato Factory, #3)"
p2300
(lp2301
I2343
asS'Sophocles I: Oedipus the King, Oedipus at Colonus, Antigone (Complete Greek Tragedies)'
p2302
(lp2303
I1545
asS'Little Women (Little Women, #1)'
p2304
(lp2305
I1934
asS'The 100 Most Notable Cornellians'
p2306
(lp2307
I2479
asS'First Love and Other Sorrows: Stories'
p2308
(lp2309
I3542
asS'A Tramp Abroad'
p2310
(lp2311
I2974
asS'America: A Concise History, Volume 2: Since 1865'
p2312
(lp2313
I699
asS'The Plot Against America'
p2314
(lp2315
I703
asS'Sir Gawain and the Green Knight (Myths & Legends Audio)'
p2316
(lp2317
I3052
asS'Charles Willeford Omnibus: Pick Up/Burnt Orange Heresy/Cockfighter'
p2318
(lp2319
I217
asS'The Fellowship of the Ring (The Lord of the Rings, #1)'
p2320
(lp2321
I34
asS'Thucydides, Book 6 Commentary'
p2322
(lp2323
I1461
asS'Investing in REITs: Real Estate Investment Trusts'
p2324
(lp2325
I1283
asS'Economic Literacy: Basic Economics with an Attitude'
p2326
(lp2327
I3027
asS'Sherlock Holmes: A Baker Street Dozen'
p2328
(lp2329
I3585
asS'Building Literacy with Love: A Guide for Teachers and Caregivers of Children Birth Through Age 5'
p2330
(lp2331
I948
asS'In The Blink Of An Eye: How Vision Sparked The Big Bang Of Evolution'
p2332
(lp2333
I2149
asS'Augustine: Ancient Thought Baptized'
p2334
(lp2335
I1708
asS'Unnatural Causes (Adam Dalgliesh #3)'
p2336
(lp2337
I3827
asS'Collected Stories'
p2338
(lp2339
I759
asS'London'
p2340
(lp2341
I794
asS'The City of God against the Pagans (Texts in the History of Political Thought)'
p2342
(lp2343
I1690
asS'The Fixer'
p2344
(lp2345
I3066
asS'Memoirs of a Geisha'
p2346
(lp2347
I929
asS'Bread Givers'
p2348
(lp2349
I3637
asS'The Power and the Glory'
p2350
(lp2351
I3690
asS'Nights in Rodanthe'
p2352
(lp2353
I3469
asS'The Dune Encyclopedia'
p2354
(lp2355
I116
asS'Memoirs of a Midget'
p2356
(lp2357
I1712
asS'Natural Health, Natural Medicine'
p2358
(lp2359
I3065
asS'A Winter Haunting'
p2360
(lp2361
I3978
asS'Harriet The Spy'
p2362
(lp2363
I3741
asS'Harry Potter Y La Piedra Filosofal (Harry Potter, #1)'
p2364
(lp2365
I3357
asS'The Headless Cupid (Stanley Family, #1)'
p2366
(lp2367
I2316
asS'The Harry Potter Collection (Harry Potter, #1-6)'
p2368
(lp2369
I7
asS'Gates of Fire'
p2370
(lp2371
I1313
asS'The Compact Rock Guitar Chord Reference'
p2372
(lp2373
I741
asS'El Siglo del Espiritu Santo'
p2374
(lp2375
I317
asS'Juiced Official Strategy Guide'
p2376
(lp2377
I1302
asS'Medea'
p2378
(lp2379
I1475
asS'The Salmon of Doubt (Dirk Gently, #3)'
p2380
(lp2381
I359
asS'Tom Wolfes Treasury of Patterns: 90 Patterns for Dog Carvers'
p2382
(lp2383
I2670
asS'The Canterbury Tales: Volume III'
p2384
(lp2385
I2704
asS'Daily Inspiration for the Purpose Driven Life: Scriptures and Reflections from the 40 Days of Purpose'
p2386
(lp2387
I1089
asS'Ghosts (The New York Trilogy, #2)'
p2388
(lp2389
I434
asS'The Human Rights Committee and the Right of Individual Communication: Law and Practice'
p2390
(lp2391
I2245
asS'Great Discoveries & Amazing Adventures: The Stories of Hidden Marvels and Lost Treasures'
p2392
(lp2393
I3991
asS'Interface'
p2394
(lp2395
I828
asS'The Earliest Life of Christ Ever Complied from the Four Gospels: Being the Diatessaron of Tatian (Gorgias Reprint)'
p2396
(lp2397
I3203
asS'New Technology in Language Learning: Proceedings of the 1989 Man and the Media Symposium'
p2398
(lp2399
I2757
asS'Veronika Decides to Die'
p2400
(lp2401
I1431
asS'Amazing Rain'
p2402
(lp2403
I1831
asS'First Love: Jean and Johnny / Fifteen / The Luckiest Girl'
p2404
(lp2405
I3548
asS'CSS Mastery: Advanced Web Standards Solutions'
p2406
(lp2407
I563
asS"Einstein's Heroes: Imagining the World Through the Language of Mathematics"
p2408
(lp2409
I1777
asS'Thai Massage Manual: Natural Therapy for Flexibility, Relaxation, and Energy Balance'
p2410
(lp2411
I805
asS'The Autobiography of Mark Twain'
p2412
(lp2413
I2971
asS"Michael Cunningham's The Hours: A Reader's Guide"
p2414
(lp2415
I2132
asS'Pure and Simple: The Extraordinary Teachings of a Thai Buddhist Laywoman'
p2416
(lp2417
I775
asS'Gap Creek'
p2418
(lp2419
I1075
asS'The Handbook Of Sailing'
p2420
(lp2421
I680
asS"Maverick's: The Story of Big-Wave Surfing"
p2422
(lp2423
I2198
asS'J.K. Rowling'
p2424
(lp2425
I2001
asS'The Men Who Stare at Goats'
p2426
(lp2427
I1824
asS'A Brief History of the End of the World: Apocalyptic Beliefs from Revelation to UFO Cults'
p2428
(lp2429
I3457
asS'Lincoln on Leadership: Executive Strategies for Tough Times by Donald T. Phillips, Phillips'
p2430
(lp2431
I1252
asS'Richest Man in Babylon - The Success Secrets of the Ancients'
p2432
(lp2433
I1053
asS'JPod'
p2434
(lp2435
I3380
asS"J. K. Lasser's Pick Stocks Like Warren Buffett"
p2436
(lp2437
I1136
asS'Colapso (Historias)'
p2438
(lp2439
I1995
asS'The Baby Name Wizard: A Magical Method for Finding the Perfect Name for Your Baby'
p2440
(lp2441
I2518
asS'The Burnt Orange Heresy (Vintage Crime/Black Lizard)'
p2442
(lp2443
I230
asS'Illuminations: Visions for Change, Growth, and Self-Acceptance'
p2444
(lp2445
I2734
asS'Oedipus Rex (Greek and Latin Classics)'
p2446
(lp2447
I1558
asS'Fire in the Gates'
p2448
(lp2449
I1314
asS'Emotional Design: Why We Love (or Hate) Everyday Things'
p2450
(lp2451
I841
asS"Real Estate Riches: How to Become Rich Using Your Banker's Money"
p2452
(lp2453
I1024
asS'Blink.'
p2454
(lp2455
I2146
asS'Dune (Dune Chronicles, #1)'
p2456
(lp2457
I104
asS'El Cuaderno De Noah'
p2458
(lp2459
I3475
asS'Getting Things Done When You Are Not in Charge'
p2460
(lp2461
I1634
asS'The Archaeology of Rock-Art'
p2462
(lp2463
I593
asS'Conversations with Lincoln'
p2464
(lp2465
I1762
asS'Iliad'
p2466
(lp2467
I1373
asS'Guitar Chord Encyclopedia: 36 Chords in Each Key'
p2468
(lp2469
I720
asS'Freakonomics: A Rogue Economist Explores the Hidden Side of Everything'
p2470
(lp2471
I1205
asS'Listen for It: A Task-Based Listening Course'
p2472
(lp2473
I3122
asS'Hecuba, Trojan Women, Andromache'
p2474
(lp2475
I3255
asS'The History of Sexuality, Volume 1: The Will to Knowledge'
p2476
(lp2477
I1879
asS'Hard Freeze (Joe Kurtz, #2)'
p2478
(lp2479
I3976
asS'Understanding Sun Tzu on the Art of War'
p2480
(lp2481
I2592
asS'The Enchanted April'
p2482
(lp2483
I3073
asS'A Treasury of Kahlil Gibran'
p2484
(lp2485
I284
asS'Dave Thomas (Overcoming Adversity)'
p2486
(lp2487
I2006
asS'Holy Cow! Not Another Mad Snappy Answers to Stupid Questions'
p2488
(lp2489
I3864
asS'Living with Death and Dying'
p2490
(lp2491
I2234
asS"Aisthetische Reduktionen: Analysen Zu Patrick Suskinds 'Der Kontraba', 'Das Parfum' Und 'Rossini'"
p2492
(lp2493
I2903
asS'Jack Kerouac: The Road Is Life'
p2494
(lp2495
I2554
asS"Body Brokers: Inside America's Underground Trade in Human Remains"
p2496
(lp2497
I1115
asS'Shadows on the Wind'
p2498
(lp2499
I1237
asS"Flaubert's Parrot"
p2500
(lp2501
I2176
asS'Weight Watchers New Complete Cookbook'
p2502
(lp2503
I3889
asS'The Trojan Women and Other Plays'
p2504
(lp2505
I1483
asS'Sandpaper Sisters'
p2506
(lp2507
I1244
asS'Salt: A World History'
p2508
(lp2509
I2715
asS"The Devil's Broker: Seeking Gold, God, and Glory in Fourteenth- Century Italy"
p2510
(lp2511
I1116
asS'The Unfortunate Tobacconist & Other Mysteries (Sherlock Holmes 1-6)'
p2512
(lp2513
I3599
asS'Angeles & Demonios'
p2514
(lp2515
I966
asS'Charles Dickens'
p2516
(lp2517
I1988
asS'Cameron Townsend: Good News in Every Language (Christian Heroes: Then & Now)'
p2518
(lp2519
I1776
asS'Grand Illusion: The Untold Story of Rudy Giuliani and 9/11'
p2520
(lp2521
I1257
asS"Why Zebras Don't Get Ulcers"
p2522
(lp2523
I327
asS'The Bon Appetit Cookbook'
p2524
(lp2525
I3886
asS'Tragedy and Civilization: An Interpretation of Sophocles'
p2526
(lp2527
I1749
asS'Sun Tzu For Success: How to Use the Art of War to Master Challenges and Accomplish the Important Goals in Your Life'
p2528
(lp2529
I2594
asS'The People of Sparks (Book of Ember, #2)'
p2530
(lp2531
I3467
asS'The Highland Scots of North Carolina, 1732-1776'
p2532
(lp2533
I1070
asS'The Confessions (Works of Saint Augustine 1)'
p2534
(lp2535
I1681
asS'Love Your Handwriting (Creating Keepsakes)'
p2536
(lp2537
I88
asS"The Insider's Guide to 52 Homes in 52 Weeks: Acquire Your Real Estate Fortune Today"
p2538
(lp2539
I1025
asS'Powderguide: Managing Avalanche Risk'
p2540
(lp2541
I1933
asS'Immigrant Acts: On Asian American Cultural Politics'
p2542
(lp2543
I2781
asS"The Collapse of the Common Good: How America's Lawsuit Culture Undermines Our Freedom"
p2544
(lp2545
I481
asS'Control and Subversion: Gender Relations  in Tajikistan'
p2546
(lp2547
I1017
asS'The Girl with a Pearl Earring'
p2548
(lp2549
I2867
asS'Mid-Course Correction: Toward a Sustainable Enterprise: The Interface Model'
p2550
(lp2551
I3807
asS'The Last Life'
p2552
(lp2553
I3649
asS"The Ultimate Time Machine: A Remote Viewer's Perception of Time & Predictions for the New Millennium"
p2554
(lp2555
I2499
asS'Little Women (SparkNotes Literature Guide)'
p2556
(lp2557
I1948
asS'Dragonball'
p2558
(lp2559
I3934
asS'The Control of Nature'
p2560
(lp2561
I77
asS'The History'
p2562
(lp2563
I1369
asS'Telling Tales on Caesar: Roman Stories from Phaedrus'
p2564
(lp2565
I1340
asS'Tooth Decay & Cavities'
p2566
(lp2567
I2858
asS'Blink: The Power of Thinking Without Thinking'
p2568
(lp2569
I2140
asS'The Untouchables: Subordination, Poverty and the State in Modern India (Contemporary South Asia, #4)'
p2570
(lp2571
I167
asS"A Midsummer Night's Dream"
p2572
(lp2573
I1622
asS'Portrait of the Blue Lady: The Character of Melancholy'
p2574
(lp2575
I267
asS'Vice (V, #8)'
p2576
(lp2577
I619
asS'The Life of Geoffrey Chaucer: A Critical Biography'
p2578
(lp2579
I2708
asS'Wrinkles in Time: Imprint of Creation'
p2580
(lp2581
I186
asS'The Last Gentleman (Modern Library)'
p2582
(lp2583
I558
asS'Creating Database-Backed Library Web Pages: Using Open Source Tools'
p2584
(lp2585
I1862
asS'Trump: Think Like a Billionaire: Everything You Need to Know About Success, Real Estate, and Life'
p2586
(lp2587
I1031
asS'Inventing the Flat Earth: Columbus and Modern Historians'
p2588
(lp2589
I1907
asS'Phaedrus (Classical Greek Texts)'
p2590
(lp2591
I3175
asS'Doing Things with Things: The Design and Use of Everyday Objects'
p2592
(lp2593
I843
asS"Holy Cows and Hog Heaven: The Food Buyer's Guide to Farm Friendly Food"
p2594
(lp2595
I3859
asS'The Essential Euripides'
p2596
(lp2597
I1501
asS'Amores & Metamorphoses: Selections'
p2598
(lp2599
I1719
asS'Sherlock Holmes and the Kiss of Death'
p2600
(lp2601
I3596
asS'Night of the Living Dead'
p2602
(lp2603
I1623
asS'Myths of the Underworld Journey: Plato, Aristophanes, and the "Orphic" Gold Tablets'
p2604
(lp2605
I2026
asS"Cliffs Notes on Cervantes' Don Quixote"
p2606
(lp2607
I3842
asS'The High Window'
p2608
(lp2609
I2049
asS'The Machine in Ward Eleven'
p2610
(lp2611
I219
asS'Everyday Pasta'
p2612
(lp2613
I1193
asS'On Classical Economics'
p2614
(lp2615
I3039
asS'Preliterate Period (Greek Literature, Volume 1)'
p2616
(lp2617
I1792
asS'Aristophanes and His Theatre of the Absurd'
p2618
(lp2619
I2043
asS'Stephen Hawking: A Life in Science'
p2620
(lp2621
I2110
asS"The Clan of the Cave Bear, Part 2 of 2 (Earth's Children, #1)"
p2622
(lp2623
I1298
asS'Stuffed Owl'
p2624
(lp2625
I2382
asS'Harry Potter y la piedra filosofal (Harry Potter, #1)'
p2626
(lp2627
I3356
asS'History of the Peloponnesian War: Bk. 5-6'
p2628
(lp2629
I1444
asS'Masterwork Studies Series: 100 Years of Solitude'
p2630
(lp2631
I323
asS'From a Sabine Jar: Reading Horace, Odes 1.9'
p2632
(lp2633
I2438
asS'Strauss: Arabella (Eno 30)'
p2634
(lp2635
I1813
asS'A History of the United States and Its People'
p2636
(lp2637
I2769
asS'Simply Italian: Easy Recipes That Are Quick to Prepare, Low in Calories, and Kind to Your Budget'
p2638
(lp2639
I1181
asS"Love: A User's Guide"
p2640
(lp2641
I3623
asS'ABCs of Avalanche Safety'
p2642
(lp2643
I1926
asS"Emily's Quest"
p2644
(lp2645
I3565
asS'Music with the Brain in Mind'
p2646
(lp2647
I3286
asS'Guidebook to Zen and the Art of Motorcycle Maintenance'
p2648
(lp2649
I642
asS'Amazing Rain Forest (Discovering the Rain Forest)'
p2650
(lp2651
I1828
asS'First Comes Love: All About the Birds and the Bees--and Alligators, Possums, and People, Too'
p2652
(lp2653
I3549
asS'History of the Peloponnesian War: Bk. 1-2'
p2654
(lp2655
I1440
asS'The Dharma Bums'
p2656
(lp2657
I3769
asS"Twain's Huckleberry Finn (Cliffs Notes)"
p2658
(lp2659
I2961
asS'No Excuses: Antonio Sabato Jr. Workout For Life'
p2660
(lp2661
I1661
asS'The Tenth Man'
p2662
(lp2663
I3707
asS'Fairy Doll'
p2664
(lp2665
I3804
asS'Job: A Comedy of Justice'
p2666
(lp2667
I355
asS'Bulletproofing NetWare: Solving the 175 Most Common Problems Before They Happen'
p2668
(lp2669
I2481
asS'Tono-Bungay'
p2670
(lp2671
I2508
asS'From Beirut to Jerusalem'
p2672
(lp2673
I3559
asS'Buffett: The Making of an American Capitalist'
p2674
(lp2675
I1155
asS'Classic Chicago Blues Harp #2'
p2676
(lp2677
I2925
asS'Don Quixote'
p2678
(lp2679
I3835
asS'The Bookclub-in-a-Box Discussion Guide to the book: The Curious Incident of the Dog in the Night-Time'
p2680
(lp2681
I3440
asS'Birds/Lysistrata/Women at the Thesmophoria (Loeb Classical Library 179)'
p2682
(lp2683
I1564
asS'A Book of Common Prayer'
p2684
(lp2685
I422
asS'History of the Progressive Party, 1912-1916'
p2686
(lp2687
I1807
asS'Hebrew Illuminations'
p2688
(lp2689
I2729
asS'Medea and Other Plays'
p2690
(lp2691
I1473
asS"Pojo's Unofficial Absolute Dragonball Z: Gt Episode Reviews"
p2692
(lp2693
I3925
asS'Fables from Phaedrus'
p2694
(lp2695
I1343
asS'On Genesis/A Refutation of the Manichees/The Unfinished Literal Meaning of Genesis (Works of St Augustine 1)'
p2696
(lp2697
I1707
asS'The Notebook'
p2698
(lp2699
I3472
asS'The CSS Anthology'
p2700
(lp2701
I568
asS'Lord of the Flies (SparkNotes Literature Guides)'
p2702
(lp2703
I528
asS'Simply Bruschetta: Garlic Toast the Italian Way'
p2704
(lp2705
I1180
asS"The Millionaire Next Door: The Surprising Secrets of America's Wealthy"
p2706
(lp2707
I1003
asS'Time Enough for Love'
p2708
(lp2709
I353
asS"Cliffs Notes on Melville's Moby Dick"
p2710
(lp2711
I2385
asS'The Prophet'
p2712
(lp2713
I286
asS'The Broker'
p2714
(lp2715
I1110
asS'Lysis/Symposium/Gorgias (Loeb Classical Library, #166)'
p2716
(lp2717
I1356
asS'The Pizza Monster'
p2718
(lp2719
I3519
asS"Brian's Hunt (Brian's Saga, #5)"
p2720
(lp2721
I2913
asS'The White Album'
p2722
(lp2723
I421
asS"The River (Brian's Saga, #2)"
p2724
(lp2725
I2915
asS'Euripides: Hippolytus'
p2726
(lp2727
I1502
asS'Motorcycle Basics Techbook'
p2728
(lp2729
I643
asS'Freddy and the Men from Mars'
p2730
(lp2731
I1278
asS'The Zahir'
p2732
(lp2733
I1427
asS"Observing the User Experience: A Practitioner's Guide to User Research"
p2734
(lp2735
I1868
asS'Golgotha (Cryptonomicon, #3)'
p2736
(lp2737
I820
asS'The Known World'
p2738
(lp2739
I67
asS'Clouds'
p2740
(lp2741
I1569
asS'So You Think You Know Jane Austen?'
p2742
(lp2743
I2158
asS'In the Lake of the Woods'
p2744
(lp2745
I3447
asS'The Coming Economic Collapse: How You Can Thrive When Oil Costs $200 a Barrel'
p2746
(lp2747
I476
asS'Designed to Sell: Turn-Of-The-Century American Posters in the Virginia Museum of Fine Arts'
p2748
(lp2749
I2798
asS"Cliff's Notes on Austen's Pride and Prejudice"
p2750
(lp2751
I1890
asS'Blink-182: Tales from Beneath Your Mom'
p2752
(lp2753
I2144
asS'El Capitan: Historic Feats and Radical Routes'
p2754
(lp2755
I2196
asS'Three Plays by Aristophanes: Lysistrata/Women at the Thesmophoria/Assemblywomen'
p2756
(lp2757
I1561
asS'The Lion and the Jewel'
p2758
(lp2759
I2570
asS'Make the Most of Your Windows PC: Easy to Follow Step-By-Step Directions'
p2760
(lp2761
I2469
asS'Robinson Crusoe (Scholastic Junior Classics)'
p2762
(lp2763
I2939
asS"The Hitchhiker's Guide to the Galaxy (Hitchhiker's Guide to the Galaxy, #1)"
p2764
(lp2765
I11
asS'The Patriarch: The Rise and Fall of the Bingham Dynasty'
p2766
(lp2767
I121
asS'Science and Sensibility: The Elegant Logic of the Universe'
p2768
(lp2769
I772
asS"The Hitchhiker's Guide to the Galaxy: The Primary Phase (Hitchhiker's Guide: Radio Play, #1)"
p2770
(lp2771
I2323
asS'Beth Makes a Friend (Portraits of Little Women)'
p2772
(lp2773
I1951
asS'Rudy Giuliani: Emperor of the City'
p2774
(lp2775
I1261
asS'Saint Augustine'
p2776
(lp2777
I1702
asS'Eleanor Rigby'
p2778
(lp2779
I3377
asS'Sex, Drugs, Rock and Roll'
p2780
(lp2781
I602
asS'First Love and the Diary of a Superfluous Man'
p2782
(lp2783
I3534
asS'A Prayer for the City'
p2784
(lp2785
I2273
asS'How to Cook Everything: Holiday Cooking'
p2786
(lp2787
I2606
asS'Enoch and Daniel: A Form Critical and Sociological Study of the Historical Apocalypses'
p2788
(lp2789
I2197
asS'The Woodsman and His Hatchet: Eighty Years on Back Country Survival'
p2790
(lp2791
I56
asS'The Portable John Adams'
p2792
(lp2793
I2211
asS'Long Way Round: Chasing Shadows Across the World'
p2794
(lp2795
I207
asS"CliffsNotes on St. Augustine's Confessions"
p2796
(lp2797
I1697
asS'The Art of Hunger: Essays, Prefaces, Interviews, The Red Notebook'
p2798
(lp2799
I470
asS'The Dictionary of Corporate Bullshit: An A to Z Lexicon of Empty, Enraging, and Just Plain Stupid Office Talk'
p2800
(lp2801
I3491
asS'Emily of New Moon (Emily, #1)'
p2802
(lp2803
I3562
asS'The Tale of the Unknown Island'
p2804
(lp2805
I2529
asS'The Gettysburg Address'
p2806
(lp2807
I397
asS'Aristophanes: Peace'
p2808
(lp2809
I2037
asS'The Modern Gentleman: A Guide to Essential Manners, Savvy and Vice'
p2810
(lp2811
I555
asS'The Story of Salt'
p2812
(lp2813
I3340
asS'Euthyphro/Apology/Crito/Meno/Gorgias/Menexenus (Dialogues, Vol 1)'
p2814
(lp2815
I3207
asS"The Ethnographer's Eye: Ways of Seeing in Anthropology"
p2816
(lp2817
I2791
asS"The Phantom Tollbooth: A Children's Play in Two Acts"
p2818
(lp2819
I382
asS'The Complete Adventures and Memoirs of Sherlock Holmes'
p2820
(lp2821
I3597
asS'Advanced Placement Economics: Microeconomics: Student Activities'
p2822
(lp2823
I3031
asS"The Refining Fire: Herakles and Other Heroes in T.S. Eliot's Works"
p2824
(lp2825
I1780
asS"Tim O'Brien"
p2826
(lp2827
I3450
asS'Northern Lights'
p2828
(lp2829
I3444
asS'The Scripture of the Golden Eternity'
p2830
(lp2831
I3775
asS'Theatre: A Way of Seeing (with InfoTrac)'
p2832
(lp2833
I2788
asS'Timbuktu'
p2834
(lp2835
I449
asS'Once Upon a Cool Motorcycle Dude'
p2836
(lp2837
I639
asS'Enchanted April: Acting Edition'
p2838
(lp2839
I3075
asS'La Caseta Magica (the Phantom Tollbooth)'
p2840
(lp2841
I381
asS'Rooms with a View: The Stages of Community in the Modern Theater'
p2842
(lp2843
I3098
asS'In Cold Blood'
p2844
(lp2845
I2280
asS'The Jesus Incident (The Pandora Sequence, #1)'
p2846
(lp2847
I2013
asS'The Wedding (The Notebook, #2)'
p2848
(lp2849
I3466
asS'Learn to Program'
p2850
(lp2851
I520
asS'Hamlet'
p2852
(lp2853
I1420
asS'A Black Way of Seeing: From Liberty to Freedom'
p2854
(lp2855
I2786
asS'Innovation and the General Manager'
p2856
(lp2857
I2617
asS'Le Pont sur la Drina'
p2858
(lp2859
I3147
asS"Gravity's Rainbow"
p2860
(lp2861
I412
asS"The Player's Handbook: The Ultimate Guide on Dating and Relationships"
p2862
(lp2863
I99
asS'Storage Network Performance Analysis'
p2864
(lp2865
I545
asS'Snow Flower and the Secret Fan'
p2866
(lp2867
I1103
asS'Pompeii: Lost and Found'
p2868
(lp2869
I883
asS'Metamorphoses'
p2870
(lp2871
I1714
asS'Preventing Medication Errors and Improving Drug Therapy Outcomes'
p2872
(lp2873
I1764
asS'Novels, 1896-1899'
p2874
(lp2875
I2687
asS'Max and Me and the Time Machine'
p2876
(lp2877
I2496
asS'Kentucky Heat'
p2878
(lp2879
I3849
asS'Euripides: Medea'
p2880
(lp2881
I1504
asS'Play It as It Lays'
p2882
(lp2883
I428
asS'Web Production for Writers and Journalists (Media Skills)'
p2884
(lp2885
I1860
asS'Healing Feelings...from Your Heart'
p2886
(lp2887
I2286
asS'Passionate Minds'
p2888
(lp2889
I2804
asS'The Complete Poetical Works: Volume VI'
p2890
(lp2891
I2516
asS'First Love, Second Chance'
p2892
(lp2893
I3545
asS'Perfume: The Story of a Murderer'
p2894
(lp2895
I343
asS'Fountainhead (Cliffs Notes)'
p2896
(lp2897
I2117
asS'The Portable Jack Kerouac'
p2898
(lp2899
I3771
asS'Language and Desire in Seneca\'s "Phaedra"'
p2900
(lp2901
I1763
asS'The Theory of Everything: The Origin and Fate of the Universe'
p2902
(lp2903
I2111
asS'Acharnians'
p2904
(lp2905
I1568
asS'The Truth Behind the Da Vinci Code: A Challenging Response to the Bestselling Novel'
p2906
(lp2907
I971
asS'The Afghan Campaign'
p2908
(lp2909
I1315
asS'Her Pilgrim Soul: And Other Stories'
p2910
(lp2911
I3276
asS"Ovid's Metamorphoses, Books 1-5"
p2912
(lp2913
I1720
asS"Phaedrus (World's Classics)"
p2914
(lp2915
I1327
asS'Truman'
p2916
(lp2917
I2279
asS'Fifty Ways to Cook Most Everything: 2500 Creative Solutions to the Daily Dilemma of What to Cook'
p2918
(lp2919
I2607
asS'Men Are from Mars, Women Are from Venus'
p2920
(lp2921
I1274
asS"Giada's Family Dinners"
p2922
(lp2923
I1191
asS'Primal Heat (Includes: Breeds, #10; Devlin Dynasty, #1; Moon Lust, #1)'
p2924
(lp2925
I3852
asS'American Government: Continuity And Change'
p2926
(lp2927
I1665
asS"Developing Tactics for Listening Teacher's Book"
p2928
(lp2929
I3126
asS'Destroy, She Said'
p2930
(lp2931
I281
asS"Euripides' Bacchae, Focus Classical Library (Focus Classical Library)"
p2932
(lp2933
I1484
asS'Baby Signing For Dummies'
p2934
(lp2935
I2219
asS"Your Child's Growing Mind: Brain Development and Learning From Birth to Adolescence"
p2936
(lp2937
I3288
asS'Holy Cow: An Indian Adventure'
p2938
(lp2939
I3858
asS'Rising from the Plains'
p2940
(lp2941
I83
asS'War and Peace'
p2942
(lp2943
I656
asS'The October Horse: A Novel of Caesar and Cleopatra (Masters of Rome, #6)'
p2944
(lp2945
I3421
asS'The Big Oyster: History on the Half Shell'
p2946
(lp2947
I3342
asS'Memoirs of a Geisha: A Portrait of the Film'
p2948
(lp2949
I932
asS'Sentimental Education'
p2950
(lp2951
I2183
asS'Aristophanes: Clouds, Acharnians, Lysistrata: A Companion to the Penguin Translation of A.H.Sommerstein'
p2952
(lp2953
I2039
asS'Time To Be In Earnest: A Fragment Of Autobiography'
p2954
(lp2955
I3831
asS'Vice & Virtue in Everyday Life: Introductory Readings in Ethics'
p2956
(lp2957
I616
asS'Plato I: Euthyphro. Apology. Crito. Phaedo. Phaedrus. (Loeb Classical Library, #36)'
p2958
(lp2959
I1330
asS'Typographic Design: Form and Communication'
p2960
(lp2961
I2799
asS'Time and Chance'
p2962
(lp2963
I3275
asS'The Canterbury Tales (SparkNotes Literature Guides)'
p2964
(lp2965
I2703
asS'The Compleat Works of Wllm Shkspr (abridged)'
p2966
(lp2967
I1423
asS'I am Charlotte Simmons'
p2968
(lp2969
I231
asS'Little Women'
p2970
(lp2971
I1935
asS'Freakonomics: A Rogue Economist Explores the Hidden Side of Everything (Freakonomics, #1)'
p2972
(lp2973
I1202
asS'Ten Colloquies'
p2974
(lp2975
I2647
asS'Bacchae'
p2976
(lp2977
I1469
asS'All My Tomorrows (The Orphan Trains Trilogy, #2)'
p2978
(lp2979
I445
asS'The Heidi Chronicles'
p2980
(lp2981
I85
asS'The Solitary Summer'
p2982
(lp2983
I3085
asS'Innocent Blood'
p2984
(lp2985
I3834
asS'Del amor y otros demonios'
p2986
(lp2987
I764
asS'A Million Little Lies'
p2988
(lp2989
I1243
asS"Stephen Hawking's Universe: The Cosmos Explained"
p2990
(lp2991
I2099
asS'The Minds of Boys: Saving Our Sons from Falling Behind in School and Life'
p2992
(lp2993
I2740
asS"The Insider's Guide to Tax-Free Real Estate Investments: Retire Rich Using Your IRA"
p2994
(lp2995
I1027
asS'Sun Tzu Strategies for Selling: How to Use the Art of War to Build Lifelong Customer Relationships: How to Use the Art of War to Build Lifelong Customer Relationships'
p2996
(lp2997
I2589
asS"Playing the REITs Game: Asia's New Real Estate Investment Trusts"
p2998
(lp2999
I1284
asS'The Denial of Death'
p3000
(lp3001
I2761
asS'Starting an eBay Business for Dummies'
p3002
(lp3003
I137
asS"Chasing Lance: The 2005 Tour de France and Lance Armstrong's Ride of a Lifetime"
p3004
(lp3005
I2269
asS"Pindar's Homer: The Lyric Possession of An Epic Past"
p3006
(lp3007
I1797
asS'The Fall of Hyperion'
p3008
(lp3009
I3961
asS'The Journals of Ayn Rand'
p3010
(lp3011
I2113
asS"Shakespeare Set Free: Teaching Romeo & Juliet, Macbeth & Midsumr Night'"
p3012
(lp3013
I1422
asS'Invisible Engines: How Software Platforms Drive Innovation and Transform Industries'
p3014
(lp3015
I3646
asS'The Odyssey'
p3016
(lp3017
I1381
asS'Think and Grow Rich'
p3018
(lp3019
I1004
asS'The Church of Solitude'
p3020
(lp3021
I2489
asS'Antigone / Oedipus the King / Electra'
p3022
(lp3023
I1549
asS'Euripides IV: Rhesus/The Suppliant Women/Orestes/Iphigenia in Aulis'
p3024
(lp3025
I1465
asS'The Best of Twain, 8 Vols'
p3026
(lp3027
I2951
asS'Collapse'
p3028
(lp3029
I1217
asS'The Subterraneans'
p3030
(lp3031
I3774
asS'The Beloved: Reflections on the Path of the Heart'
p3032
(lp3033
I289
asS'Introducing Stephen Hawking'
p3034
(lp3035
I2098
asS'The Portrait of a Lady'
p3036
(lp3037
I264
asS"Jo's Story (Portraits of Little Women)"
p3038
(lp3039
I1944
asS'Katherine Paterson'
p3040
(lp3041
I2852
asS'Wizard: The Life and Times of Nikola Tesla: Biography of a Genius'
p3042
(lp3043
I494
asS'Active Literacy Across the Curriculum: Strategies for Reading, Writing, Speaking, and Listening'
p3044
(lp3045
I89
asS"The Hitchhiker's Guide to Lean: Lessons from the Road"
p3046
(lp3047
I15
asS'Learning to Sail: The Annapolis Sailing School Guide for Youlearning to Sail: The Annapolis Sailing School Guide for Young Sailors of All Ages Ng Sailors of All Ages'
p3048
(lp3049
I677
asS'eBay Business All-in-One Desk Reference for Dummies'
p3050
(lp3051
I140
asS'The Custom of the Country'
p3052
(lp3053
I2311
asS"Les Contes d'Eva Luna"
p3054
(lp3055
I3295
asS'Chord Workbook for Guitar Volume One'
p3056
(lp3057
I723
asS'Moneyball: The Art of Winning an Unfair Game'
p3058
(lp3059
I1301
asS'The Book of Evidence (The Freddie Montgomery Trilogy, #1)'
p3060
(lp3061
I174
asS'The Changeling (Daughters of England, #15)'
p3062
(lp3063
I66
asS'Essential Jazz: The First 100 Years (with CD-ROM)'
p3064
(lp3065
I311
asS'Bleach ("Si Shen") (Volume 1)'
p3066
(lp3067
I2908
asS'A Million Little Pieces of Close to Home: A Close to Home Collection'
p3068
(lp3069
I1245
asS'The Oresteia'
p3070
(lp3071
I1518
asS"Expanding Tactics for Listening Teacher's Book"
p3072
(lp3073
I3128
asS'The Cobweb'
p3074
(lp3075
I824
asS'Dialogue and Deviance: Male-Male Desire in the Dialogue Genre (Plato to the Middle Ages, Plato to the Enlightenment, Plato to the Postmodern)'
p3076
(lp3077
I2356
asS"Harry Potter and the Sorcerer's Stone (Harry Potter, #1)"
p3078
(lp3079
I3
asS"Dicing with Di: The Amazing Adventures of Britain's Royal Watchers"
p3080
(lp3081
I3992
asS"The Bone Collector's Son"
p3082
(lp3083
I2375
asS'The Thorn Birds'
p3084
(lp3085
I3412
asS'Kare First Love, Vol. 10 (Kare First Love, #10)'
p3086
(lp3087
I3530
asS'El hombre duplicado'
p3088
(lp3089
I2538
asS"The Rhetoric of Morality and Philosophy: Plato's Gorgias and Phaedrus"
p3090
(lp3091
I1333
asS'Doubting Thomas'
p3092
(lp3093
I2466
asS"The War of Don Emmanuel's Nether Parts"
p3094
(lp3095
I3394
asS'Primal Leadership: Learning to Lead with Emotional Intelligence'
p3096
(lp3097
I1249
asS"Betty Crocker's Diabetes Cookbook: Everyday Meals Easy as 1-2-3"
p3098
(lp3099
I3892
asS"America's Mayor: The Hidden History of Rudy Giuliani's New York"
p3100
(lp3101
I1263
asS'Make the Most of Your Digital Photos, Video, & Music'
p3102
(lp3103
I2470
asS"Melville's Moby Dick: An American Nekyia (Studies in Jungian Psychology by Jungian Analysts)"
p3104
(lp3105
I2407
asS'Radiology for Anaesthesia and Intensive Care'
p3106
(lp3107
I2237
asS'Persuasion'
p3108
(lp3109
I2156
asS'Fabelbuch / Liber Fabularum.'
p3110
(lp3111
I3174
asS'The Lady and the Unicorn'
p3112
(lp3113
I2874
asS'Barbarians inside the Gates and Other Controversial Essays'
p3114
(lp3115
I3045
asS'The Path Between the Seas: The Creation of the Panama Canal, 1870-1914'
p3116
(lp3117
I2372
asS'Men Are from Mars, Women Are from Venus: A Practical Guide for Improving Communication and Getting What You Want in Relationships'
p3118
(lp3119
I1275
asS'Maybe You Never Cry Again'
p3120
(lp3121
I1044
asS"The Hitchhiker's Guide to the Galaxy: Quandary Phase (Hitchhiker's Guide: Radio Play, #4)"
p3122
(lp3123
I17
asS'Alcoholics Anonymous: The Story of How Many Thousands of Men and Women Have Recovered from Alcoholism'
p3124
(lp3125
I3058
asS"Grace's Letter to Lincoln"
p3126
(lp3127
I3946
asS'Blindness'
p3128
(lp3129
I2526
asS'The Vice Guide to Sex and Drugs and Rock and Roll'
p3130
(lp3131
I606
asS'The Claiming of Sleeping Beauty (Sleeping Beauty, #1)'
p3132
(lp3133
I3683
asS'Sport (Harriet the Spy Adventures)'
p3134
(lp3135
I3745
asS'Duveen: The Story of the Most Spectacular Art Dealer of All Time'
p3136
(lp3137
I2478
asS'God, Time, & Stephen Hawking'
p3138
(lp3139
I2105
asS'Oral and Written Communication: Historical Approaches'
p3140
(lp3141
I1811
asS'The Confessions of Saint Augustine'
p3142
(lp3143
I1683
asS'Vineland'
p3144
(lp3145
I414
asS"Theatrical Space and Historical Place in Sophocles' Oedipus at Colonus"
p3146
(lp3147
I2433
asS'Daniel Deronda, V1'
p3148
(lp3149
I309
asS'Buddhism Pure and Simple'
p3150
(lp3151
I774
asS'On Beyond Zebra!'
p3152
(lp3153
I330
asS'The Da Vinci Code: Fact or Fiction?'
p3154
(lp3155
I974
asS'Body Piercing Saved My Life: Inside the Phenomenon of Christian Rock'
p3156
(lp3157
I1127
asS'Body for Life Success Journal'
p3158
(lp3159
I1122
asS'Purpose Driven Life'
p3160
(lp3161
I1093
asS'Collected Plays: Volume 1: A Dance of the Forests; The Swamp Dwellers; The Strong Breed; The Road; The Bacchae of Euripides: 001 (Includes a Dance of ... Breed/the Road/the Bacchae of Euripides)'
p3162
(lp3163
I2572
asS"Gentleman's Guide to Toasting"
p3164
(lp3165
I1211
asS'Twelve Steps and Twelve Traditions'
p3166
(lp3167
I3059
asS'Sophocles Plays 2: Ajax, Women of Trachis, Electra, Philoctetes'
p3168
(lp3169
I1551
asS'Goodbye Mr. Chips'
p3170
(lp3171
I2979
asS'El libro de las ilusiones'
p3172
(lp3173
I467
asS"Dirk Gently's Holistic Detective Agency (Dirk Gently #1)"
p3174
(lp3175
I358
asS'Jeff Koons/Andy Warhol: Flowers'
p3176
(lp3177
I1818
asS'Roman Period (Greek Literature, Volume 6)'
p3178
(lp3179
I1793
asS'Martini, Straight Up: The Classic American Cocktail'
p3180
(lp3181
I2432
asS'The Emergence of Life on Earth: A Historical and Scientific Overview'
p3182
(lp3183
I2304
asS'Peace'
p3184
(lp3185
I1590
asS'Pompeii: Monuments Past and Present'
p3186
(lp3187
I884
asS'Bleach, Tome 1: The Death and the Strawberry'
p3188
(lp3189
I2907
asS'Sea of Stones'
p3190
(lp3191
I3561
asS'Eros and Ritual in Ancient Literature: Singing of Atalanta, Daphnis and Orpheus'
p3192
(lp3193
I3216
asS'Girl With a Pearl Earring'
p3194
(lp3195
I2866
asS'Chapterhouse: Dune (Dune Chronicles #6)'
p3196
(lp3197
I105
asS"The Eco-Foods Guide: What's Good for the Earth is Good for You!"
p3198
(lp3199
I1081
asS'Theocritus: Idylls'
p3200
(lp3201
I2458
asS'First Love'
p3202
(lp3203
I3532
asS'The Shadow of the Wind'
p3204
(lp3205
I1233
asS'Flesh and Blood'
p3206
(lp3207
I2139
asS'The Virgin Blue'
p3208
(lp3209
I2873
asS'Dune Messiah (Dune Chronicles #2)'
p3210
(lp3211
I106
asS'Buzz Marketing with Blogs for Dummies'
p3212
(lp3213
I3607
asS'Texas Heat (Texas, #2)'
p3214
(lp3215
I3851
asS'The Alpine Path: The Story of My Career'
p3216
(lp3217
I3567
asS'Is Reality Optional?: And Other Essays'
p3218
(lp3219
I3043
asS'You Only Live Twice (James Bond, #12)'
p3220
(lp3221
I3761
asS'Phaedrus-Kommentar'
p3222
(lp3223
I1346
asS'The Dry Danube: A Hitler Forgery'
p3224
(lp3225
I1409
asS'The Birds'
p3226
(lp3227
I1588
asS'Best of London (Lonely Planet Best Of)'
p3228
(lp3229
I793
asS'History of the Peloponnesian War, Bk. 7-8'
p3230
(lp3231
I1459
asS'Eating for Life: Your Guide to Great Health, Fat Loss and Increased Energy!'
p3232
(lp3233
I1123
asS'Sharp Objects'
p3234
(lp3235
I3506
asS'Killing Yourself To Live'
p3236
(lp3237
I598
asS'Get the Salt Out: 501 Simple Ways to Cut the Salt Out of Any Diet'
p3238
(lp3239
I2724
asS'Fullmetal Alchemist, Vol. 8 (Fullmetal Alchemist, #8)'
p3240
(lp3241
I869
asS'Pastoral Prayers in Public Places'
p3242
(lp3243
I261
asS'The Trust: The Private and Powerful Family behind the New York Times'
p3244
(lp3245
I120
asS'Wild Fire (John Corey, #4)'
p3246
(lp3247
I1849
asS'100 Bullshit Jobs...And How to Get Them'
p3248
(lp3249
I387
asS"The Ultimate Hitchhiker's Guide (Hitchhiker's Guide to the Galaxy #1-5)"
p3250
(lp3251
I18
asS'Colorado Springs Notes, 1899-1900'
p3252
(lp3253
I495
asS'Mark Twain'
p3254
(lp3255
I2970
asS'Hippolytus'
p3256
(lp3257
I1485
asS"Mel Bay's Guide to Guitar Chord Progression"
p3258
(lp3259
I731
asS"Douglas Adams's Starship Titanic"
p3260
(lp3261
I367
asS'Sicario (John Rain, #1)'
p3262
(lp3263
I1219
asS'Lysistrata and Other Plays'
p3264
(lp3265
I1567
asS'The Buccaneers'
p3266
(lp3267
I2312
asS'Team of Rivals: The Political Genius of Abraham Lincoln'
p3268
(lp3269
I2199
asS'Death in Holy Orders (Adam Dalgliesh, #11)'
p3270
(lp3271
I3825
asS'Supreme Power: Hyperion'
p3272
(lp3273
I3940
asS'Lysistrata (Clarendon)'
p3274
(lp3275
I2025
asS'The Great Bridge: The Epic Story of the Building of the Brooklyn Bridge'
p3276
(lp3277
I2369
asS"Warren Buffett Wealth: Principles and Practical Methods Used by the World's Greatest Investor"
p3278
(lp3279
I1137
asS'Emergence from Chaos to Order'
p3280
(lp3281
I2297
asS"9/11 Descent Into Tyranny: The New World Order's Dark Plans to Turn Earth Into a Prison Planet"
p3282
(lp3283
I847
asS'The Forerunner: His Parables and Poems'
p3284
(lp3285
I2546
asS'Theocritus: A Selection: Idylls 1, 3, 4, 6, 7, 10, 11 and 13'
p3286
(lp3287
I2456
asS'The Lovely Bones'
p3288
(lp3289
I536
asS'Other Voices, Other Rooms'
p3290
(lp3291
I2287
asS'First Into Nagasaki: The Censored Eyewitness Dispatches on Post-Atomic Japan and Its Prisoners of War'
p3292
(lp3293
I2513
asS'On Justice, Power and Human Nature: Selections from The History of the Peloponnesian War'
p3294
(lp3295
I1441
asS'A History of the World in 6 Glasses'
p3296
(lp3297
I3872
asS'On Love and Death'
p3298
(lp3299
I2901
asS'Sailing Fundamentals'
p3300
(lp3301
I674
asS'The John Adams Reader: Eseential Writings on an American Composer'
p3302
(lp3303
I2204
asS'El Cuento de La Isla Desconocida'
p3304
(lp3305
I2534
asS'Un raccourci dans le temps'
p3306
(lp3307
I183
asS'A Brief History of the Western World, Volume I: To 1715 (with CD-ROM and InfoTrac)'
p3308
(lp3309
I3453
asS"Selected Themes from the Motion Picture Harry Potter and the Sorcerer's Stone (Solo, Duet, Trio): Flute"
p3310
(lp3311
I3358
asS'Later Works'
p3312
(lp3313
I1706
asS'Twenty Four Hours A Day: Meditations'
p3314
(lp3315
I2130
asS'Taking Ourselves Seriously and Getting It Right'
p3316
(lp3317
I3497
asS'On Truth'
p3318
(lp3319
I3493
asS'Adams-Jefferson Letters'
p3320
(lp3321
I2206
asS'Greek Tragedies, Vol. 2: Aeschylus: The Libation Bearers; Sophocles: Electra; Euripides: Iphigenia in Tauris, Electra, The Trojan Women'
p3322
(lp3323
I3258
asS'The Beginnings of Rhetorical Theory in Classical Greece'
p3324
(lp3325
I1614
asS'Bullshit Artist: The 9/11 Leadership Myth'
p3326
(lp3327
I389
asS'Black Rednecks & White Liberals'
p3328
(lp3329
I3040
asS'Six Weeks to a Simpler Lifesty'
p3330
(lp3331
I2583
asS'Flaubert in Egypt: A Sensibility on Tour'
p3332
(lp3333
I2178
asS"Broker to Broker: Management Lessons from America's Most Successful Real Estate Companies"
p3334
(lp3335
I1118
asS'The 7 Habits of Highly Effective People'
p3336
(lp3337
I2251
asS"Cleon, Knights, and Aristophanes' Politics"
p3338
(lp3339
I2437
asS'Assessment in Special Education: A Practical Approach'
p3340
(lp3341
I1271
asS"Theocritus' Pastoral Analogies: The Formation of a Genre"
p3342
(lp3343
I2457
asS'Disappearances'
p3344
(lp3345
I462
asS"Melville's Short Novels: Authoritative Texts, Contexts, Criticism"
p3346
(lp3347
I3737
asS'The Story of Holly and Ivy'
p3348
(lp3349
I3802
asS'The Bacchae of Euripides: A Communion Rite'
p3350
(lp3351
I1488
asS'Suppliant Maidens/Persians/Prometheus/Seven Against Thebes (Loeb Classical Library 145)'
p3352
(lp3353
I1522
asS'Fabulas'
p3354
(lp3355
I3195
asS'Love As A Foreign Language #5'
p3356
(lp3357
I941
asS'Double Tap (Paul Madriani, #8)'
p3358
(lp3359
I2423
asS"Aristophanes' Male and Female Revolutions: A Reading of Aristophanes' Knights and Assemblywomen"
p3360
(lp3361
I2041
asS'The Voice of Reason: Essays in Objectivist Thought'
p3362
(lp3363
I1978
asS'Knowledge And Decisions'
p3364
(lp3365
I3042
asS'Government in America: People, Politics, and Policy'
p3366
(lp3367
I701
asS'Farmer Giles of Ham'
p3368
(lp3369
I2333
asS'The Essential Erasmus'
p3370
(lp3371
I2644
asS'A Wrinkle in Time: A Reading Guide (Scholastic Bookfiles)'
p3372
(lp3373
I189
asS'The Millionaire Next Door'
p3374
(lp3375
I998
asS'Bulletproof Your PC Network: Solving the 210 Most Common Problems Before They Happen'
p3376
(lp3377
I2484
asS'Trevanian: Four Complete Novels: The Eiger Sanction / The Loo Sanction / The Main / Shibumi'
p3378
(lp3379
I1061
asS'The Crescent Obscured: The United States and the Muslim World, 1776-1815'
p3380
(lp3381
I1073
asS'Rich Dad, Poor Dad'
p3382
(lp3383
I912
asS"Blood Stripes: The Grunt's View of the War in Iraq"
p3384
(lp3385
I1322
asS'Nickel and Dimed'
p3386
(lp3387
I1870
asS'The Plastic Film and Foil Web Handling Guide'
p3388
(lp3389
I1861
asS'New York Nights (Virex Trilogy, #1)'
p3390
(lp3391
I440
asS'Invisible Relations: Representations of Female Intimacy in the Age of Enlightenment'
p3392
(lp3393
I2801
asS'On the Road'
p3394
(lp3395
I2550
asS"L'Histoire de Pi"
p3396
(lp3397
I1230
asS'Hospital Sketches'
p3398
(lp3399
I2987
asS'Anna Karenina'
p3400
(lp3401
I151
asS'Iceland: Land of the Sagas'
p3402
(lp3403
I1896
asS'Cover Her Face (Adam Dalgliesh #1)'
p3404
(lp3405
I3832
asS'Snow Crash'
p3406
(lp3407
I830
asS'Walk in the Light & Twenty-Three Tales'
p3408
(lp3409
I659
asS"Secrets of the Alchemist Dar (A Treasure's Trove)"
p3410
(lp3411
I867
asS'The Oedipus Plays of Sophocles'
p3412
(lp3413
I1555
asS'Harry Potter Collection (Harry Potter, #1-6)'
p3414
(lp3415
I10
asS'No logo: El poder de las marcas'
p3416
(lp3417
I3620
asS'Flat Earth? Round Earth?'
p3418
(lp3419
I1906
asS'Sailing Smart: Winning Techniques, Tactics, And Strategies'
p3420
(lp3421
I679
asS'African Rock Art: Paintings and Engravings on Stone'
p3422
(lp3423
I594
asS'The Five Love Languages Faux Leather Bound Journal and Paperback Book Set (Amazon.com Exclusive)'
p3424
(lp3425
I955
asS'The Design of Everyday Things'
p3426
(lp3427
I840
asS'Ruby Cookbook'
p3428
(lp3429
I141
asS'The Future of Freedom: Illiberal Democracy at Home and Abroad'
p3430
(lp3431
I2447
asS'Personal Bankruptcy Laws for Dummies'
p3432
(lp3433
I3611
asS'Angle of Repose, Part 1 of 2'
p3434
(lp3435
I3361
asS'Best of Ruby Quiz Volume One'
p3436
(lp3437
I517
asS'Finding Yourself in India'
p3438
(lp3439
I2243
asS'Oresteia'
p3440
(lp3441
I1521
asS'Intimate Matters: A History of Sexuality in America'
p3442
(lp3443
I1880
asS'My Life in Dog Years'
p3444
(lp3445
I2930
asS'Sliding Into Home'
p3446
(lp3447
I510
asS'Complete Giuliani Studies'
p3448
(lp3449
I1256
asS'The Little Steamroller'
p3450
(lp3451
I3703
asS'Raising Smart Kids for Dummies'
p3452
(lp3453
I2215
asS'Jungle Love'
p3454
(lp3455
I944
asS'Untouchable'
p3456
(lp3457
I162
asS'Blood Done Sign My Name: A True Story'
p3458
(lp3459
I2521
asS'Tenth Man'
p3460
(lp3461
I3708
asS"Applying Sun Tzu's Art Of War In Marketing"
p3462
(lp3463
I2694
asS'Gorgias, Sophist, and Artist'
p3464
(lp3465
I1359
asS"Sex, Drugs and DNA: Science's Taboos Confronted"
p3466
(lp3467
I600
asS"Virgil's Aeneid: Interpretation and Influence"
p3468
(lp3469
I1734
asS'New York Trilogy   Whodunit?'
p3470
(lp3471
I442
asS"Masterpieces of Illumination: Codices Illustres the World's Most Famous Illuminated Manuscripts 400 to 1600"
p3472
(lp3473
I2733
asS'Drina Dances in Switzerland (Drina, #9)'
p3474
(lp3475
I3325
asS'Everyday Italian: 125 Simple and Delicious Recipes'
p3476
(lp3477
I1192
asS'A Little Original Sin: The Life and Work of Jane Bowles'
p3478
(lp3479
I3816
asS'Art for Public Places: Critical Essays'
p3480
(lp3481
I263
asS'Barnaby Rudge'
p3482
(lp3483
I3020
asS'Illuminations of Hildegard of Bingen'
p3484
(lp3485
I2730
asS'A Room With A View (Classic Mp3 Audiobooks)'
p3486
(lp3487
I3089
asS'Grace Givers: Amazing Stories of Grace in Action'
p3488
(lp3489
I3639
asS'Execution: The Discipline of Getting Things Done'
p3490
(lp3491
I1635
asS'Conversations with J.K. Rowling'
p3492
(lp3493
I2000
asS'Seven Mansions of Color'
p3494
(lp3495
I853
asS'An Avalanche of Anoraks'
p3496
(lp3497
I1932
asS'Purpose Driven Life Journal: What on Earth Am I Here For?'
p3498
(lp3499
I1091
asS'A Mind To Murder (Adam Dalgliesh, #2)'
p3500
(lp3501
I3829
asS'Molly Hatchet - 5 of the Best'
p3502
(lp3503
I54
asS"Brian's Winter"
p3504
(lp3505
I2928
asS'Celtic and Old Norse Designs'
p3506
(lp3507
I2351
asS'The Great House of God'
p3508
(lp3509
I3997
asS'Principles of Virology: Molecular Biology, Pathogenesis, and Control'
p3510
(lp3511
I3372
asS'Short History of Syriac Literature'
p3512
(lp3513
I3202
asS'Velvet: A Novel of Suspense'
p3514
(lp3515
I366
asS'The War Of The Worlds'
p3516
(lp3517
I2510
asS'Great Expectations: Your All-In-One Resource for Pregnancy  Childbirth'
p3518
(lp3519
I2620
asS'Growing Givers Hearts'
p3520
(lp3521
I3643
asS'Middlesex'
p3522
(lp3523
I2187
asS'Eclogues. Georgics. Aeneid: Books 1-6'
p3524
(lp3525
I1402
asS'If I Die in a Combat Zone, Box Me Up and Ship Me Home'
p3526
(lp3527
I3445
asS'Bridge to Terabithia: The Official Movie Companion'
p3528
(lp3529
I2841
asS'Galileo, Darwin, and Hawking: The Interplay of Science, Reason, and Religion'
p3530
(lp3531
I2101
asS'Tim'
p3532
(lp3533
I3425
asS'The Birds (Methuen Drama)'
p3534
(lp3535
I2019
asS'A Bend in the Road'
p3536
(lp3537
I3463
asS'Guitar Chord Guru: The Chord Book - Your Guide for Success!'
p3538
(lp3539
I746
asS'Otis Lee Crenshaw: I Blame Society'
p3540
(lp3541
I3406
asS'Pat of Silver Bush (Pat, #1)'
p3542
(lp3543
I3580
asS'Tropic of Capricorn'
p3544
(lp3545
I250
asS'The Guitar Chord Deck'
p3546
(lp3547
I752
asS'Dating For Dummies'
p3548
(lp3549
I2214
asS'The Stories of Mary Gordon'
p3550
(lp3551
I3115
asS'Birds Without Wings'
p3552
(lp3553
I3397
asS'Ft-D Hammett: A Life'
p3554
(lp3555
I3905
asS'The Longest Journey (Bantam Classic)'
p3556
(lp3557
I3673
asS'Eclipse'
p3558
(lp3559
I3662
asS'The Collapse of Evolution'
p3560
(lp3561
I479
asS'Heaven and Other Poems'
p3562
(lp3563
I3773
asS'A Killing Rain (Louis Kincaid, #6)'
p3564
(lp3565
I987
asS'Four Plays: The Clouds/The Birds/Lysistrata/The Frogs'
p3566
(lp3567
I1560
asS'Perfumes, Splashes & Colognes: Discovering and Crafting Your Personal Fragrances'
p3568
(lp3569
I339
asS'The Madman'
p3570
(lp3571
I2544
asS'The Story of Inventions'
p3572
(lp3573
I506
asS'The Natural'
p3574
(lp3575
I685
asS'Love, Sex  Tragedy: How the Ancient World Shapes Our Lives'
p3576
(lp3577
I1800
asS'Love Letters'
p3578
(lp3579
I285
asS'Dream Planner: Inspired by the Dream Giver'
p3580
(lp3581
I3641
asS'Wisdom from the Five People You Meet in Heaven'
p3582
(lp3583
I3433
asS'Book of Haikus'
p3584
(lp3585
I3770
asS"A Sentimental Education: The Story of a Young Man (World's Classics)"
p3586
(lp3587
I2179
asS'Fabeln. Text/ Kommentar. (Lernmaterialien)'
p3588
(lp3589
I3170
asS"Chaucer's Canterbury Tales"
p3590
(lp3591
I2710
asS'Old Man and the Sea'
p3592
(lp3593
I2172
asS'Parzival: The Quest of the Grail Knight'
p3594
(lp3595
I2849
asS'Suppliant Women: Suppliant Women, Electra, Heracles (Loeb Classical Library): Suppliant Women, Electra, Heracles, Trojan Women'
p3596
(lp3597
I1495
asS'On The Road'
p3598
(lp3599
I2556
asS'My Moby Dick'
p3600
(lp3601
I2405
asS'Hecuba: Introduction, Text, and Commentary'
p3602
(lp3603
I1503
asS'The Curious Incident of the Dog in the Night-time'
p3604
(lp3605
I3439
asS'In the Land of White Death: An Epic Story of Survival in the Siberian Arctic'
p3606
(lp3607
I1902
asS'The First Assistant: A Continuing Tale from Behind the Hollywood Curtain'
p3608
(lp3609
I3630
asS'Stranger Than Fiction'
p3610
(lp3611
I3719
asS'Fast Food Nation: The Dark Side of the All-American Meal'
p3612
(lp3613
I1097
asS'The Warren Buffett CEO: Secrets from the Berkshire Hathaway Managers'
p3614
(lp3615
I1138
asS'Wish You Were Here: The Official Biography of Douglas Adams'
p3616
(lp3617
I362
asS"Children's Songs: Guitar Chord Songbook"
p3618
(lp3619
I749
asS'The Pipes of Pan: Intertextuality and Literary Filiation in the Pastoral Tradition from Theocritus to Milton'
p3620
(lp3621
I2463
asS'Dashiell Hammett Une VI'
p3622
(lp3623
I3915
asS'Twelve Steps For Overeaters: An Interpretation Of The Twelve Steps Of Overeaters Anonymous'
p3624
(lp3625
I3057
asS'First Love & Look for My Obituary: Two Novellas by Elena Garro'
p3626
(lp3627
I3538
asS'French Ways and Their Meaning'
p3628
(lp3629
I2310
asS'The Innocents Abroad'
p3630
(lp3631
I2443
asS'Diamonds Are Forever (James Bond, #4)'
p3632
(lp3633
I3760
asS'The Revolutionary John Adams'
p3634
(lp3635
I2210
asS'LA Guerra De LA Mercadotecnia (Marketing Warfare)'
p3636
(lp3637
I2597
asS'Brokeback Mountain: Story to Screenplay'
p3638
(lp3639
I1626
asS"The Invisible Web: Uncovering Information Sources Search Engines Can't See"
p3640
(lp3641
I3647
asS"Down at Theresa's: Chicago Blues: The Photographs of Marc PoKempner"
p3642
(lp3643
I2929
asS'Thucydides: An Introduction for the Common Reader'
p3644
(lp3645
I1447
asS'The Sixteen Pleasures'
p3646
(lp3647
I3107
asS'Miracle Collapse: The 1969 Chicago Cubs'
p3648
(lp3649
I1216
asS'Farce: A History from Aristophanes to Woody Allen'
p3650
(lp3651
I2031
asS"Loving and Dying: A Reading of Plato's Phaedo, Symposium, and Phaedrus"
p3652
(lp3653
I1339
asS'Storage (Chic Simple) (Chic Simple Components)'
p3654
(lp3655
I553
asS'The Year of the Death of Ricardo Reis'
p3656
(lp3657
I2536
asS"Cliffsnotes on Chaucer's the Canterbury Tales (CliffsNotes)"
p3658
(lp3659
I2700
asS'Hardy Boys Boxed Set 1-6'
p3660
(lp3661
I2741
asS'Alcoholics Anonymous'
p3662
(lp3663
I3055
asS'The Bacchae and Other Plays'
p3664
(lp3665
I1476
asS'Fences and Windows: Dispatches from the Front Lines of the Globalization Debate'
p3666
(lp3667
I3615
asS'Harriet Spies Again (Harriet the Spy Adventures, #1)'
p3668
(lp3669
I3743
asS"Erasmus on His Times: A Shortened Version of the 'Adages' of Erasmus"
p3670
(lp3671
I2650
asS"The Five Love Languages: Men's Edition: How to Express Heartfelt Commitment to Your Mate"
p3672
(lp3673
I956
asS'Artesia: Adventures in the Known World'
p3674
(lp3675
I72
asS'Thai Massage: Sacred Body Work'
p3676
(lp3677
I807
asS'Steering a New Course: Transportation, Energy, and the Environment'
p3678
(lp3679
I3138
asS'The Long Tail:  Why The Future Is Selling Less Of More'
p3680
(lp3681
I2575
asS'Incredible Chord Finder: Easy-to-Use Guide to Over 1,100 Guitar Chords'
p3682
(lp3683
I721
asS'Picture Chord Encyclopedia: Photos and Diagrams for 2,600 Guitar Chords!'
p3684
(lp3685
I737
asS'Help Yourself Get Everything Done'
p3686
(lp3687
I3669
asS'Millionaire Women Next Door: The Many Journeys of Successful American Businesswomen'
p3688
(lp3689
I1000
asS'The Annotated Pride & Prejudice'
p3690
(lp3691
I1892
asS'Trends in Mathematical Physics: Proceedings of the Conference on Trends in Mathematical Physics, October 14-17, 1998, University of Tennessee, Knoxville'
p3692
(lp3693
I3489
asS'Lo mejor de Londres (Lonely Planet Best Of)'
p3694
(lp3695
I803
asS"Mahatma Gandhi and His Myths: Civil Disobedience, Nonviolence, and Satyagraha in the Real World (Plus Why It's Gandhi, Not Ghandi)"
p3696
(lp3697
I2236
asS'The Long-Distance Relationship Survival Guide: Secrets and Strategies from Successful Couples Who Have Gone the Distance'
p3698
(lp3699
I1918
asS'Cyclops. Alcestis. Medea'
p3700
(lp3701
I1474
asS"Investing Without Losing: The Beginner's Guide to Real Estate Tax Lien and Tax Deed Auctions"
p3702
(lp3703
I1051
asS'The Three-Martini Playdate: A Practical Guide to Happy Parenting'
p3704
(lp3705
I2422
asS'Historiae, Vol. 2'
p3706
(lp3707
I1446
asS'A Colorful Symphony: Full Score'
p3708
(lp3709
I380
asS'Euripides II: The Cyclops/Heracles/Iphigenia in Tauris/Helen'
p3710
(lp3711
I1470
asS'Antigone'
p3712
(lp3713
I1752
asS'Socrates and Aristophanes'
p3714
(lp3715
I1574
asS'Gorgias/Phaedrus (Agora)'
p3716
(lp3717
I1342
asS'For the Good of the Earth and Sun: Teaching Poetry'
p3718
(lp3719
I1079
asS'Iphigenia in Aulis'
p3720
(lp3721
I1496
asS'Beauty Junkies: Inside Our $15 Billion Obsession With Cosmetic Surgery'
p3722
(lp3723
I3681
asS'Five Great Science Fiction Novels'
p3724
(lp3725
I2505
asS'Aeneid: Hero, War, Humanity'
p3726
(lp3727
I1395
asS'Vegas Heat (Vegas, #2)'
p3728
(lp3729
I3847
asS'The Jane Austen Book Club'
p3730
(lp3731
I2152
asS"The Heidi Chronicles: Uncommon Women and Others & Isn't It Romantic"
p3732
(lp3733
I86
asS'The Structure of Old Norse "Drottkvaett" Poetry'
p3734
(lp3735
I2352
asS'Erasmus and the Age of Reformation'
p3736
(lp3737
I2645
asS'Wild at Heart Field Manual: A Personal Guide to Discover the Secret of Your Masculine Soul'
p3738
(lp3739
I1851
asS'The Good Earth'
p3740
(lp3741
I1083
asS'Guitar Chords for Beginners'
p3742
(lp3743
I751
asS"Rhetoric, Comedy, and the Violence of Language in Aristophanes' Clouds"
p3744
(lp3745
I3247
asS'Junie B. Jones and a Little Monkey Business (Junie B. Jones, #2)'
p3746
(lp3747
I1167
asS'Chicago Blues'
p3748
(lp3749
I2921
asS"The Genesis of Lachmann's Method"
p3750
(lp3751
I2471
asS'Drina Dances in Exile (Drina, #3)'
p3752
(lp3753
I3143
asS'The Evidence-Based Social Work Skills Book'
p3754
(lp3755
I171
asS'The Tunnel'
p3756
(lp3757
I1668
asS'55,000+ Baby Names'
p3758
(lp3759
I2522
asS'Wild Things: The Material Culture of Everyday Life'
p3760
(lp3761
I846
asS'Octopussy & the Living Daylights (James Bond, #14)'
p3762
(lp3763
I3765
asS"The World's First Love: Mary, Mother of God"
p3764
(lp3765
I3529
asS'Secrets of the Snow: Visual Clues to Avalanche and Ski Conditions'
p3766
(lp3767
I1929
asS'The Complete Nonsense of Edward Lear'
p3768
(lp3769
I236
asS'Sun Tzu and the Art of Business: Six Strategic Principles for Managers'
p3770
(lp3771
I2586
asS'Sherlock Holmes: The Lost Cases'
p3772
(lp3773
I3598
asS'The Collapse of Complex Societies'
p3774
(lp3775
I477
asS'USB Mass Storage: Designing and Programming Devices and Embedded Hosts'
p3776
(lp3777
I543
asS'Hiroshima Mon Amour'
p3778
(lp3779
I276
asS"The Tragedy of Pudd'nhead Wilson"
p3780
(lp3781
I2835
asS"Objective IELTS Intermediate Student's Book"
p3782
(lp3783
I3524
asS'The Mind and the Brain: Neuroplasticity and the Power of Mental Force'
p3784
(lp3785
I3281
asS'Cosmopolis'
p3786
(lp3787
I406
asS'Trade Like Warren Buffett'
p3788
(lp3789
I1133
asS'Rails Recipes'
p3790
(lp3791
I519
asS'Taxonomic Monograph  of the Genus Aglaia (Meliaceae)'
p3792
(lp3793
I2365
asS'Grief, Dying, & Death'
p3794
(lp3795
I2232
asS'The Secret Family: Twenty-Four Hours Inside the Mysterious World of Our Minds and Bodies'
p3796
(lp3797
I2808
asS'Pompeii...Buried Alive!'
p3798
(lp3799
I881
asS'The Bucaneers'
p3800
(lp3801
I48
asS'The Birth of Tragedy and Other Writings (History of Philosophy)'
p3802
(lp3803
I2820
asS'Illumination Night'
p3804
(lp3805
I2726
asS'La caverna'
p3806
(lp3807
I2541
asS'Eric Meyer on CSS: Mastering the Language of Web Design with Cascading Style Sheets'
p3808
(lp3809
I571
asS'The Horn of the Unicorn: A Mosaic of the Life of Archbishop Marcel Lefebvre'
p3810
(lp3811
I2582
asS'The History of Sexuality, Volume 3: The Care of the Self'
p3812
(lp3813
I1876
asS'The Inner Game of Tennis: The Classic Guide to the Mental Side of Peak Performance'
p3814
(lp3815
I905
asS'Journey Without Maps'
p3816
(lp3817
I3695
asS'ebay Timesaving Techniques for Dummies'
p3818
(lp3819
I139
asS"Cliffs Notes on Aristophanes' Lysistrata, The Birds, The Clouds, The Frogs"
p3820
(lp3821
I1584
asS'Nonviolence: Twenty-Five Lessons from the History of a Dangerous Idea'
p3822
(lp3823
I3341
asS'China Court: The Hours of a Country House'
p3824
(lp3825
I3801
asS'Bleach, Volume 15'
p3826
(lp3827
I2879
asS'Bleach, Volume 14'
p3828
(lp3829
I2881
asS'Women in Old Norse Society: A Portrait'
p3830
(lp3831
I2349
asS'Bleach, Volume 11'
p3832
(lp3833
I2882
asS'Amazons'
p3834
(lp3835
I430
asS'The Modern Falconer: Training, Hawking & Breeding'
p3836
(lp3837
I2108
asS'Chicago Blues Guitar (Guitar Books)'
p3838
(lp3839
I2926
asS"Ruby Ann's Down Home Trailer Park Holiday Cookbook"
p3840
(lp3841
I143
asS'Hidden Persuaders'
p3842
(lp3843
I3725
asS'Greek Literature in the Classical Period: The Prose of Historiography and Oratory'
p3844
(lp3845
I1789
asS'The Portable Henry James'
p3846
(lp3847
I2691
asS'Little Known Evidences of the Book of Mormon'
p3848
(lp3849
I176
asS"L'Amant de la Chine du Nord"
p3850
(lp3851
I283
asS'Sex, Drugs & Economics: An Unconventional Introduction to Economics'
p3852
(lp3853
I601
asS'Underworld'
p3854
(lp3855
I399
asS'Book of Sketches'
p3856
(lp3857
I3768
asS'Paul Auster and Postmodern Quest: On the Road to Nowhere'
p3858
(lp3859
I465
asS'The Red Notebook: True Stories'
p3860
(lp3861
I463
asS'Bridge to Terabithia Study Guide'
p3862
(lp3863
I2838
asS'Marketing Warfare'
p3864
(lp3865
I2595
asS'Decadent'
p3866
(lp3867
I3666
asS'From Russia With Love/Moonraker'
p3868
(lp3869
I3752
asS'The Power Broker: A Novel (Christian Gillette, #3)'
p3870
(lp3871
I1117
asS'Original Sin: Origins, Developments, Contemporary Meanings'
p3872
(lp3873
I3824
asS'Staying Clean: Living Without Drugs'
p3874
(lp3875
I3060
asS'Hesiod II: The Shield. Catalogue of Women. Other Fragments. (Loeb Classical Library, #503)'
p3876
(lp3877
I2473
asS'The Articulate Executive in Action: How the Best Leaders Get Things Done'
p3878
(lp3879
I3307
asS'De amor y de sombra'
p3880
(lp3881
I3299
asS'The Intentional Stance'
p3882
(lp3883
I2073
asS'The Stone Raft'
p3884
(lp3885
I2535
asS"Cliffs Notes: Dickens' A Tale of Two Cities"
p3886
(lp3887
I1954
asS'The Fountainhead'
p3888
(lp3889
I664
asS'Execution: The Discipline Of Getting Things Done'
p3890
(lp3891
I1640
asS'What Every Investor Needs to Know about Accounting Fraud'
p3892
(lp3893
I994
asS'Simply Tuscan: Recipes for a Well-Lived Life'
p3894
(lp3895
I1189
asS'Complete Home Storge'
p3896
(lp3897
I546
asS'Personal Finance for Canadians for Dummies'
p3898
(lp3899
I3609
asS'Mice, Morals, & Monkey Business'
p3900
(lp3901
I1165
asS'The Bible Lessons of John Quincy Adams for His Son'
p3902
(lp3903
I2212
asS'Who Needs Greek? Contests in the Cultural History of Hellenism'
p3904
(lp3905
I1804
asS'The Languages of Aristophanes: Aspects of Linguistic Variation in Classical Attic Greek'
p3906
(lp3907
I2032
asS'My First Love and Other Disasters'
p3908
(lp3909
I3541
asS'Secret of the Peaceful Warrior'
p3910
(lp3911
I2257
asS'Thai Yoga Massage: A Dynamic Therapy for Physical Well-Being and Spiritual Energy'
p3912
(lp3913
I810
asS'Murder by Moonlight & Other Mysteries (New Adventures of Sherlock Holmes 19-24)'
p3914
(lp3915
I3593
asS"The Poet's Voice: Essays on Poetics and Greek Literature"
p3916
(lp3917
I1802
asS'Hyperion and Selected Poems'
p3918
(lp3919
I3941
asS'Camp Cooking: 100 Years The National Museum of Forest Service History'
p3920
(lp3921
I315
asS'Phaedrus/Apology/Crito/Symposium'
p3922
(lp3923
I3167
asS"The Unity of Plato's Gorgias: Rhetoric, Justice, and the Philosophic Life"
p3924
(lp3925
I3201
asS"Bookclub in a Box Discusses Khaled Hosseini's Novel The Kite Runner"
p3926
(lp3927
I876
asS'The Enchanted April (1922)'
p3928
(lp3929
I3076
asS'The Year of Magical Thinking'
p3930
(lp3931
I420
asS'Trump Strategies for Real Estate: Billionaire Lessons for the Small Investor'
p3932
(lp3933
I1033
asS'Spectator Politics: Metatheatre and Performance in Aristophanes'
p3934
(lp3935
I2024
asS'Sailing for Dummies'
p3936
(lp3937
I672
asS'A Tangled Web'
p3938
(lp3939
I3577
asS'Jitterbug Perfume'
p3940
(lp3941
I338
asS"Corelli's Mandolin"
p3942
(lp3943
I3388
asS'We the Living'
p3944
(lp3945
I668
asS'How to Succeed with Men'
p3946
(lp3947
I1293
asS'The J.K. Rowling Encyclopedia'
p3948
(lp3949
I1997
asS'Self'
p3950
(lp3951
I3311
asS'The History of Sexuality 1: An Introduction'
p3952
(lp3953
I1877
asS"The Secrets of Frank Herbert's Dune"
p3954
(lp3955
I108
asS'Collected Poems'
p3956
(lp3957
I464
asS'Old Dry Frye'
p3958
(lp3959
I1411
asS'Libra'
p3960
(lp3961
I400
asS'Doctor No (James Bond, #6)'
p3962
(lp3963
I3757
asS'An Evening of Long Goodbyes'
p3964
(lp3965
I2056
asS"Solomon's Gold (The Baroque Cycle, Vol. 3, Book 1)"
p3966
(lp3967
I2017
asS'Great Jones Street'
p3968
(lp3969
I407
asS'Aglaia: The Poetry of Alcman, Sappho, Pindar, Bacchylides, and Corinna'
p3970
(lp3971
I1757
asS'God Created The Integers'
p3972
(lp3973
I2096
asS'Four Fires'
p3974
(lp3975
I2344
asS'Compelling Evidence (Paul Madriani, #1)'
p3976
(lp3977
I2425
asS'Collected Tales, Sketches, Speeches and Essays 2: 1891-1910'
p3978
(lp3979
I2973
asS"Plato's Phaedrus: The Philosophy of Love"
p3980
(lp3981
I1336
asS'Tom Wolfe Carves Dragons'
p3982
(lp3983
I2665
asS'The Warren Buffett Way'
p3984
(lp3985
I1130
asS"The Essential J.R.R. Tolkien Sourcebook: A Fan's Guide to Middle-Earth and Beyond"
p3986
(lp3987
I2332
asS"Dickens' Great Expectations (Cliffs Notes)"
p3988
(lp3989
I2622
asS'Hyperion (Los Cantos de Hyperion, #1)'
p3990
(lp3991
I3938
asS'Las intermitencias de la muerte'
p3992
(lp3993
I2543
asS'Odyssey'
p3994
(lp3995
I1388
asS'The Da Vinci Code (Robert Langdon, #2)'
p3996
(lp3997
I968
asS'Symposium/Phaedrus'
p3998
(lp3999
I1325
asS'The Potato Factory'
p4000
(lp4001
I2337
asS'The Prince of the City: Giuliani, New York, and the Genius of American Life'
p4002
(lp4003
I1262
asS'The Years of Rice and Salt'
p4004
(lp4005
I2723
asS'Nikola Tesla: A Spark of Genius'
p4006
(lp4007
I497
asS'A Great and Terrible Beauty (Gemma Doyle, #1)'
p4008
(lp4009
I3682
asS'Louisa May Alcott: A Biography: With an Introduction to the New Edition'
p4010
(lp4011
I2991
asS'Salt in His Shoes: Michael Jordan in Pursuit of a Dream'
p4012
(lp4013
I2718
asS'Miss Happiness and Miss Flower'
p4014
(lp4015
I3797
asS'Tolstoy Lied: A Love Story'
p4016
(lp4017
I657
asS'Bone Sharps, Cowboys, and Thunder Lizards: Edward Drinker Cope, Othniel Charles Marsh, and the Gilded Age of Paleontology'
p4018
(lp4019
I3521
asS"The Everything Kid's Cookbook: From Mac'n Cheese to Double Chocolate Chip Cookies-All You Need to Have Some Finger Lickin' Fun"
p4020
(lp4021
I3887
asS'Brainstorms: Philosophical Essays on Mind and Psychology'
p4022
(lp4023
I2072
asS'A Challenge to the Critics: Scholarly Evidences of the Book of Mormon'
p4024
(lp4025
I175
asS'Managing Debt For Dummies'
p4026
(lp4027
I3612
asS'The History of the Siege of Lisbon'
p4028
(lp4029
I2542
asS'Natural Resource Conservation: Management for a Sustainable Future'
p4030
(lp4031
I688
asS'Midwest Eclogue'
p4032
(lp4033
I1401
asS'The Tower'
p4034
(lp4035
I1772
asS'Don Quixote and the Windmills'
p4036
(lp4037
I3839
asS'J. K. Rowling: A Biography'
p4038
(lp4039
I1996
asS'The Kingdom of God Is Within You'
p4040
(lp4041
I658
asS"Neon Lit: Paul Auster's City of Glass"
p4042
(lp4043
I450
asS'Herding Dogs: Progressive Training'
p4044
(lp4045
I1396
asS'Flash to the Core: An Interactive Sketchbook by Joshua Davis'
p4046
(lp4047
I595
asS'All the Names'
p4048
(lp4049
I2528
asS'Winner Take All (John Rain, #3)'
p4050
(lp4051
I988
asS"Murder at Ford's Theatre (Capital Crimes, #19)"
p4052
(lp4053
I2285
asS'Drina Dances in Paris (Drina, #7)'
p4054
(lp4055
I3144
asS'The Woman Chaser'
p4056
(lp4057
I218
asS'Thai Massage'
p4058
(lp4059
I811
asS'Stranger Than Fiction: An Independent Investigation of the True Culprits Behid 9-11'
p4060
(lp4061
I3721
asS'Dios emperador de Dune (Dune Chronicles, #4)'
p4062
(lp4063
I111
asS'What Every Fidelity Investor Needs to Know'
p4064
(lp4065
I995
asS'Confessions'
p4066
(lp4067
I1705
asS'"Fabulae Novae" Di Fedro'
p4068
(lp4069
I3198
asS'Jessica'
p4070
(lp4071
I2339
asS'The Lord of the Rings Hardcover Box Set (The Lord of the Rings, #1-3)'
p4072
(lp4073
I38
asS'Lysis/Phaedrus/Symposium: Plato on Homosexuality (Great Books in Philosophy)'
p4074
(lp4075
I1334
asS'The Longest Journey'
p4076
(lp4077
I3101
asS"Literature, Disaster, and the Enigma of Power: A Reading of 'Moby-Dick'"
p4078
(lp4079
I2408
asS'Riding High'
p4080
(lp4081
I3543
asS'The Good Earth (Cliffs Notes)'
p4082
(lp4083
I1080
asS'Dictionary of Accepted Ideas'
p4084
(lp4085
I2185
asS'Trump: Surviving at the Top'
p4086
(lp4087
I1038
asS'Looking for Mo'
p4088
(lp4089
I2195
asS'Euripides and the Poetics of Sorrow: Art, Gender, and Commemoration in Alcestis, Hippolytus, and Hecuba'
p4090
(lp4091
I1759
asS"Foucault's Virginity: Ancient Erotic Fiction & the History of Sexuality (Stanford Memorial Lecture)"
p4092
(lp4093
I1805
asS'Catching Alice'
p4094
(lp4095
I3631
asS'The 36-Hour Day: A Family Guide to Caring for Persons with Alzheimer Disease, Related Dementing Illnesses, and Memory Loss in Later Life'
p4096
(lp4097
I2123
asS'Cultural Diversity Fieldbook: Fresh Visions and Breakthrough Strategies for Revitalizing the Workplace'
p4098
(lp4099
I3909
asS"Kids' Crafts: Stamp It!: 50 Amazing Projects to Make"
p4100
(lp4101
I1832
asS'In Web Design for Libraries'
p4102
(lp4103
I1856
asS'The House of Mirth / The Reef / The Custom of the Country / The Age of Innocence'
p4104
(lp4105
I2306
asS'Fundamental and Applied Aspects of Modern Physics'
p4106
(lp4107
I3490
asS'Fullmetal Alchemist, Vol. 4 (Fullmetal Alchemist, #4)'
p4108
(lp4109
I871
asS'Diez Cuentos de Eva Luna Con Guia de Comprension y Repaso de Gramatica'
p4110
(lp4111
I3293
asS"People's History of the United States: 1492 to Present"
p4112
(lp4113
I2772
asS'Adventures of Huckleberry Finn'
p4114
(lp4115
I2955
asS'eBay: Top 100 Simplified Tips & Tricks'
p4116
(lp4117
I138
asS'Mao II'
p4118
(lp4119
I402
asS'The Trust: The Private and Powerful Family Behind The New York Times'
p4120
(lp4121
I856
asS'Anansi Boys (American Gods, #2)'
p4122
(lp4123
I2744
asS'Economics in One Lesson: The Shortest & Surest Way to Understand Basic Economics'
p4124
(lp4125
I3028
asS'The Book of Illumination: Kitab al-Tanwir fi Isqat al-Tadbir'
p4126
(lp4127
I2732
asS"Edward Lear's Nonsense Verse"
p4128
(lp4129
I240
asS'Best of Blink-182'
p4130
(lp4131
I2147
asS'The Big U'
p4132
(lp4133
I826
asS'CONQUISTA DE ALEJANDRO MAGNO,'
p4134
(lp4135
I1321
asS'The Secret House: The Extraordinary Science of an Ordinary Day'
p4136
(lp4137
I2806
asS'Anne of Avonlea'
p4138
(lp4139
I3574
asS'The Valkyries'
p4140
(lp4141
I1425
asS'The Big Sleep; Farewell, My Lovely; The High Window'
p4142
(lp4143
I2053
asS'The Chemistry And Physics Of Intermetallic Materials (Special Topics In Inorganic Chemistry)'
p4144
(lp4145
I3484
asS"Don't Sweat the Small Stuff for Men: Simple Ways to Minimize Stress in a Competitive World"
p4146
(lp4147
I3962
asS'Fit for Developing Software: Framework for Integrated Tests'
p4148
(lp4149
I3855
asS'Deborah Butterfield'
p4150
(lp4151
I3123
asS"Mostly Harmless (Hitchhiker's Guide to the Galaxy, #5)"
p4152
(lp4153
I360
asS'Prolegomena to Homer, 1795'
p4154
(lp4155
I2475
asS"Stylin' with CSS: A Designer's Guide"
p4156
(lp4157
I566
asS'My Secret Garden'
p4158
(lp4159
I2997
asS'Hello Reader: Make Your Way For Tooth Decay (Level 3)'
p4160
(lp4161
I2862
asS'The Green Toenails Gang (Olivia Sharp: Agent for Secrets)'
p4162
(lp4163
I3516
asS"Glacier's Historic Hotels & Chalets: View with a Room"
p4164
(lp4165
I3093
asS'Heretics of Dune (Dune Chronicles #5)'
p4166
(lp4167
I117
asS'Enthusiasm and Divine Madness'
p4168
(lp4169
I1337
asS'Language, Sexuality, Narrative: The Oresteia'
p4170
(lp4171
I1799
asS'The Confusion (The Baroque Cycle, #2)'
p4172
(lp4173
I822
asS'Memoria de mis putas tristes'
p4174
(lp4175
I766
asS"Vicksburg's Long Shadow: The Civil War Legacy of Race and Remembrance"
p4176
(lp4177
I206
asS'The Power of One (The Power of One, #1)'
p4178
(lp4179
I122
asS'Sophocles 1: Ajax/Women of Trachis/Electra/Philoctetes'
p4180
(lp4181
I1557
asS'Willem de Kooning: Late Paintings'
p4182
(lp4183
I2560
asS'Rose in Bloom'
p4184
(lp4185
I2990
asS'The Gospel According to Jesus Christ'
p4186
(lp4187
I2527
asS"Plato's Rhapsody and Homer's Music: The Poetics of the Panathenaic Festival in Classical Athens"
p4188
(lp4189
I1798
asS'Vice Cream: Over 70 Sinfully Delicious Dairy-Free Delights'
p4190
(lp4191
I617
asS'CSS Cookbook'
p4192
(lp4193
I859
asS'Skeptic in the House of God'
p4194
(lp4195
I3999
asS'In Search of Moby Dick: Quest for the White Whale'
p4196
(lp4197
I2395
asS"Ruby Ann's Down Home Trailer Park BBQin' Cookbook"
p4198
(lp4199
I144
asS'Adjusting Sights'
p4200
(lp4201
I1663
asS'The River'
p4202
(lp4203
I3798
asS'The Portrait of a Lady (The Classic Collection)'
p4204
(lp4205
I266
asS"On the Watershed: The Natural World of New York's Catskill Mountain Region (Bright Hill Press Word Thursdays Anthology Series) (Bright Hill Press Word Thursdays Anthology Series.)"
p4206
(lp4207
I3792
asS'How to Cook Everything: Easy Weekend Cooking'
p4208
(lp4209
I2605
asS'Storage Networking Essentials: A Complete Guide to Understanding & Implementing Sans'
p4210
(lp4211
I548
asS'Ghostly Tales (Portraits of Little Women)'
p4212
(lp4213
I1943
asS'Perfume Dreams: Reflections on the Vietnamese Diaspora'
p4214
(lp4215
I341
asS'For the New Intellectual: The Philosophy of Ayn Rand'
p4216
(lp4217
I663
asS'Nickel and Dimed: On (Not) Getting by in America'
p4218
(lp4219
I1873
asS"Hatchet (Brian's Saga, #1)"
p4220
(lp4221
I50
asS'Moonraker (James Bond #3)'
p4222
(lp4223
I3755
asS'Gita on the Green'
p4224
(lp4225
I1320
asS'Chandler: Later Novels and Other Writings'
p4226
(lp4227
I2045
asS'J.R.R. Tolkien 4-Book Boxed Set: The Hobbit and The Lord of the Rings'
p4228
(lp4229
I30
asS'Georgia of the Jungle'
p4230
(lp4231
I3233
asS'Portrait of a Lady'
p4232
(lp4233
I272
asS'First Drop (Charlie Fox Thriller, #4)'
p4234
(lp4235
I3523
asS'The Heart of the Matter'
p4236
(lp4237
I3692
asS'Shibumi and the Kitemaker'
p4238
(lp4239
I1060
asS'Purpose Driven Life - For Commuters: What on Earth Am I Here For?'
p4240
(lp4241
I1090
asS'Thy Will Be Done: The Conquest of the Amazon : Nelson Rockefeller and Evangelism in the Age of Oil'
p4242
(lp4243
I2075
asS'The Troublesome Offspring of Cardinal Guzman'
p4244
(lp4245
I3400
asS"Gentleman's Guide to Grooming and Style"
p4246
(lp4247
I1209
asS'The Automatic Millionaire Homeowner: A Powerful Plan to Finish Rich in Real Estate'
p4248
(lp4249
I622
asS'Escape From Pompeii'
p4250
(lp4251
I889
asS'Member of the Club: Reflections on Life in a Racially Polarized World'
p4252
(lp4253
I3411
asS'Bleach, Volume 01'
p4254
(lp4255
I2880
asS'Emergence: The Connected Lives of Ants, Brains, Cities, and Software'
p4256
(lp4257
I2296
asS"The Secret Garden Cookbook: Recipes Inspired by Frances Hodgson Burnett's THE SECRET GARDEN"
p4258
(lp4259
I3014
asS'Le Code Enigma (Cryptonomicon, #1)'
p4260
(lp4261
I817
asS"The Heroes of Shakespeare's Tragedies"
p4262
(lp4263
I1779
asS'A Clean Kill in Tokyo (John Rain, #1)'
p4264
(lp4265
I925
asS'Hard Rain'
p4266
(lp4267
I918
asS'Freud'
p4268
(lp4269
I2091
asS'The Emergence of Everything: How the World Became Complex'
p4270
(lp4271
I2301
asS'Lectures on Don Quixote'
p4272
(lp4273
I3841
asS'My Inventions'
p4274
(lp4275
I493
asS'Long Goodbye'
p4276
(lp4277
I2055
asS'City of the Beasts (Eagle and Jaguar, #1)'
p4278
(lp4279
I3304
asS'The Long Tail: Why the Future of Business is Selling Less of More'
p4280
(lp4281
I2574
asS'Hamlet (The Pelican Shakespeare)'
p4282
(lp4283
I1433
asS'If You Lived 100 Years Ago'
p4284
(lp4285
I314
asS'Men are from Mars, Women are from Venus: AND How to Get What You Want in Your Relationships: A Practical Guide for Improving Communication and Getting ... Want in Your Relationships (French Edition)'
p4286
(lp4287
I1277
asS'The Lost Journals of Nikola Tesla: HAARP - Chemtrails and the Secret of Alternative 4'
p4288
(lp4289
I496
asS'Tibullus: A Commentary'
p4290
(lp4291
I1744
asS'Worlds Beyond Dune Box'
p4292
(lp4293
I115
asS'A Mouth Like Yours'
p4294
(lp4295
I2192
asS'Louisa May Alcott (Biography (a & E))'
p4296
(lp4297
I2992
asS'Tolstoy: Anna Karenina'
p4298
(lp4299
I160
asS'Left-Hand Guitar Chord Chart'
p4300
(lp4301
I747
asS'Confessions of an Economic Hit Man'
p4302
(lp4303
I2159
asS'Dancing Shoes (Shoes, #9)'
p4304
(lp4305
I3783
asS'The Letters of John and Abigail Adams'
p4306
(lp4307
I2205
asS'Drina Dances In New York (Drina, #6)'
p4308
(lp4309
I3151
asS'A Modest Proposal and Other Satirical Works'
p4310
(lp4311
I2677
asS'The Phantom Tollbooth'
p4312
(lp4313
I378
asS'A Wrinkle in Time: A Guide for Using "A Wrinkle in Time" in the Classroom'
p4314
(lp4315
I177
asS"Liar's Poker"
p4316
(lp4317
I1171
asS"Cliffs Notes on Hemingway's The Old Man and the Sea"
p4318
(lp4319
I2167
asS'The Tenth Man: The Great Joke (Which Made Lazarus Laugh)'
p4320
(lp4321
I3706
asS'Charlotte Sometimes'
p4322
(lp4323
I3739
asS'The AutoCAD 3D Book'
p4324
(lp4325
I1766
asS'The Salmon Of Doubt'
p4326
(lp4327
I376
asS'Elizabeth and Her German Garden'
p4328
(lp4329
I3080
asS'A Home at the End of the World'
p4330
(lp4331
I2137
asS'Willem de Kooning: Paintings 1960-1980'
p4332
(lp4333
I2558
asS'Democracy'
p4334
(lp4335
I425
asS'An Edward Lear Alphabet'
p4336
(lp4337
I239
asS'Pandering'
p4338
(lp4339
I87
asS'Moby Dick (Spark Notes Literature Guide)'
p4340
(lp4341
I2394
asS'The Door Into Summer'
p4342
(lp4343
I348
asS'The Lazarus Effect (The Pandora Sequence, #2)'
p4344
(lp4345
I2014
asS'Emergence'
p4346
(lp4347
I2300
asS'The Changeling Sea'
p4348
(lp4349
I59
asS'All Families are Psychotic'
p4350
(lp4351
I3379
asS'Risotto: 30 Simply Delicious Vegetarian Recipes from an Italian Kitchen'
p4352
(lp4353
I1188
asS'The Power of One: The Solo Play for Playwrights, Actors, and Directors'
p4354
(lp4355
I131
asS'Miami'
p4356
(lp4357
I427
asS'Mandie and the Long Goodbye (Mandie Books, 30)'
p4358
(lp4359
I2060
asS'The Execution of Sherlock Holmes: And Other New Adventures of the Great Detective (Sherlock Holmes, #3)'
p4360
(lp4361
I3594
asS'Murder at Union Station (Capital Crimes, #20)'
p4362
(lp4363
I2293
asS'Memories of My Melancholy Whores'
p4364
(lp4365
I760
asS'The First Stage Guitar Chord Chart: Learn How to Play the Most Commonly Played Guitar Chords!'
p4366
(lp4367
I735
asS"Dave's Way"
p4368
(lp4369
I2008
asS'Workers, Neighbors, and Citizens: The Revolution in Mexico City'
p4370
(lp4371
I2084
asS'Haunted Places in America: A Guide to Spooked and Spooky Public Places in the United States'
p4372
(lp4373
I257
asS'The Nature of Space and Time'
p4374
(lp4375
I2103
asS'The Fantastic Inventions of Nikola Tesla'
p4376
(lp4377
I492
asS'The Bible According to Mark Twain'
p4378
(lp4379
I2969
asS'Zen and the Art of Motorcycle Maintenance: An Inquiry Into Values'
p4380
(lp4381
I629
asS"I Ain't Scared of You: Bernie Mac on How Life Is"
p4382
(lp4383
I1043
asS'The Time Machine'
p4384
(lp4385
I2493
asS'Marigold Beach'
p4386
(lp4387
I3547
asS'Graphic Design: A History'
p4388
(lp4389
I2777
asS'The Prostitute in the Family Tree'
p4390
(lp4391
I2325
asS'The Rock That Is Higher: Story as Truth'
p4392
(lp4393
I2814
asS'The Boy of Steel: A Baseball Dream Come True'
p4394
(lp4395
I2746
asS'How to Paint Your Motorcycle'
p4396
(lp4397
I636
asS'David Copperfield'
p4398
(lp4399
I1985
asS'Once Again for Thucydides'
p4400
(lp4401
I1453
asS'The Complete Poetry and Prose of Geoffrey Chaucer'
p4402
(lp4403
I2712
asS'Hypercapitalism: New Media, Language, and Social Perceptions of Value'
p4404
(lp4405
I2758
asS'Eleven Minutes'
p4406
(lp4407
I1430
asS'Bleak House'
p4408
(lp4409
I1984
asS'Complete Works of William Shakespeare'
p4410
(lp4411
I1418
asS'A Changeling for All Seasons'
p4412
(lp4413
I57
asS'The Long Goodbye'
p4414
(lp4415
I2054
asS'Black Holes, Wormholes and Time Machines'
p4416
(lp4417
I2497
asS"Frommer's Maui 2005"
p4418
(lp4419
I3272
asS"No Ordinary Moments: A Peaceful Warrior's Guide to Daily Life"
p4420
(lp4421
I2262
asS'Brokeback Mountain'
p4422
(lp4423
I1627
asS'Noise'
p4424
(lp4425
I851
asS'Babrius and Phaedrus (Loeb Classical Library #436)'
p4426
(lp4427
I1331
asS'Titanium eBay: A Tactical Guide to Becoming a Millionaire PowerSeller'
p4428
(lp4429
I136
asS'Relationships for Dummies'
p4430
(lp4431
I2213
asS"Guns, Germs, and Steel (SparkNotes B&N Reader's Companion)"
p4432
(lp4433
I1840
asS'Privileged Son: Otis Chandler And The Rise And Fall Of The L.a. Times Dynasty'
p4434
(lp4435
I3016
asS'De Kooning: An American Master'
p4436
(lp4437
I2557
asS"Across the River: Walter & Oliver's Amazing Adventure"
p4438
(lp4439
I3990
asS'Earlier Writings (Library of Christian Classics)'
p4440
(lp4441
I1699
asS'The Complete Stories'
p4442
(lp4443
I3067
asS'The Great Gilly Hopkins'
p4444
(lp4445
I2846
asS'World History in Brief, Volume II (Chapters 14-33)'
p4446
(lp4447
I3458
asS'Open City (Issue #12)'
p4448
(lp4449
I1822
asS'Statesman'
p4450
(lp4451
I1351
asS'The Mediterranean Pantry: Creating and Using Condiments and Seasonings'
p4452
(lp4453
I2360
asS'Aglaia Konrad: Elasticity'
p4454
(lp4455
I2364
asS'The Love Artist'
p4456
(lp4457
I2891
asS'Sherlock Holmes: The Complete Novels and Stories, Volume I'
p4458
(lp4459
I3581
asS"L'affaire Toutankhamon"
p4460
(lp4461
I3880
asS'A Prayerbook for Spiritual Friends'
p4462
(lp4463
I2818
asS'Trek: David Carson, Recent Werk'
p4464
(lp4465
I691
asS'Democracy in America'
p4466
(lp4467
I705
asS'J.K.Lasser Pro Real Estate Investment Trusts: New Strategies for Portfolio Management'
p4468
(lp4469
I1288
asS'Daniel Defoe: Master of Fictions: His Life and Ideas'
p4470
(lp4471
I2946
asS'The 21 Irrefutable Laws Of Leadership, Workbook'
p4472
(lp4473
I1248
asS'Drina Dances in Madeira (Drina, #8)'
p4474
(lp4475
I3156
asS'Dragonball Z: An Unauthorized Guide'
p4476
(lp4477
I3926
asS'Flaubert: A Biography'
p4478
(lp4479
I2174
asS'Web Bloopers: 60 Common Web Design Mistakes And How To Avoid Them (Morgan Kaufmann Series In Interactive Technologies)'
p4480
(lp4481
I3386
asS'Grand Valley Dani: Peaceful Warriors'
p4482
(lp4483
I2261
asS'The Third Man & The Fallen Idol'
p4484
(lp4485
I3705
asS'Oedipus Tyrannus: Tragic Heroism and the Limits of Knowledge'
p4486
(lp4487
I1751
asS"Taunton's Home Storage Idea Book"
p4488
(lp4489
I547
asS'The Comedians'
p4490
(lp4491
I3689
asS'Theater Shoes (Shoes, #4)'
p4492
(lp4493
I3782
asS'Political Philosophy and Rhetoric: A Study of the Origins of American Party Politics'
p4494
(lp4495
I1610
asS'The Adventures of Huckleberry Finn'
p4496
(lp4497
I2948
asS"Cliffs Notes on Homer's The Odyssey"
p4498
(lp4499
I1386
asS'The Complete Verse and Other Nonsense'
p4500
(lp4501
I234
asS'The Owl and the Pussycat'
p4502
(lp4503
I242
asS'Why Is Sex Fun? The Evolution of Human Sexuality (Science Masters)'
p4504
(lp4505
I1991
asS'The Emergence of Sociological Theory'
p4506
(lp4507
I2302
asS'Phaedrus (Large Print)'
p4508
(lp4509
I3166
asS'Alex & Penny Ballooning over Italy'
p4510
(lp4511
I1195
asS'The Power of One: Daisy Bates and the Little Rock Nine'
p4512
(lp4513
I125
asS"Auggie Wren's Christmas Story"
p4514
(lp4515
I457
asS'Cratylus'
p4516
(lp4517
I1352
asS'Time for the Stars'
p4518
(lp4519
I356
asS'Atlas Shrugged & The Fountainhead'
p4520
(lp4521
I2115
asS'The Political Writings of St. Augustine'
p4522
(lp4523
I1692
asS'Bringing Up Boys'
p4524
(lp4525
I2739
asS'Hatchet: A Guide for Using "Hatchet" in the Classroom'
p4526
(lp4527
I51
asS'Beyond Silence and Denial'
p4528
(lp4529
I2762
asS'The Importance of What We Care about: Philosophical Essays'
p4530
(lp4531
I3496
asS'The Ayn Rand Lexicon: Objectivism from A to Z (Ayn Rand Library)'
p4532
(lp4533
I1980
asS'The Portable Chaucer'
p4534
(lp4535
I2713
asS'Aristophanes 2: Wasps/Lysistrata/Frogs/The Sexual Congress'
p4536
(lp4537
I1580
asS'Willem De Kooning: Reflections in the Studio'
p4538
(lp4539
I2562
asS"Sun Tzu's the Art of War Plus Warrior Marketing: Strategy for Market Positioning"
p4540
(lp4541
I2591
asS'Rumer Godden'
p4542
(lp4543
I3803
asS'The Long Secret (Harriet the Spy #2)'
p4544
(lp4545
I3742
asS'Short Epics'
p4546
(lp4547
I1735
asS'Das Kaiserreich in Zeitromanen Von Hedwig Dohm Und Elizabeth Von Arnim'
p4548
(lp4549
I3081
asS'Singers, Heroes, and Gods in the Odyssey: Life in a Modern Matriarchy'
p4550
(lp4551
I1748
asS'Cinnamon and Roses (Rose Trilogy, #1)'
p4552
(lp4553
I95
asS'Men are From Mars, Women are From Venus Low Price CD'
p4554
(lp4555
I1281
asS'Five Love Languages Journal: How To Express Heartfelt Commitment To Your Mate'
p4556
(lp4557
I957
asS'Empress in the Wrinkle of Time: The Knight-King Chronicle'
p4558
(lp4559
I184
asS'The Complete Sailor: Learning the Art of Sailing'
p4560
(lp4561
I673
asS"Hamlet's Mill: An Essay Investigating  the Origins of Human Knowledge & Its Transmission Through Myth"
p4562
(lp4563
I1439
asS'The Black Mass of Brother Springer'
p4564
(lp4565
I224
asS'Life and Def: Sex, Drugs, Money, + God'
p4566
(lp4567
I605
asS'Otis Redding: Try a Little Tenderness'
p4568
(lp4569
I3407
asS'The New York Trilogy'
p4570
(lp4571
I431
asS'The Poems of Exile: Tristia and the Black Sea Letters'
p4572
(lp4573
I1728
asS'The Automatic Millionaire Workbook'
p4574
(lp4575
I627
asS"The Beginner's Guide to Real Estate Investing"
p4576
(lp4577
I1047
asS'True Tales of American Life'
p4578
(lp4579
I451
asS'A War Like No Other: How the Athenians & Spartans Fought the Peloponnesian War'
p4580
(lp4581
I531
asS'Freakonomics  - O Estranho Mundo da Economia'
p4582
(lp4583
I1207
asS'Naomi Klein y el fin de las marcas (Intelectuales)'
p4584
(lp4585
I3617
asS'Stranger Than Fiction: True Stories'
p4586
(lp4587
I3718
asS"Herman Melville's Moby-Dick: A Routledge Study Guide and Sourcebook"
p4588
(lp4589
I2400
asS'The Guitar Three-Chord Songbook: Play 50 Rock Hits with Only 3 Easy Chords'
p4590
(lp4591
I743
asS'Trojan Women/Iphigenia Among the Taurians/Ion'
p4592
(lp4593
I1509
asS'How to Restore Your Motorcycle'
p4594
(lp4595
I637
asS'The Bridge over the Drina'
p4596
(lp4597
I3142
asS'Hooking Up'
p4598
(lp4599
I2664
asS'A Wrinkle in Time (A Wrinkle in Time Quintet, #1)'
p4600
(lp4601
I190
asS'Casino Royale (James Bond, #1)'
p4602
(lp4603
I3758
asS'Wrinkles in Time'
p4604
(lp4605
I180
asS'Praise of Folly'
p4606
(lp4607
I2636
asS'Big Sur'
p4608
(lp4609
I3772
asS'The Tipping Point: How Little Things Can Make a Big Difference'
p4610
(lp4611
I2612
asS"Aesop's Human Zoo: Roman Stories about Our Bodies"
p4612
(lp4613
I3169
asS'Heidi'
p4614
(lp4615
I84
asS'Boys of Summer'
p4616
(lp4617
I511
asS"Golding's Lord of the Flies (Cliffs Notes)"
p4618
(lp4619
I523
asS'Guns, Germs and Steel: The Fates of Human Societies'
p4620
(lp4621
I1839
asS'Harry Potter and the Goblet of Fire (Harry Potter, #4)'
p4622
(lp4623
I6
asS'Four Plays: Medea / Hippolytus / Heracles / Bacchae'
p4624
(lp4625
I1477
asS"Listening to the Cicadas: A Study of Plato's Phaedrus"
p4626
(lp4627
I1335
asS'Dreamer of Dune: The Biography of Frank Herbert'
p4628
(lp4629
I107
asS'The Curious Incident of the Dog in the Night-Time'
p4630
(lp4631
I1618
asS'Minds, Brains and Science'
p4632
(lp4633
I3282
asS"Gentleman's GD.to Etiquette"
p4634
(lp4635
I1213
asS'Chuva Forte'
p4636
(lp4637
I1225
asS'London is the Best City in America'
p4638
(lp4639
I3921
asS'Sweet Dreams: Philosophical Obstacles to a Science of Consciousness'
p4640
(lp4641
I2070
asS'La sombra del viento (El cementerio de los libros olvidados, #1)'
p4642
(lp4643
I1235
asS'Thomas Cole (Famous Artists Series)'
p4644
(lp4645
I1597
asS'Ruby Quickly: Ruby and Rails for the Real World'
p4646
(lp4647
I46
asS'In a Sunburned Country'
p4648
(lp4649
I24
asS'The Leadership Pipeline: How to Build the Leadership-Powered Company'
p4650
(lp4651
I1254
asS"Christopher Davis's Best Year Yet: Hyperion Chapters; Grade 3"
p4652
(lp4653
I3945
asS'Anthem'
p4654
(lp4655
I667
asS'Collected Papers in Greek and Georgian Textual Criticism'
p4656
(lp4657
I3228
asS'Lord of the Flies Activity Pack'
p4658
(lp4659
I529
asS'Web-Based Instruction: A Guide for Libraries'
p4660
(lp4661
I1859
asS'Pompeii: Public and Private Life'
p4662
(lp4663
I887
asS"Green Shadows, White Whale: A Novel of Ray Bradbury's Adventures Making Moby Dick with John Huston in Ireland"
p4664
(lp4665
I2402
asS'The Illustrated Alchemist: A Fable about Following Your Dream'
p4666
(lp4667
I872
asS'The Eleventh Hour: A Curious Mystery'
p4668
(lp4669
I2129
asS'Birds Without Wings - Unabridged'
p4670
(lp4671
I3395
asS'New York Dreams (Virex Trilogy, #3)'
p4672
(lp4673
I439
asS'The Ultimate Guitar Chord Big Book: Over 100,000 Chords!'
p4674
(lp4675
I729
asS"CliffsNotes on Guterson's Snow Falling on Cedars"
p4676
(lp4677
I2736
asS'Theatre, a Way of Seeing: A Way of Seeing'
p4678
(lp4679
I2789
asS'A History of God: The 4,000-Year Quest of Judaism, Christianity, and Islam'
p4680
(lp4681
I3873
asS'April, May und June'
p4682
(lp4683
I3084
asS'White Swan, Black Swan'
p4684
(lp4685
I3480
asS'Sun Tzu Was a Sissy: Conquer Your Enemies, Promote Your Friends, and Wage the Real Art of War'
p4686
(lp4687
I2588
asS"My Boys Can Swim!: The Official Guy's Guide to Pregnancy"
p4688
(lp4689
I2742
asS'On Love: Lysis/Symposium/Phaedrus/Alcibiades/Selections from Republic & Laws'
p4690
(lp4691
I1338
asS'The Canterbury Tales in Modern Verse'
p4692
(lp4693
I2699
asS'The Mask of Comedy: Class, Gender, and Resistance'
p4694
(lp4695
I2023
asS'The Hours'
p4696
(lp4697
I2125
asS'The Modern Prince: Charles J. Haughey and the Quest for Power'
p4698
(lp4699
I3554
asS'Small Vices (Spenser, #24)'
p4700
(lp4701
I620
asS'Secret Garden'
p4702
(lp4703
I3002
asS'The Judge (Paul Madriani, #4)'
p4704
(lp4705
I2431
asS'Drina Goes on Tour (Drina, #10)'
p4706
(lp4707
I3155
asS"A Wrinkle in Time by Madeleine L'Engle: Study Guide"
p4708
(lp4709
I178
asS'The War of the Worlds'
p4710
(lp4711
I2509
asS'Complete Stories, 1892-1898'
p4712
(lp4713
I2692
asS'The Best of the Achaeans: Concepts of the Hero in Archaic Greek Poetry'
p4714
(lp4715
I1785
asS'Creative Sparks: An Index of 150+ Concepts, Images and Exercises to Ignite Your Design Ingenuity'
p4716
(lp4717
I3474
asS'Simple Handmade Storage: 23 Step-By-Step Weekend Projects'
p4718
(lp4719
I551
asS'On, Off (Carmine Delmonico, #1)'
p4720
(lp4721
I3418
asS'Great Short Works of Herman Melville'
p4722
(lp4723
I3731
asS'Richest Man In Babylon For Today'
p4724
(lp4725
I1054
asS'The Poems of Herman Melville'
p4726
(lp4727
I3735
asS'The Fifth Mountain'
p4728
(lp4729
I1429
asS'Formas breves'
p4730
(lp4731
I1642
asS"The Complete Idiot's Guide to Motorcycles"
p4732
(lp4733
I633
asS'The Acharnians/The Clouds/The Knights/The Wasps'
p4734
(lp4735
I3249
asS"A Don't Sweat the Small Stuff Treasury: A Special Selection for Mothers"
p4736
(lp4737
I3959
asS'Orestes and Other Plays'
p4738
(lp4739
I1489
asS'Death of an Expert Witness (Adam Dalgliesh #6)'
p4740
(lp4741
I3828
asS'History in the Making: An Absorbing Look at How American History Has Changed in the Telling over the Last 200 Years'
p4742
(lp4743
I3868
asS'Been Down So Long it Looks Like Up to Me'
p4744
(lp4745
I418
asS"Stephen Hawking's Universe"
p4746
(lp4747
I2102
asS"The Hit Man's Dilemma: Or Business, Personal and Impersonal"
p4748
(lp4749
I2164
asS"Ruby's Low-Fat Soul Food Cookbook"
p4750
(lp4751
I146
asS'A. D. 62: Pompeii'
p4752
(lp4753
I885
asS"Jon Krakauer's Adventure on Mt. Everest"
p4754
(lp4755
I1900
asS'Women of Troy'
p4756
(lp4757
I3260
asS'Theocritus: Select Poems: Select Poems'
p4758
(lp4759
I2452
asS"The Art of War: Sun Tzu's Classis in Plain English with Sun Pin's: The Art of Warfare"
p4760
(lp4761
I2587
asS"A Psychonaut's Guide to the Invisible Landscape: The Topography of the Psychedelic Experience"
p4762
(lp4763
I1816
asS'Anne of the Island'
p4764
(lp4765
I3573
asS'Tropic of Cancer'
p4766
(lp4767
I249
asS'The Articulate Executive: Learn to Look, ACT, and Sound Like a Leader'
p4768
(lp4769
I3306
asS'Euripides: Helen, Phoenician Women, Orestes'
p4770
(lp4771
I1510
asS'Howards End'
p4772
(lp4773
I3102
asS"Mark Twain's Helpful Hints for Good Living: A Handbook for the Damned Human Race"
p4774
(lp4775
I2967
asS'The Red Hot Cookbook: Create a Culinary Inferno with Flaming Good Recipes from Around the World'
p4776
(lp4777
I149
asS'Tai Chi Chuan: Aplicaciones Marciales:  Estilo Yang Avanzado De Tai Chi Chuan'
p4778
(lp4779
I2240
asS'The Long Shadow (The Morland Dynasty, #6)'
p4780
(lp4781
I204
asS"Don DeLillo's White Noise (Bloom's Modern Critical Interpretations)"
p4782
(lp4783
I401
asS'American Government; Continuity and Change'
p4784
(lp4785
I1659
asS'The Mini Rough Guide to London'
p4786
(lp4787
I787
asS"Lincoln's Gettysburg Address in Translation"
p4788
(lp4789
I395
asS'Aristophanes 1: Clouds/Wasps/Birds'
p4790
(lp4791
I1566
asS'O Holy Cow!: The Selected Verse'
p4792
(lp4793
I3860
asS'The Wonder of Boys: What Parents, Mentors and Educators Can Do to Shape Boys into Exceptional Men'
p4794
(lp4795
I2747
asS'An Art of Desire: Reading Paul Auster'
p4796
(lp4797
I468
asS'The House of God'
p4798
(lp4799
I3995
asS'Open City 6: The Only Woman He Ever Left'
p4800
(lp4801
I3351
asS"Captain Corelli's Mandolin: The Illustrated Film Companion"
p4802
(lp4803
I3391
asS'The Fall of the Amazing Zalindas  (Sherlock Holmes and the Baker Street Irregulars #1)'
p4804
(lp4805
I3592
asS"A Don't Sweat the Small Stuff Treasury: A Special Collection for the Office"
p4806
(lp4807
I3947
asS"The Tragedy of Pudd'nhead Wilson/Those Extraordinary Twins"
p4808
(lp4809
I2834
asS"Les cinq personnes que j'ai rencontrees la-haut"
p4810
(lp4811
I3435
asS'Silver Lies (Silver Rush, #1)'
p4812
(lp4813
I3367
asS'The Oedipus Plays of Sophocles: Oedipus the King; Oedipus at Colonus; Antigone'
p4814
(lp4815
I1537
asS'Moby Dick (Graphic Classics)'
p4816
(lp4817
I2401
asS"Sophocles' Tragic World: Divinity, Nature, Society"
p4818
(lp4819
I1758
asS'The Whaleship Essex: The True Story of Moby Dick'
p4820
(lp4821
I2421
asS'Disney: The First 100 Years'
p4822
(lp4823
I319
asS'Gorgias and the New Sophistic Rhetoric'
p4824
(lp4825
I1360
asS"The Cod's Tale"
p4826
(lp4827
I3348
asS'Privileged Witness (Witness Series, #3)'
p4828
(lp4829
I3672
asS'Guitar Case Chord Book in Full Color - Compact Music Guides Series'
p4830
(lp4831
I722
asS'Lo Mejor De Ernesto Sabato'
p4832
(lp4833
I1669
asS'Love & Transformation: An Ovid Reader'
p4834
(lp4835
I1716
asS'Cod: A Biography of the Fish that Changed the World'
p4836
(lp4837
I3344
asS'Public Places-Urban Spaces: The Dimensions of Urban Design'
p4838
(lp4839
I255
asS'Cooking Without a Grain of Salt: Helpful Hints and Tasty Recipes for Creating Delicious Low Salt Meals for Your Whole Family'
p4840
(lp4841
I3339
asS'Seven Habits of Highly Effective People'
p4842
(lp4843
I2249
asS'The Lord of the Rings (The Lord of the Rings, #1-3)'
p4844
(lp4845
I31
asS"Public Places: My Life in the Theater, with Peter O'Toole and Beyond"
p4846
(lp4847
I258
asS'The Richest Man in Babylon: The Success Secrets of the Ancients'
p4848
(lp4849
I1056
asS'Sacred Journey of the Peaceful Warrior'
p4850
(lp4851
I2256
asS'Rudy! An Investigative Biography Of Rudolph Giuliani'
p4852
(lp4853
I1264
asS'Men Are From Mars, Women Are From Venus: A Practical Guide For Improving Communication and Getting What You Want'
p4854
(lp4855
I1280
asS'A Room with a View'
p4856
(lp4857
I3087
asS'Children of Heracles. Hippolytus. Andromache. Hecuba'
p4858
(lp4859
I1491
asS'How Invention Begins: Echoes of Old Voices in the Rise of New Machines'
p4860
(lp4861
I503
asS'Moby Dick: Library Edition'
p4862
(lp4863
I2398
asS'Ilium (Ilium, #1)'
p4864
(lp4865
I3973
asS'The Three Theban Plays: Antigone / Oedipus the King / Oedipus at Colonus'
p4866
(lp4867
I1542
asS'A Storm Without Rain: A Novel in Time'
p4868
(lp4869
I990
asS'Jazz Guitar Chord Solos'
p4870
(lp4871
I727
asS'Snow Crash: The Official Strategy Guide'
p4872
(lp4873
I832
asS'The Adventures of Huckleberry Finn (Classic Collection)'
p4874
(lp4875
I2957
asS'Parmenides/Philebus/Symposium/Phaedrus/Alcibiades 1-2/Hipparchus/Amatores (Platonis Opera, #2)'
p4876
(lp4877
I1332
asS"Death and the King's Horseman"
p4878
(lp4879
I2486
asS'The Curious Incident of the Dog In the Night-time'
p4880
(lp4881
I3438
asS"The Creative Myth and the Cosmic Hero: Text and Context in Ernest Becker's the Denial of Death"
p4882
(lp4883
I2766
asS"Don't Despair on Thursdays!: The Children's Grief-Management Book"
p4884
(lp4885
I3790
asS'The Simple Art of Murder'
p4886
(lp4887
I2051
asS'The Nuclear Age'
p4888
(lp4889
I3449
asS'The Mouse and the Motorcycle (Read-Aloud Edition)'
p4890
(lp4891
I630
asS"Liar's Poker: A Harry Garnish Mystery"
p4892
(lp4893
I1177
asS"Jim Cramer's Mad Money: Watch TV, Get Rich"
p4894
(lp4895
I909
asS'El Coleccionista De Huesos (Lincoln Rhyme, #1)'
p4896
(lp4897
I2378
asS'The Power Broker: Robert Moses and the Fall of New York'
p4898
(lp4899
I1111
asS'Memorial del Convento'
p4900
(lp4901
I2532
asS'The Last Dance: Encountering Death and Dying'
p4902
(lp4903
I2228
asS'Gorgias/Timaeus'
p4904
(lp4905
I3231
asS'Of Mice and Men'
p4906
(lp4907
I890
asS'Una semana de invierno'
p4908
(lp4909
I878
asS'The Lord of the Rings: Weapons and Warfare'
p4910
(lp4911
I36
asS'The Third Chimpanzee: The Evolution & Future of the Human Animal'
p4912
(lp4913
I1993
asS'Moby Dick: or The White Whale (Oxford Illustrated Classics)'
p4914
(lp4915
I2404
asS'El plan infinito'
p4916
(lp4917
I3302
asS"Jane Austen's Letters"
p4918
(lp4919
I2155
asS'Dientes blancos'
p4920
(lp4921
I3713
asS'Walk Fast, Talk Loud and Smile: How to Succeed in Sales and Have Fun Doing It'
p4922
(lp4923
I3410
asS'Orient Express'
p4924
(lp4925
I3693
asS'Alcestis'
p4926
(lp4927
I1494
asS"The Complete Idiot's Guide to Getting Things Done"
p4928
(lp4929
I1636
asS"Betty Crocker's Picture Cookbook, Facsimile Edition"
p4930
(lp4931
I3896
asS'Fats That Heal, Fats That Kill'
p4932
(lp4933
I2648
asS'Hatchet Jobs: Writings on Contemporary Fiction'
p4934
(lp4935
I55
asS'Country Living Stylish Storage: Simple Ways to Contain Your Clutter'
p4936
(lp4937
I550
asS"A Don't Sweat the Small Stuff Treasury: A Special Selection for Teachers"
p4938
(lp4939
I3949
asS'Essence and Alchemy: A Book of Perfume'
p4940
(lp4941
I342
asS'Fast Food Nation: What The All-American Meal is Doing to the World'
p4942
(lp4943
I1099
asS'Aeschylus II: The Suppliant Maidens, The Persians, Seven against Thebes, and Prometheus Bound (The Complete Greek Tragedies)'
p4944
(lp4945
I1517
asS'Electronic Structure: Basic Theory and Practical Methods'
p4946
(lp4947
I1769
asS'The Big Sleep'
p4948
(lp4949
I2052
asS'A Catholic Perspective on the Purpose Driven Life'
p4950
(lp4951
I1095
asS'Der Sturz von Hyperion'
p4952
(lp4953
I3965
asS'Miami Blues'
p4954
(lp4955
I216
asS'The Golden Tulip'
p4956
(lp4957
I2868
asS'The Quiet American'
p4958
(lp4959
I3698
asS'Warrior of the Light'
p4960
(lp4961
I1426
asS'Jazz Guitar Chord Workout'
p4962
(lp4963
I736
asS'Scholar of Decay (Ravenloft, #14)'
p4964
(lp4965
I2860
asS'La Place de la Concorde Suisse'
p4966
(lp4967
I80
asS'A Modest Proposal (Literary Casebook Series)'
p4968
(lp4969
I2681
asS'Kindred Spirit: A Biography of L. M. Montgomery, Creator of Anne of Green Gables'
p4970
(lp4971
I3575
asS'The Exp 48 Laws of Power'
p4972
(lp4973
I1304
asS'Avalanche'
p4974
(lp4975
I1930
asS'The Secret Garden'
p4976
(lp4977
I2996
asS'Protagoras/Philebus/Gorgias'
p4978
(lp4979
I3205
asS'The History of the Lord of the Rings (The History of Middle-earth #6-9)'
p4980
(lp4981
I2329
asS'Leadership in Organizations'
p4982
(lp4983
I1255
asS"Don't Panic: Douglas Adams & The Hitchhiker's Guide to the Galaxy"
p4984
(lp4985
I3505
asS'The Road to Dune (Dune Universe)'
p4986
(lp4987
I110
asS'The Wish Giver: Three Tales of Coven Tree (Trophy Newbery)'
p4988
(lp4989
I3638
asS'Sex, Drugs, Gambling, and Chocolate: A Workbook for Overcoming Addictions'
p4990
(lp4991
I603
asS'The Gorgias of Plato'
p4992
(lp4993
I3212
asS'Madame Bovary'
p4994
(lp4995
I2175
asS'Dragonball Z: Extreme Glow-in-the-dark Sticker Activity'
p4996
(lp4997
I3924
asS'Ethnic Variations in Dying, Death and Grief: Diversity in Universality'
p4998
(lp4999
I2229
asS'The Bone Collector (Lincoln Rhyme, #1)'
p5000
(lp5001
I2373
asS'Literature Circle Guide: A Wrinkle in Time'
p5002
(lp5003
I182
asS'Girlfriend in a Coma'
p5004
(lp5005
I3384
asS'Bernie Mac'
p5006
(lp5007
I1045
asS'Them: Adventures with Extremists'
p5008
(lp5009
I1823
asS'Grief Lessons: Four Plays by Euripides'
p5010
(lp5011
I1466
asS"The Hitchhiker's Guide to the Galaxy: Quintessential Phase (Hitchhiker's Guide: Radio Play, #5)"
p5012
(lp5013
I19
asS'Aeschylus 2: The Persians/Seven Against Thebes/The Suppliants/Prometheus Bound'
p5014
(lp5015
I1531
asS'Guitar Chord Songbook: Classic Rock'
p5016
(lp5017
I750
asS'Freakonomics: A Rogue Economist Explores The Hidden Side Of Everything'
p5018
(lp5019
I1203
asS'Sherlock Holmes: The Unauthorized Biography'
p5020
(lp5021
I3587
asS"Our Kind of People: Inside America's Black Upper Class"
p5022
(lp5023
I3403
asS'Jane Austen: The Complete Novels'
p5024
(lp5025
I2151
asS'The Winning Investment Habits of Warren Buffett & George Soros'
p5026
(lp5027
I1142
asS'Ballet Shoes for Anna'
p5028
(lp5029
I3780
asS'Farm Crossing: The Amazing Adventures of Addie and Zachary'
p5030
(lp5031
I3993
asS'In an Uncertain World: Tough Choices from Wall Street to Washington'
p5032
(lp5033
I2982
asS'Angels and Demons in Art'
p5034
(lp5035
I963
asS'Ready for Anything: 52 Productivity Principles for Getting Things Done'
p5036
(lp5037
I2581
asS"Plato's Erotic Dialogues: Symposium/Phaedrus (Ancient Greek Philosophy)"
p5038
(lp5039
I1329
asS'The Virgilian Tradition: The First Fifteen Hundred Years'
p5040
(lp5041
I1742
asS'Daily Reflections For Highly Effective People : Living The 7 Habits Of Highly Successful People Every Day'
p5042
(lp5043
I2253
asS'The City of God'
p5044
(lp5045
I1684
asS'The Ravishing of Lol Stein'
p5046
(lp5047
I280
asS'Harriet the Spy, Double Agent (Harriet the Spy Adventures)'
p5048
(lp5049
I3744
asS'Farewell, My Lovely'
p5050
(lp5051
I2050
asS'The Gandhi Quartet'
p5052
(lp5053
I2238
asS'Letterhead and Logo Design 9'
p5054
(lp5055
I651
asS'The Practice of the Wild: Essays'
p5056
(lp5057
I1835
asS'La Caida de Hyperion'
p5058
(lp5059
I3971
asS'Witches Abroad (Discworld, #12; Witches #3)'
p5060
(lp5061
I2442
asS'The Good Earth (House of Earth, #1)'
p5062
(lp5063
I1078
asS'The History of Graphic Design'
p5064
(lp5065
I2776
asS'How to Cook Everything: The Basics: Simple Recipes Anyone Can Cook'
p5066
(lp5067
I2603
asS'Fullmetal Alchemist, Vol. 3 (Fullmetal Alchemist, #3)'
p5068
(lp5069
I868
asS'Teaching English Abroad'
p5070
(lp5071
I2445
asS'A Short History of Nearly Everything (Illustrated ed.)'
p5072
(lp5073
I3870
asS"Phil Gordon's Little Green Book: Lessons and Teachings in No Limit Texas Hold'em"
p5074
(lp5075
I3112
asS'Henry Miller on Writing'
p5076
(lp5077
I245
asS'Los Cinco Lenguajes Del Amor/the Five Languages of Love'
p5078
(lp5079
I959
asS'Rachael Ray 365: No Repeats: A Year of Deliciously Different Dinners'
p5080
(lp5081
I3882
asS"A Don't Sweat the Small Stuff Treasury: A Special Selection for Fathers"
p5082
(lp5083
I3956
asS'The Bacchae of Euripides: A New Translation with a Critical Essay'
p5084
(lp5085
I1514
asS'The Hyperion Omnibus: Hyperion / The Fall of Hyperion'
p5086
(lp5087
I3943
asS'The Call of the Wild'
p5088
(lp5089
I1852
asS'Teaching with the Brain in Mind'
p5090
(lp5091
I3280
asS'Think and Grow Rich: Instant Motivator'
p5092
(lp5093
I1013
asS'First Love, Last Rites'
p5094
(lp5095
I3526
asS'The Birds and Other Plays'
p5096
(lp5097
I1573
asS'Against the Day'
p5098
(lp5099
I409
asS'The Brooklyn Follies'
p5100
(lp5101
I446
asS'Huck Finn and Tom Sawyer Among the Indians'
p5102
(lp5103
I2952
asS'The Trojan Women and Hippolytus'
p5104
(lp5105
I1486
asS'Leadership and Self-Deception: Getting Out of the Box'
p5106
(lp5107
I1247
asS'The Effective Corrections Manager: Correctional Supervision for the Future'
p5108
(lp5109
I3811
asS'Where I Was From'
p5110
(lp5111
I423
asS'The Elegant Universe: Superstrings, Hidden Dimensions, and the Quest for the Ultimate Theory'
p5112
(lp5113
I771
asS'La Tierra es plana: Breve historia del mundo globalizado del siglo XXI'
p5114
(lp5115
I1914
asS'Growing Little Women: Capturing Teachable Moments with Your Daughter'
p5116
(lp5117
I1939
asS'John Adams'
p5118
(lp5119
I2203
asS'Americana'
p5120
(lp5121
I403
asS'The Way We Die Now'
p5122
(lp5123
I215
asS'What to Expect the First Year (What to Expect)'
p5124
(lp5125
I98
asS'The Untouchable'
p5126
(lp5127
I163
asS'A Walk to Remember'
p5128
(lp5129
I3473
asS'Thucydides Reader: Annotated Passages from Books I-VIII of the Histories'
p5130
(lp5131
I1443
asS'The Lord of the Rings- 3 volumes set (The Lord of the Rings, #1-3)'
p5132
(lp5133
I2331
asS'Writing'
p5134
(lp5135
I277
asS'Aristophanes: An Author for the Stage'
p5136
(lp5137
I2035
asS'Lucretius on Death and Anxiety: Poetry and Philosophy in de Rerum Natura'
p5138
(lp5139
I1754
asS'Rails Cookbook: Recipes for Rapid Web Development with Ruby'
p5140
(lp5141
I147
asS'Horace\'s "Carmen Saeculare": Ritual Magic and the Poet`s Art'
p5142
(lp5143
I1741
asS'The Mysteries of Sherlock Holmes (Illustrated Junior Library)'
p5144
(lp5145
I3595
asS'Le Mariage'
p5146
(lp5147
I3906
asS"Kierkegaard's Relations to Hegel Reconsidered"
p5148
(lp5149
I708
asS'The Business of Bullshit'
p5150
(lp5151
I388
asS'In the Shadow of the Wind'
p5152
(lp5153
I1236
asS'Personal Finance For Dummie$ For Canadians'
p5154
(lp5155
I3608
asS'How to Draw Dragonball'
p5156
(lp5157
I3927
asS'Sugarplums and Scandal'
p5158
(lp5159
I3479
asS'Blueberries for the Queen'
p5160
(lp5161
I2848
asS'The Fables of Phaedrus'
p5162
(lp5163
I1341
asS'Kinds Of Minds: The Origins Of Consciousness (SCIENCE MASTERS)'
p5164
(lp5165
I2076
asS'Comedy after Postmodernism: Rereading Comedy from Edward Lear to Charles Willeford'
p5166
(lp5167
I226
asS'The Wit and Wisdom of Mark Twain'
p5168
(lp5169
I2965
asS'Truth Decay: Defending Christianity Against the Challenges of Postmodernism'
p5170
(lp5171
I2854
asS'The Terror'
p5172
(lp5173
I3974
asS'The Interpreters'
p5174
(lp5175
I2568
asS'Leviathan'
p5176
(lp5177
I456
asS'Cyclops'
p5178
(lp5179
I1490
asS'American Government: Continuity and Change, Alternate Edition'
p5180
(lp5181
I1658
asS'Green Eggs and Ham Cookbook'
p5182
(lp5183
I3884
asS'A Wrinkle in Time: With Related Readings (A Wrinkle in Time Quintet #1)'
p5184
(lp5185
I181
asS'Keys to Investing in Real Estate'
p5186
(lp5187
I1231
asS"The Tutor's First Love"
p5188
(lp5189
I3531
asS'Ballet Shoes (Princess Poppy)'
p5190
(lp5191
I3781
asS'Selected Poems of Herman Melville'
p5192
(lp5193
I3732
asS'On the Beaten Path: An Appalachian Pilgrimage'
p5194
(lp5195
I2985
asS'The Changeling'
p5196
(lp5197
I61
asS'One Hundred Years of Solitude'
p5198
(lp5199
I320
asS'The Witches of Worm'
p5200
(lp5201
I2319
asS'Collected Stories, 1911-1937'
p5202
(lp5203
I2307
asS'The Wedding Clause'
p5204
(lp5205
I332
asS'Redburn'
p5206
(lp5207
I3736
asS'The Game: Penetrating the Secret Society of Pickup Artists'
p5208
(lp5209
I900
asS'New Hope for the Dead'
p5210
(lp5211
I213
asS'Tomcat in Love'
p5212
(lp5213
I3451
asS'Cambridge Wizard Student Guide The Curious Incident of the Dog in the Night Time (Cambridge Wizard English Student Guides)'
p5214
(lp5215
I3443
asS'The Iliad'
p5216
(lp5217
I1371
asS'The Virtue of Selfishness: A New Concept of Egoism'
p5218
(lp5219
I665
asS'Cindy macht ihren Weg'
p5220
(lp5221
I3153
asS'The Lost Boy (Dave Pelzer #2)'
p5222
(lp5223
I2743
asS'What If the Zebras Lost Their Stripes?'
p5224
(lp5225
I329
asS'The Lighthouse (Adam Dalgliesh #13)'
p5226
(lp5227
I3826
asS'Quiet Days in Clichy'
p5228
(lp5229
I247
asS'Murder at The Washington Tribune (Capital Crimes, #21)'
p5230
(lp5231
I2283
asS'La Dama y El Unicornio'
p5232
(lp5233
I2878
asS'Cuentos de Eva Luna'
p5234
(lp5235
I3292
asS"Ender's Game (Ender's Saga, #1)"
p5236
(lp5237
I901
asS"Today's Chicago Blues"
p5238
(lp5239
I2927
asS"Dionysiac Poetics and Euripides' -Bacchae-"
p5240
(lp5241
I1750
asS'Now Zen'
p5242
(lp5243
I783
asS'Vintage Didion'
p5244
(lp5245
I419
asS'Covenant with Black America'
p5246
(lp5247
I704
asS"Men: A User's Guide"
p5248
(lp5249
I3628
asS'In the Garden: Essays in Honor of Frances Hodgson Burnett'
p5250
(lp5251
I3010
asS'Hunters Of Dune (Dune Chronicles, #7)'
p5252
(lp5253
I661
asS"Virgil's Epic Designs: Ekphrasis in the Aeneid"
p5254
(lp5255
I1743
asS'Quicksilver (The Baroque Cycle, #1)'
p5256
(lp5257
I823
asS'From Russia With Love (James Bond, #5)'
p5258
(lp5259
I3764
asS'Point Deception (Cape Perdido, #1)'
p5260
(lp5261
I978
asS'Walk Gently This Good Earth'
p5262
(lp5263
I1086
asS'Homeric Questions'
p5264
(lp5265
I1786
asS"The Kids' Book about Death and Dying"
p5266
(lp5267
I2231
asS"Cliffs Notes on Stevenson's Treasure Island and Kidnapped"
p5268
(lp5269
I303
asS'A General History of the Pyrates'
p5270
(lp5271
I2942
asS'The Untouchables'
p5272
(lp5273
I164
asS"Real Estate Riches (Rich Dad's Advisors (Audio)) [ABRIDGED] (Rich Dad's Advisors (Audio))"
p5274
(lp5275
I1026
asS'HTML, XHTML, and CSS (Visual Quickstart Guide)'
p5276
(lp5277
I570
asS"A Well-Dressed Gentleman's Pocket Guide"
p5278
(lp5279
I1215
asS"Gentleman's Guide To Professional Appearance"
p5280
(lp5281
I1214
asS'Microserfs'
p5282
(lp5283
I2748
asS'Vance Packard & American Social Criticism'
p5284
(lp5285
I3729
asS'The Rescue (Kidnapped, #3)'
p5286
(lp5287
I3117
asS'Ants at Work: How an Insect Society is Organized'
p5288
(lp5289
I3139
asS"Four Comedies: Lysistrata / The Frogs / The Birds / Ladies' Day"
p5290
(lp5291
I1577
asS'Euripides: Iphigenia at Aulis (Companions to Greek & Roman Tragedy)'
p5292
(lp5293
I1511
asS"The Leader's Handbook: Making Things Happen, Getting Things Done"
p5294
(lp5295
I1639
as.