(dp1
I0
S'Holy Cow!'
p2
sI1
S'Red Dog'
p3
sI2
S'Nineveh and Its Remains, Volume 1'
p4
sI3
S'Aristophanes and Athens: An Introduction to the Plays'
p5
sI4
S'Hello, Lied the Agent: And Other Bullshit You Hear as a Hollywood TV Writer'
p6
sI5
S'Life of Pi'
p7
sI6
S'Head First HTML with CSS & XHTML'
p8
sI7
S'Men Are from Mars, Women Are from Venus: Secrets of Passion/Audio Cassette'
p9
sI8
S"An Artist's Way Of Seeing"
p10
sI9
S'A Wrinkle in Time: LitPlan Teacher Pack'
p11
sI10
S'City Eclogue'
p12
sI11
S'Small Gardens: How to Get the Most Impact from the Least Space'
p13
sI12
S'Sex in Middlesex: Popular Mores in a Massachusetts County, 1649-1699'
p14
sI13
S"Breakfast at Tiffany's: A Short Novel and Three Stories"
p15
sI14
S'The Bridge on the Drina'
p16
sI15
S'The No-Salt, Lowest-Sodium Cookbook: Hundreds of Favorite Recipes Created to Combat Congestive Heart Failure and Dangerous Hypertension'
p17
sI16
S'A People and a Nation: A History of the United States, Dolphin Edition - Complete'
p18
sI17
S'A Wrinkle in Time: Student Packet'
p19
sI18
S'Kahlil Gibran: His Life and World'
p20
sI19
S"Madeleine L'Engle: Author of a Wrinkle in Time (People in Focus)"
p21
sI20
S'The Canterbury Tales'
p22
sI21
S'Warren Buffett:: Master of the Market'
p23
sI22
S'The Complete Stories'
p24
sI23
S'The Advanced Guitar Case Chord Book: Compact Reference Library'
p25
sI24
S'The Languages of Native North America'
p26
sI25
S"I'm a Stranger Here Myself: Notes on Returning to America after Twenty Years Away"
p27
sI26
S'The Essential Cook: Everything You Really Need to Know about Foods and Cooking Except the Recipes'
p28
sI27
S'Clouds/Wasps/Peace'
p29
sI28
S'Way of the Peaceful Warrior: A Book That Changes Lives'
p30
sI29
S'From Java to Ruby'
p31
sI30
S'Red Hot Chili Peppers'
p32
sI31
S'The Book of Life: Ascension and the Divine World Order'
p33
sI32
S'The Dosadi Experiment (ConSentiency Universe, #2)'
p34
sI33
S'Peripheral (Post) Modernity: The Syncretist Aesthetics of Borges, Piglia, Kalokyris and Kyriakidis'
p35
sI34
S'The Path to Buddha: A Tibetan Pilgrimage'
p36
sI35
S'Transgender Emergence: Therapeutic Guidelines for Working with Gender-Variant People and Their Families'
p37
sI36
S"Your Baby's First Year for Dummies"
p38
sI37
S'Together Alone: Personal Relationships in Public Places'
p39
sI38
S'Against the Odds: Tales of Achievement'
p40
sI39
S'Greek Bucolic Poets: Theocritus. Bion. Moschus'
p41
sI40
S'The Oxford Shakespeare: The Complete Works'
p42
sI41
S'The Fountainhead: An American Novel'
p43
sI42
S'John Adams and the Spirit of Liberty'
p44
sI43
S'Principles of Virology: Molecular Biology, Pathogenesis, and Control'
p45
sI44
S'Memory of Fire (The World Gates, #1)'
p46
sI45
S'Classics: A Discipline and Profession in Crisis?'
p47
sI46
S"Not Your Mother's Slow Cooker Cookbook"
p48
sI47
S'Lincoln at Gettysburg: The Words That Remade America'
p49
sI48
S'Lovely in Her Bones (Elizabeth MacPherson, #2)'
p50
sI49
S'The Three Ways of Getting Things Done: Hierarchy, Heterarchy and Responsible Autonomy in Organizations'
p51
sI50
S'Introducing Mind & Brain'
p52
sI51
S'Gorgias'
p53
sI52
S'The Letters of J.R.R. Tolkien'
p54
sI53
S"Moonraker's Bride"
p55
sI54
S'An Original Sin'
p56
sI55
S'The Art of War by Sun Tzu - Special Edition'
p57
sI56
S'Wedding Wishes and Woes (The Story Girl #6)'
p58
sI57
S'Art Invention House'
p59
sI58
S'The Ghost Stories of Edith Wharton'
p60
sI59
S'Wire'
p61
sI60
S'The Alchemist'
p62
sI61
S'Off the Main Sequence: The Other Science Fiction Stories of Robert A. Heinlein'
p63
sI62
S'No Room for Francie'
p64
sI63
S'Oliver Twist'
p65
sI64
S'Middlesex'
p66
sI65
S'The Music of Chance'
p67
sI66
S'Ever Wonder Why? and Other Controversial Essays'
p68
sI67
S'Ovid\'s "Metamorphoses"'
p69
sI68
S'Logo Design Workbook: A Hands-On Guide to Creating Logos'
p70
sI69
S'The Hunters'
p71
sI70
S'Ziggy the Zebra'
p72
sI71
S'The World is Flat'
p73
sI72
S"Chaucer's Canterbury Tales (Selected): An Interlinear Translation"
p74
sI73
S'Batman: Holy Terror'
p75
sI74
S'The Language of New Media'
p76
sI75
S"The Dolls' House"
p77
sI76
S'Practice! Practice!: A Latin Via Ovid Workbook'
p78
sI77
S'Caesar (Masters of Rome, #5)'
p79
sI78
S'Ulysses: The Amazing Adventures of'
p80
sI79
S'Salmon of Doubt: Hitchhiking the Galaxy One Last Time'
p81
sI80
S'The Journals of Louisa May Alcott'
p82
sI81
S'Powers Unlimited One: A Sourcebook for Heroes Unlimited (Heroes Unlimited, #1)'
p83
sI82
S'Big Sur and the Oranges of Hieronymus Bosch'
p84
sI83
S'The Automatic Millionaire Workbook: A Personalized Plan to Live and Finish Rich. . . Automatically'
p85
sI84
S'Three Nights in August: Strategy, Heartbreak, and Joy Inside the Mind of a Manager'
p86
sI85
S'Where Angels Fear to Tread'
p87
sI86
S'How to Meet Beautiful Women'
p88
sI87
S"The Diamond Age: or, A Young Lady's Illustrated Primer"
p89
sI88
S'Tom Hunter: Living in Hell and Other Stories'
p90
sI89
S'Money to Burn'
p91
sI90
S'Behind the Couch'
p92
sI91
S'The Zebra Wall'
p93
sI92
S'The Language of New Media Design: Theory and Practice'
p94
sI93
S'Aeschylus: Seven Plays (Complete Greek Tragedies, #1)'
p95
sI94
S'Blink'
p96
sI95
S'The Five Love Languages'
p97
sI96
S'The Bacchae of Euripides'
p98
sI97
S'An Iliad'
p99
sI98
S'The Second John McPhee Reader (John McPhee Reader, #2)'
p100
sI99
S'Wonderous Mushroom: Sacred Mushrooms In Mexico And Mesoamerica.'
p101
sI100
S'Lance Armstrong: A Biography'
p102
sI101
S'The Ecclesiazusae (or Women in Council)'
p103
sI102
S'On Bullshit'
p104
sI103
S"The Compleat Gentleman: The Modern Man's Guide to Chivalry"
p105
sI104
S'Comoediae 1: Acharenses/Equites/Nubes/Vespae/Pax/Aves'
p106
sI105
S'Gabriel Garcia Marquez'
p107
sI106
S'Three Plays: The Wasps / The Poet and the Women / The Frogs'
p108
sI107
S'Dragonball Z: How To Draw Ii'
p109
sI108
S'Simply Sicilian: Family Recipes'
p110
sI109
S'Historia del cerco de Lisboa'
p111
sI110
S'Into the Wild'
p112
sI111
S'Leadership: Theory and Practice'
p113
sI112
S'The Purpose-Driven Life'
p114
sI113
S'Agile Web Development with Rails: A Pragmatic Guide'
p115
sI114
S'120 Studies for Right Hand Development'
p116
sI115
S'The Tenants'
p117
sI116
S"Corelli's Mandolin - Unabridged"
p118
sI117
S'Blessing the Bridge: What Animals Teach Us About Death, Dying, and Beyond'
p119
sI118
S'Tesla Papers'
p120
sI119
S'Life Is a Road, the Soul Is a Motorcycle'
p121
sI120
S'A Tear and a Smile'
p122
sI121
S'The Judge (Paul Madriani, #4)'
p123
sI122
S'The Politically Incorrect Guide to American History'
p124
sI123
S'The Salmon of Doubt: Hitchhiking the Galaxy One Last Time'
p125
sI124
S'To Kill a Mockingbird'
p126
sI125
S'Out to Eat London 2001 (Lonely Planet)'
p127
sI126
S'Practice of the Wild'
p128
sI127
S'Ovid: The Art of Love and Other Poems (Loeb Classical Library No. 232)'
p129
sI128
S'Birth Marks: The Tragedy of Primogeniture in Pierre Corneille, Thomas Corneille, and Jean Racine'
p130
sI129
S'Power and Struggle'
p131
sI130
S'Elektra'
p132
sI131
S'Nickel and Dimed: On (Not) Getting By in America'
p133
sI132
S'Black Beauty'
p134
sI133
S'Beating the Odds'
p135
sI134
S'The Power of One Christlike Life'
p136
sI135
S'Harry Potter Schoolbooks Box Set: Two Classic Books from the Library of Hogwarts School of Witchcraft and Wizardry'
p137
sI136
S"Pindar's Mythmaking: The Fourth Pythian Ode"
p138
sI137
S'Cockfighter'
p139
sI138
S"Drina's Dancing Year (Drina, #2)"
p140
sI139
S'Sideswipe'
p141
sI140
S'The Egypt Game (Game, #1)'
p142
sI141
S'The Long Goodbye. Based on the Novel by Raymond Chandler'
p143
sI142
S'Helen'
p144
sI143
S"God's Grace"
p145
sI144
S'Four Complete Novels'
p146
sI145
S'The Power of a City at Prayer: What Happens When Churches Unite'
p147
sI146
S'Tristia. Ex Ponto'
p148
sI147
S'Agamemnon (Oresteia, #1)'
p149
sI148
S'Histories of Sexuality: Antiquity to Sexual Revolution'
p150
sI149
S'Nursing Diagnosis Reference Manual'
p151
sI150
S'A Lonely Resurrection (John Rain, #2)'
p152
sI151
S'Insights on Death & Dying'
p153
sI152
S'Great Expectations: Authoritative Text, Backgrounds, Contexts, Criticism (Critical Editions)'
p154
sI153
S'Deception Point'
p155
sI154
S'Medea - Literary Touchstone Classic'
p156
sI155
S'The Graham Greene Film Reader'
p157
sI156
S'Competing for Customers and Capital'
p158
sI157
S'World History in Brief: Major Patterns of Change and Continuity, Volume II: Since 1450'
p159
sI158
S"Bryson's Dictionary of Troublesome Words: A Writer's Guide to Getting It Right"
p160
sI159
S'Sand and Foam'
p161
sI160
S'Changeling (Changeling, #1)'
p162
sI161
S'If You Were There in 1776'
p163
sI162
S'Stover at Yale'
p164
sI163
S'The Syriac Church and Fathers'
p165
sI164
S'Practical Subversion'
p166
sI165
S"Fanaroff and Martin's Neonatal-Perinatal Medicine: Diseases of the Fetus and Infant (Expert Consult - Online and Print) (2-Volume Set)"
p167
sI166
S'The Unfortunate Tobacconist & Other Mysteries (Sherlock Holmes 1-6)'
p168
sI167
S'Daniel Deronda Notebooks'
p169
sI168
S'The World Is Flat: A Brief History Of The Twenty-First Century'
p170
sI169
S'Akin to Anne: Tales of Other Orphans'
p171
sI170
S'The Complete Plays'
p172
sI171
S"The Color of Love: An Artist's Book of Poetry and Passion"
p173
sI172
S'Aleppo Tales'
p174
sI173
S'Molokai (Pacific Classics, No. 4) (Pacific Classics, # 4)'
p175
sI174
S'Confesiones de un chef = Kitchen Confidential (Punto de Lectura) (Spanish Edition)'
p176
sI175
S'City of Glass (The New York Trilogy, #1)'
p177
sI176
S'The Battles of Dune'
p178
sI177
S"A People's History of the United States"
p179
sI178
S'Letters of Ayn Rand'
p180
sI179
S'A Grammar of the Icelandic or Old Norse Tongue'
p181
sI180
S'Rudy Giuliani: Emperor of the City'
p182
sI181
S"Dr. Pitcairn's Complete Guide to Natural Health for Dogs & Cats"
p183
sI182
S'The Art of Love'
p184
sI183
S'Church is Stranger Than Fiction'
p185
sI184
S'Sexus (The Rosy Crucifixion, #1)'
p186
sI185
S'The Racketty-Packetty House'
p187
sI186
S'Day by Day with Saint Augustine'
p188
sI187
S'Aristophanes'
p189
sI188
S'A Million Little Pieces of Feces'
p190
sI189
S'The Song of Troy'
p191
sI190
S'Jazz Guitar Chord System'
p192
sI191
S"Meg's Dearest Wish (Madame Alexander Little Women Journals)"
p193
sI192
S'Amazons: An Intimate Memoir by the First Woman Ever to Play in the National Hockey League'
p194
sI193
S'Whitethorn'
p195
sI194
S'True Believer (Jeremy Marsh & Lexie Darnell, #1)'
p196
sI195
S'Further Adventures of Huck Finn'
p197
sI196
S'Genres in Dialogue: Plato and the Construct of Philosophy'
p198
sI197
S'Den of Thieves (Cat Royal, #3)'
p199
sI198
S'Harry Potter Paperback Boxed Set, Books 1-5 (Harry Potter, #1-5)'
p200
sI199
S'Hamlet: An Authoritative Text, Intellectual Backgrounds, Extracts from the Sources, Essays in Criticism (Norton Critical Edition)'
p201
sI200
S"Sophocles' Antigone"
p202
sI201
S'History of the Peloponnesian War: Bk. 1-2 (Loeb Classical Library)'
p203
sI202
S'Lost Horizon'
p204
sI203
S'The Modern Prince and Other Writings'
p205
sI204
S'The Long Italian Goodbye'
p206
sI205
S'The Story of Inventions'
p207
sI206
S'1000 Record Covers'
p208
sI207
S"Louisa May Alcott's Christmas Treasury"
p209
sI208
S'Bleach, Tome 1: The Death and the Strawberry'
p210
sI209
S"George Eliot and Judaism: An Attempt to Appreciate 'Daniel Deronda'"
p211
sI210
S'Athena (The Freddie Montgomery Trilogy, #3)'
p212
sI211
S'Ballet Shoes: A Story of Three Children on the Stage (Shoes, #1)'
p213
sI212
S'Body for Life for Women: 12 Weeks to a Firm, Fit, Fabulous Body at Any Age'
p214
sI213
S'Idylls'
p215
sI214
S'Mapping the Big Picture: Integrating Curriculum & Assessment K-12'
p216
sI215
S'Basic Economics'
p217
sI216
S"Gorgias (World's Classics)"
p218
sI217
S'Collected Travel Writings: The Continent'
p219
sI218
S'Guide to Rock Art of the Utah Region: Sites with Public Access'
p220
sI219
S"Warren Buffett Speaks: Wit and Wisdom from the World's Greatest Investor"
p221
sI220
S'Power of One'
p222
sI221
S'Getting Results with Curriculum Mapping'
p223
sI222
S'The Pilgrimage: A Contemporary Quest for Ancient Wisdom'
p224
sI223
S'By the River Piedra I Sat Down and Wept'
p225
sI224
S"The Forewarned Investor: Don't Get Fooled Again by Corporate Fraud"
p226
sI225
S"The Phoenician Solar Theology: An Investigation Into the Phoenician Opinion of the Sun Found in Julian's Hymn to King Helios"
p227
sI226
S"Phil Gordon's Poker Box Set: Phil Gordon's Little Black Book, Phil Gordon's Little Green Book, Phil Gordon's Little Blue Book"
p228
sI227
S'The Salmon of Doubt'
p229
sI228
S'Thomas Cole'
p230
sI229
S'Intertextuality and the Reading of Roman Poetry'
p231
sI230
S"Anne's World, Maud's World: The Sacred Sites of L.M. Montgomery"
p232
sI231
S'Rudolph Giuliani'
p233
sI232
S'Sylvia'
p234
sI233
S'Moby Dick: Or, the White Whale (Oxford Illustrated Classics Series)'
p235
sI234
S'The Reasons of Love'
p236
sI235
S'Moon Palace'
p237
sI236
S'Naked Pictures of Famous People'
p238
sI237
S'The Locked Room (The New York Trilogy, #3)'
p239
sI238
S'Alex & Penny in Egypt'
p240
sI239
S'The Basic Principles of Marketing Warfare'
p241
sI240
S'King of the Vagabonds (The Baroque Cycle, Vol. 1, Book 2)'
p242
sI241
S"MAXNotes Literature Guides: Harper Lee's To Kill a Mockingbird"
p243
sI242
S'Great Expectations'
p244
sI243
S"Thucydides Book I: A Students' Grammatical Commentary"
p245
sI244
S'Gates of Fire: An Epic Novel of the Battle of Thermopylae'
p246
sI245
S'The Enchiridion on Faith Hope and Love (Augustine Series 1)'
p247
sI246
S'How to Think Like Benjamin Graham and Invest Like Warren Buffett'
p248
sI247
S'The Gulf War Did Not Take Place'
p249
sI248
S'Jack Kerouac on the Road'
p250
sI249
S'Euripides: Bacchae (Duckworth Companions to Greek & Roman Tragedy) (Duckworth Companions to Greek & Roman Tragedy)'
p251
sI250
S'Zodiac'
p252
sI251
S'Revolutionary Characters: What Made the Founders Different'
p253
sI252
S'Lacrimal Gland, Tear Film, and Dry Eye Syndromes: Basic Science and Clinical Relevance'
p254
sI253
S'The Divine Hours (Volume Two): Prayers for Autumn and Wintertime: A Manual for Prayer'
p255
sI254
S'The Rise And Fall Of The Third Chimpanzee'
p256
sI255
S'Don Quixote'
p257
sI256
S'Ovid IV: Metamorphoses: Volume 2, Books IX-XV (Loeb Classical Library #43)'
p258
sI257
S'Personal Finance for Canadians for Dummies'
p259
sI258
S'J.K.Rowling'
p260
sI259
S'Rhetoric and Reality in Plato\'s "Phaedrus"'
p261
sI260
S'A Tale of Two Cities (SparkNotes Literature Guide)'
p262
sI261
S'The Stories of Eva Luna'
p263
sI262
S'Chicago Blues: Portraits and Stories'
p264
sI263
S'Arts with the Brain in Mind'
p265
sI264
S'The First Man in Rome (Masters of Rome, #1)'
p266
sI265
S'Applied Economics: Thinking Beyond Stage One'
p267
sI266
S'Theban Plays'
p268
sI267
S'Open City #9: Bewitched'
p269
sI268
S'A Day in the Life of a Mayor: Featuring New York City Mayor Rudy Giuliani'
p270
sI269
S'Baby Minds: Brain-Building Games Your Baby Will Love'
p271
sI270
S'Aeschylus: The Oresteia (A Student Guide: Landmarks of World Literature)'
p272
sI271
S'Original Sin: A Biblical Theology of the Hebrew Bible'
p273
sI272
S"Madeleine L'Engle Herself: Reflections on a Writing Life"
p274
sI273
S'Treasure Island'
p275
sI274
S'Guns, Germs, and Steel: The Fates of Human Societies'
p276
sI275
S'The Good Eye'
p277
sI276
S'In the Name of Jesus: Reflections on Christian Leadership'
p278
sI277
S'The Oxford Illustrated Jane Austen: 6-Volume Set'
p279
sI278
S'The Confessions of St. Augustine'
p280
sI279
S'The Real Warren Buffett: Managing Capital, Leading People'
p281
sI280
S'Drina Dances in Italy (Drina, #4)'
p282
sI281
S'Tales from Ovid'
p283
sI282
S'Endymion (Hyperion Cantos #3)'
p284
sI283
S"The Clan of the Cave Bear (Earth's Children, #1)"
p285
sI284
S'Communication, Technology and Cultural Change'
p286
sI285
S'Seven-Year Seduction'
p287
sI286
S'Trump: The Way to the Top: The Best Business Advice I Ever Received'
p288
sI287
S'The Last Days of Pompeii'
p289
sI288
S'Jack: A Life Like No Other'
p290
sI289
S"Searching for Lost City: On the Trail of America's Native Languages"
p291
sI290
S"The Languages of Tolkien's Middle-Earth"
p292
sI291
S'Sideswipe: A Hoke Moseley Novel'
p293
sI292
S'Live Strong: Inspirational Stories from Cancer Survivors-from Diagnosis to Treatment and Beyond'
p294
sI293
S'The Oresteia: Agamemnon/The Libation Bearers/The Eumenides'
p295
sI294
S'The Selected Journals Of L.M. Montgomery, Vol. 5: 1935-1942'
p296
sI295
S'Minds, Brains, and Learning: Understanding the Psychological and Educational Relevance of Neuroscientific Research'
p297
sI296
S'Five Love Languages Journal: How To Express Heartfelt Commitment To Your Mate'
p298
sI297
S'Aristophanes 1: The Acharnians/Peace/Celebrating Ladies/Wealth'
p299
sI298
S'Wrinkles in Time'
p300
sI299
S'Moby Dick (Great Illustrated Classics)'
p301
sI300
S"On the Watershed: The Natural World of New York's Catskill Mountain Region (Bright Hill Press Word Thursdays Anthology Series) (Bright Hill Press Word Thursdays Anthology Series.)"
p302
sI301
S'The Bacchae Euripides the Frogs Aristophanes'
p303
sI302
S'Collapse: How Societies Choose to Fail or Succeed'
p304
sI303
S"Edith Wharton : Novellas and Other Writings : Madame De Treymes / Ethan Frome / Summer / Old New York / The Mother's Recompense / A Backward Glance"
p305
sI304
S"Seeing What's Next: Using the Theories of Innovation to Predict Industry Change"
p306
sI305
S'The Sea'
p307
sI306
S'The Rough Guide to Walks in London and Southeast England'
p308
sI307
S"Basic Economics: A Citizen's Guide to the Economy"
p309
sI308
S"The Hit Man: One Man's Strategy for Growth, Change, and Profit"
p310
sI309
S'Cold Counsel: Women in Old Norse Literature and Myth (Hardcover)'
p311
sI310
S'Natural Hormone Replacement: The Safe and Natural Menopause Treaatment Alternative...'
p312
sI311
S'Damn Right!: Behind the Scenes with Berkshire Hathaway Billionaire Charlie Munger'
p313
sI312
S'Empire 2.0: A Modest Proposal for a United States of the West (Terra Nova)'
p314
sI313
S'Sorting Out Your Finances for Dummies'
p315
sI314
S'Silver Lies (Silver Rush, #1)'
p316
sI315
S"Essays on Ayn Rand's the Fountainhead"
p317
sI316
S'Trump University Real Estate 101: Building Wealth with Real Estate Investments'
p318
sI317
S'Monkey Business'
p319
sI318
S"eBay PowerSeller Secrets: Insider Tips from eBay's Most Successful Sellers"
p320
sI319
S"The America's Test Kitchen Family Cookbook"
p321
sI320
S'The Giver (The Giver, #1)'
p322
sI321
S'Pride and Prejudice'
p323
sI322
S'Ambiguous Images: Gender and Rock Art'
p324
sI323
S'The Physics of Star Trek'
p325
sI324
S'When Johnny Came Sliding Home: The Post-Civil War Baseball Boom, 1865-1870'
p326
sI325
S'Fast Food Nation: What the All-American Meal Is Doing to the World'
p327
sI326
S'Harry Potter and the Chamber of Secrets (Harry Potter, #2)'
p328
sI327
S'Blink.'
p329
sI328
S'A Million Little Pieces'
p330
sI329
S'Buddhism: A New Approach'
p331
sI330
S"Tyler Florence's Real Kitchen: An Indespensible Guide for Anybody Who Likes to Cook"
p332
sI331
S'The Invention of Solitude: A Memoir'
p333
sI332
S"To Kill a Mockingbird (Barron's Book Notes)"
p334
sI333
S'Chess for Zebras'
p335
sI334
S'Mientras Nieva Sobre Los Cedros/Snow Falling on Cedars (Spanish Edition)'
p336
sI335
S'New Junior Cookbook (Better Homes & Gardens Test Kitchen)'
p337
sI336
S'In Spite of Innocence'
p338
sI337
S"Freedom's Shadow"
p339
sI338
S"Huck Finn/Pudd'nhead Wilson/No 44 Mysterious Stranger other Writings"
p340
sI339
S'Sophocles I: Oedipus The King, Oedipus at Colonus, Antigone (The Complete Greek Tragedies, #8)'
p341
sI340
S'The Rock Art of Texas Indians'
p342
sI341
S'Obra Completa Narrativa'
p343
sI342
S"Aristophanes' Old-And-New Comedy: Volume I: Six Essays in Perspective"
p344
sI343
S'Night'
p345
sI344
S'2012: The Return of Quetzalcoatl'
p346
sI345
S"A Don't Sweat the Small Stuff Treasury: A Special Collection for Newlyweds"
p347
sI346
S'Geisha of Gion'
p348
sI347
S'Tea with Jane Austen'
p349
sI348
S"Dubin's Lives"
p350
sI349
S'Falconry  Hawking'
p351
sI350
S'Wonderful World of Collecting Perfume Bottles: Identification & Value Guide'
p352
sI351
S'Fullmetal Alchemist, Vol. 1 (Fullmetal Alchemist, #1)'
p353
sI352
S'The Language of Heroes'
p354
sI353
S'Voices from Colonial America: Delaware 1638-1776'
p355
sI354
S'Designing for Interaction: Creating Smart Applications and Clever Devices'
p356
sI355
S'LA Guerra De LA Mercadotecnia (Marketing Warfare)'
p357
sI356
S'The Essential Guide to Motorcycle Maintenance'
p358
sI357
S"J.K. Rowling's Harry Potter Novels: A Reader's Guide"
p359
sI358
S'Sir Gawain and the Green Knight'
p360
sI359
S'Springboard 1'
p361
sI360
S'How to Make Anyone Fall in Love with You'
p362
sI361
S'Euripides: Trojan Women'
p363
sI362
S"Sex Lover's Book of Lists"
p364
sI363
S'Luther and Erasmus: Free Will and Salvation (Library of Christian Classics)'
p365
sI364
S'The Vision of the Anointed: Self-Congratulation as a Basis for Social Policy'
p366
sI365
S"A House Like a Lotus (O'Keefe Family, #3)"
p367
sI366
S"Untouchables: My Family's Triumphant Journey Out of the Caste System in Modern India"
p368
sI367
S"The Ultimate Hitchhiker's Guide to the Galaxy (Hitchhiker's Guide to the Galaxy #1-5)"
p369
sI368
S'V.'
p370
sI369
S'A Brief History of the Western World (with CD-ROM and InfoTrac)'
p371
sI370
S'Politics of Subversion'
p372
sI371
S"Captain Corelli's Mandolin"
p373
sI372
S'Notes from a Small Island'
p374
sI373
S'Illuminations: Essays and Reflections'
p375
sI374
S'Cucina Fresca: Italian Food, Simply Prepared'
p376
sI375
S'Rough Guide Directions: London'
p377
sI376
S'Scholastic Bookfiles: Bridge To Terabithia By Katherine Paterson'
p378
sI377
S'Aiding Democracy Abroad: The Learning Curve'
p379
sI378
S'Tennis Shoes'
p380
sI379
S'Snow Falling On Cedars'
p381
sI380
S'Leaps of Faith: Science, Miracles & the Search for Supernatural Consolation'
p382
sI381
S'Salmon Doubts'
p383
sI382
S'The History of Sexuality, Volume 2: The Use of Pleasure'
p384
sI383
S'Protagoras and Logos: A Study in Greek Philosophy and Rhetoric'
p385
sI384
S'What to Sell on ebay and Where to Get It: The Definitive Guide to Product Sourcing for eBay and Beyond'
p386
sI385
S"Corporate Vices: What's Gone Wrong with Business?"
p387
sI386
S'Three Comedies: The Birds/The Clouds/The Wasps'
p388
sI387
S'Rooms with a View: Two Decades of Outstanding American Interior Design from Kips Bay Decorator Show Houses'
p389
sI388
S'God Emperor of Dune (Dune Chronicles, #4)'
p390
sI389
S'Armageddon Averted: The Soviet Collapse, 1970-2000'
p391
sI390
S'Public Enemies (On The Run, #5)'
p392
sI391
S'The Secret Garden: Dawn to Dusk in the Astonishing Hidden World of the Garden'
p393
sI392
S'Phaedrus'
p394
sI393
S'The History of Love'
p395
sI394
S'Great Expectations (MAXNotes Literature Guides)'
p396
sI395
S'Read My Lips: Sexual Subversion and the End of Gender'
p397
sI396
S'Escape from Fire Mountain'
p398
sI397
S'Cirque Du Soleil: The Spark: Igniting the Creative Fire That Lives Within Us All'
p399
sI398
S"How to Ride a Motorcycle: A Rider's Guide to Strategy, Safety, and Skill Development"
p400
sI399
S'The Sun Also Rises: A Novel of the Twenties'
p401
sI400
S'Results That Matter: Improving Communities by Engaging Citizens, Measuring Performance, and Getting Things Done'
p402
sI401
S'What Maisie Knew'
p403
sI402
S'Oedipus the King (Enriched Classics)'
p404
sI403
S'Online Investing Hacks: 100 Industrial-Strength Tips & Tools'
p405
sI404
S'Against the Wind'
p406
sI405
S'The Art of Structural Design: A Swiss Legacy'
p407
sI406
S'Assembly of Women (Literary Classics)'
p408
sI407
S'The Ambassadors'
p409
sI408
S'LOGO Lounge: 2,000 International Identities by Leading Designers'
p410
sI409
S'1776'
p411
sI410
S'A Short History of Decay'
p412
sI411
S'Sailing from Byzantium: How a Lost Empire Shaped the World'
p413
sI412
S'The Rough Guide to London'
p414
sI413
S'Martin Chuzzlewit'
p415
sI414
S"The Biggest Loser Cookbook: More Than 125 Healthy, Delicious Recipes Adapted from NBC's Hit Show"
p416
sI415
S'Is Your World Flat?: Experiencing Emotional Awareness in an Upwards-Moving Cycle'
p417
sI416
S'The John McPhee Reader (John McPhee Reader, #1)'
p418
sI417
S"Aftifices of Eternity: Horace's Fourth Book of Odes"
p419
sI418
S'Her Pilgrim Soul'
p420
sI419
S'The History (Great Minds)'
p421
sI420
S'Angelfish'
p422
sI421
S'A Conflict Of Visions: Ideological Origins of Political Struggles'
p423
sI422
S'West with the Night'
p424
sI423
S'Four Comedies: Lysistrata/The Congresswomen/The Acharnians/The Frogs'
p425
sI424
S'Undue Influence (Paul Madriani, #3)'
p426
sI425
S'High Exposure: An Enduring Passion for Everest and Unforgiving Places'
p427
sI426
S'Innocent Blood'
p428
sI427
S'MDX Solutions: With Microsoft SQL Server Analysis Services 2005 and Hyperion Essbase'
p429
sI428
S'The Book of Evidence'
p430
sI429
S"It's Not About the Bike: My Journey Back to Life"
p431
sI430
S'Gorgias (Clarendon)'
p432
sI431
S'Fullmetal Alchemist, Vol. 2 (Fullmetal Alchemist, #2)'
p433
sI432
S'The Rhetoric Of Imitation: Genre And Poetic Memory In Virgil And Other Latin Poets'
p434
sI433
S'How to Draw Action Dragonball Z (Dragonball Z)'
p435
sI434
S'The Persian War (Translations from Greek & Roman Authors)'
p436
sI435
S'Tandia'
p437
sI436
S'The Feeling Good Handbook'
p438
sI437
S"Fire at Eden's Gate: Tom McCall and the Oregon Story"
p439
sI438
S'The Long Dark Tea-Time of the Soul (Dirk Gently, #2)'
p440
sI439
S'Prescription for Natural Cures'
p441
sI440
S'The Westing Game'
p442
sI441
S'Frogs/Assemblywomen/Wealth (Loeb Classical Library 180)'
p443
sI442
S'Aliens: Original Sin'
p444
sI443
S'The Life of Graham Greene: Volume II: 1939-1955'
p445
sI444
S'The World Treasury of Physics, Astronomy & Mathematics from Albert Einstein to Stephen W. Hawking & from Annie Dillard to John Updike'
p446
sI445
S'Moonraker (James Bond, #3)'
p447
sI446
S'Hey Nostradamus!'
p448
sI447
S'The Motorcycle Diaries: Notes on a Latin American Journey'
p449
sI448
S'The Lord of the Rings: The Art of The Fellowship of the Ring'
p450
sI449
S'Democracy Without Citizens: Media and the Decay of American Politics'
p451
sI450
S'Unpainted to the Last: "Moby Dick" and Twentieth-century American Art'
p452
sI451
S'Twelve Sharp (Stephanie Plum, #12)'
p453
sI452
S'Happiness, Death, and the Remainder of Life'
p454
sI453
S'Desert Heat (Joanna Brady, #1)'
p455
sI454
S'The Iliad/The Odyssey'
p456
sI455
S'The Mother Tongue: English and How It Got That Way'
p457
sI456
S'Homeric Responses'
p458
sI457
S'Thucydides: Book I'
p459
sI458
S'Original Sin (Adam Dalgliesh #9)'
p460
sI459
S'When the World Was Steady'
p461
sI460
S'David Carson 2ndsight'
p462
sI461
S'A Fairy Tale Created Original Sin'
p463
sI462
S'The Foods of Greece'
p464
sI463
S'Neither Here nor There: Travels in Europe'
p465
sI464
S'Truth and Beauty'
p466
sI465
S'Death and Dying: Life and Living [With Infotrac]'
p467
sI466
S"Paul Auster (Bloom's Modern Critical Views)"
p468
sI467
S'On Christian Teaching'
p469
sI468
S'A Full House: An Austin Family Christmas (Austin Family, #9)'
p470
sI469
S'Flat Earth? Round Earth?'
p471
sI470
S'Lance Armstrong: The Race of His Life'
p472
sI471
S'The Broken Wings'
p473
sI472
S'A General History of the Pyrates'
p474
sI473
S'Angels, Demons & Gods of the New Millenium: Musings on Modern Magick'
p475
sI474
S'Advanced Global Illumination, Second Edition'
p476
sI475
S'My Nestorian Adventure in China: A Popular Account of the Holm-Nestorian Expedition to Sian-Fu and Its Results'
p477
sI476
S'Meditation, Compassion & Lovingkindness: An Approach to Vipassana Practice'
p478
sI477
S'A World of Heroes: Selections from Homer, Herodotus and Sophocles'
p479
sI478
S"CliffsComplete Shakespeare's Hamlet (Cliffs Complete)"
p480
sI479
S'Good Earth'
p481
sI480
S'Hank the Cowdog and Monkey Business (Hank the Cowdog, #14)'
p482
sI481
S'Monkey Business: True Story of the Scopes Trial'
p483
sI482
S'Seeing'
p484
sI483
S'Reading Greek Tragedy'
p485
sI484
S'Jesus the Son of Man'
p486
sI485
S'Friday Night Lights: A Town, a Team, And a Dream'
p487
sI486
S'Gates Of Fire'
p488
sI487
S'The Fate of Empire, 1776-2000 (A History of Britain, #3)'
p489
sI488
S'Archaic Period (Greek Literature, Volume 2)'
p490
sI489
S'HTML Utopia'
p491
sI490
S'Modern Latin America'
p492
sI491
S"Caesar's Women (Masters of Rome, #4)"
p493
sI492
S'Breast Health the Natural Way'
p494
sI493
S'Love First: A New Approach to Intervention for Alcoholism and Drug Addiction (A Hazelden Guidebook)'
p495
sI494
S'Lysistrata'
p496
sI495
S'The Sun Also Rises'
p497
sI496
S'Aristophanes\' "Lysistrata"'
p498
sI497
S"The Omnivore's Dilemma: A Natural History of Four Meals"
p499
sI498
S'Joe Pass Guitar Chords'
p500
sI499
S'Old Norse-Icelandic Literature: A Short Introduction'
p501
sI500
S'Spectacles of Truth in Classical Greek Philosophy: Theoria in Its Cultural Context'
p502
sI501
S'The Last Dance: Encountering Death and Dying'
p503
sI502
S'The Names'
p504
sI503
S'The Adventures of Sherlock Holmes (Sherlock Holmes, #3)'
p505
sI504
S"The Wealthy Barber: Everyone's Commonsense Guide to Becoming Financially Independent"
p506
sI505
S'The Richest Man In Babylon'
p507
sI506
S"The Wealthy Barber: Everyone's Common-Sense Guide to Becoming Financially Independent"
p508
sI507
S"L'Affaire"
p509
sI508
S'Smart Mobs: The Next Social Revolution'
p510
sI509
S'Maui Handbook: Including Molokai and Lanai'
p511
sI510
S'A Shadow in Summer (Long Price Quartet, #1)'
p512
sI511
S'Shakespeare and the Denial of Death'
p513
sI512
S'The Bon Appetit Cookbook'
p514
sI513
S'Ballet Shoes (CD)'
p515
sI514
S'The Nightingale Question: Five Poets from Saxony'
p516
sI515
S'The Little Black Book of Martinis'
p517
sI516
S'Do It Tomorrow and Other Secrets of Time Management'
p518
sI517
S'Lord of the Flies'
p519
sI518
S'Euripidean Polemic: The Trojan Women and the Function of Tragedy'
p520
sI519
S'Moby Dick (Troll Illustrated Classics)'
p521
sI520
S'Unauthorized Harry Potter Book Seven News: "Half-Blood Prince" Analysis and Speculation'
p522
sI521
S'Electra and Other Plays'
p523
sI522
S'Guitar Picture Chords in Color'
p524
sI523
S'Indian Givers: How the Indians of the Americas Transformed the World'
p525
sI524
S"Bill Bryson's African Diary"
p526
sI525
S'Tenth Man Down'
p527
sI526
S'The Amazing Adventures of the Escapist: Volume 1'
p528
sI527
S'Version Control with Subversion'
p529
sI528
S'The Praise of Folly'
p530
sI529
S'The Healthy College Cookbook: Quick. Cheap. Easy.'
p531
sI530
S'Dalit: The Black Untouchables of India'
p532
sI531
S'Herman Melville:  Moby Dick, Billy Budd and Other Writings'
p533
sI532
S'The Origins of Rhetoric in Ancient Greece'
p534
sI533
S'The Histories'
p535
sI534
S'Control and Subversion: Gender Relations  in Tajikistan'
p536
sI535
S"America (The Book): A Citizen's Guide to Democracy Inaction"
p537
sI536
S'The Double-Bass (Bloomsbury Classics)'
p538
sI537
S'Slouching Towards Bethlehem'
p539
sI538
S"Augustine's Laws"
p540
sI539
S'Another Bullshit Night in Suck City'
p541
sI540
S'Reading Families'
p542
sI541
S'Bullets, Badges, and Bullshit'
p543
sI542
S'Minor Works: On Colours/On Things Heard/Physiognomics/On Plants/On Marvellous Things Heard/Mechanical Problems/On Indivisible Lines/The...Gorgias'
p544
sI543
S'Odalisque (The Baroque Cycle, Vol. 1, Book 3)'
p545
sI544
S'Coming into the Country'
p546
sI545
S'Greek Literature in the Roman Period and in Late Antiquity'
p547
sI546
S'Skeptic in the House of God'
p548
sI547
S"23 Days in July: Inside the Tour de France and Lance Armstrong's Record-Breaking Victory"
p549
sI548
S'The Power of One: One Person, One Rule, One Month'
p550
sI549
S'From the Good Earth: A Celebration of Growing Food Around the World'
p551
sI550
S'The Riverside Shakespeare'
p552
sI551
S'Falling Angels'
p553
sI552
S'The Time of the Assassins:  a Study of Rimbaud'
p554
sI553
S'Heat and Dust'
p555
sI554
S'Black Swan/White Crow'
p556
sI555
S'Recovering Subversion: FEMINIST POLITICS BEYOND THE LAW'
p557
sI556
S'Roman Fever (and Other Stories)'
p558
sI557
S'Gates of Fire'
p559
sI558
S'A Long Shadow (Inspector Ian Rutledge, #8)'
p560
sI559
S'Stranger in a Strange Land'
p561
sI560
S'Drina Dances Again (Drina, #5)'
p562
sI561
S"Cliffs Notes on Cervantes' Don Quixote"
p563
sI562
S"Matthew Flinders' Cat"
p564
sI563
S'The Natural Way to Draw'
p565
sI564
S'Swiss Design 2002: Netzwerke / Ra(c)Seaux / Networks'
p566
sI565
S'The House of Mirth'
p567
sI566
S"Morgan's Run"
p568
sI567
S'Six Weeks to a Simpler Lifesty'
p569
sI568
S'The Random House Book of 20th Century French Poetry'
p570
sI569
S'Gorgias: Encomium of Helen'
p571
sI570
S'Euripides III: Hecuba/Andromache/The Trojan Women/Ion (Complete Greek Tragedies, #7)'
p572
sI571
S'The Peaceful Warrior: The Diary of Deborahs Armor Bearer, Israel, 1200 B.C.'
p573
sI572
S'A Journal of the Plague Year'
p574
sI573
S'Ballet Shoes'
p575
sI574
S'Out to Eat London 2002 (Lonely Planet Out to Eat)'
p576
sI575
S"CliffsNotes on Euripides' Medea and Electra"
p577
sI576
S'The Colossus of Maroussi'
p578
sI577
S'Knit India Through Literature, Volume II: The East'
p579
sI578
S'Harry Potter and the Order of the Phoenix (Harry Potter, #5)'
p580
sI579
S'The Kite Runner'
p581
sI580
S'Huck Finn & Tom Sawyer among the Indians & Other Unfinished Stories (Mark Twain Library)'
p582
sI581
S'The Shaolin Way: 10 Modern Secrets of Survival from a Shaolin Grandmaster'
p583
sI582
S'Dune Trilogy Box Set (Dune Chronicles, #1-3)'
p584
sI583
S'Harry Potter et la Chambre des Secrets (Harry Potter, #2)'
p585
sI584
S'Scents (Chic Simple)'
p586
sI585
S'Daily Inspiration for the Purpose Driven Life'
p587
sI586
S'The Grass Crown (Masters of Rome, #2)'
p588
sI587
S'Pragmatic Version Control: Using Subversion (The Pragmatic Starter Kit Series)'
p589
sI588
S'Sex, Drugs, and Cocoa Puffs: A Low Culture Manifesto'
p590
sI589
S'The Big Book of Logos 3'
p591
sI590
S'The Amazing Adventures Of Bathman!'
p592
sI591
S'The Language of News Media'
p593
sI592
S'Augustine Came to Kent'
p594
sI593
S'Girl with a Pearl Earring'
p595
sI594
S"New Essays on 'The Portrait of a Lady'"
p596
sI595
S'The Fountainheads: Wright, Rand, the FBI and Hollywood'
p597
sI596
S'Unleashing the Ideavirus: Stop Marketing AT People! Turn Your Ideas into Epidemics by Helping Your Customers Do the Marketing thing for You.'
p598
sI597
S'The Canterbury Tales (original-spelling edition)'
p599
sI598
S'La Chute de John R.'
p600
sI599
S'The Peloponnesian War: A New Translation, Backgrounds, Interpretations'
p601
sI600
S'Nexus (The Rosy Crucifixion, #3)'
p602
sI601
S'Theocritus and the Archaeology of Greek Poetry'
p603
sI602
S'Swiss Graphic Design'
p604
sI603
S'A Tale of Two Cities, Spotlight Edition'
p605
sI604
S'Some of the Funniest Things Happen in the Most Unlikely and Unexpected Places'
p606
sI605
S'The Runaways'
p607
sI606
S'Breaking Open the Head: A Psychedelic Journey Into the Heart of Contemporary Shamanism'
p608
sI607
S'Conversations with Bernard Malamud (Literary Conversations)'
p609
sI608
S'Trump: The Best Real Estate Advice I Ever Received: 100 Top Experts Share Their Strategies'
p610
sI609
S"I Wish I Had Known That!: World's Greatest Money & Time Saving Baby Secrets Revealed!"
p611
sI610
S"Euripides' Bacchae"
p612
sI611
S'The Subterraneans'
p613
sI612
S'Getting Pregnant the Natural Way: The 6-Step Natural Fertility Program Integrating Nutrition, Herbal Therapy, Movement Therapy, Massage, and Mind-Body Techniques'
p614
sI613
S'A People and a Nation: A History of the United States'
p615
sI614
S'Shadows in the Starlight (Changeling Detective, #2)'
p616
sI615
S'Thucydides'
p617
sI616
S'The Invention of Tradition'
p618
sI617
S'Kindred Spirits'
p619
sI618
S'Music at the Aragonese Court of Naples'
p620
sI619
S'Winterdance: The Fine Madness of Running the Iditarod'
p621
sI620
S'The Phaedrus Of Plato'
p622
sI621
S'And a Hard Rain Fell'
p623
sI622
S'Typee, Omoo, Mardi'
p624
sI623
S'Wilfrid Gordon McDonald Partridge'
p625
sI624
S'The Metamorphoses of Ovid'
p626
sI625
S'Prologue (Geoffrey Chaucer   The Canterbury Tales)'
p627
sI626
S'The Richest Man in Babylon: 2the Success Secrets of the Ancients'
p628
sI627
S'Oxford Guides to Chaucer: The Canterbury Tales'
p629
sI628
S"Ruby Ann's Down Home Trailer Park Cookbook"
p630
sI629
S'History of the Peloponnesian War, Bk. 7-8 (Loeb Classical Library)'
p631
sI630
S'Shadows and Wind: A View of Modern Vietnam'
p632
sI631
S"Always Enough: God's Miraculous Provision Among the Poorest Children on Earth"
p633
sI632
S'Burning'
p634
sI633
S'The Long Secret'
p635
sI634
S'In An Uncertain World: Tough Choices From Wall Street To Washington'
p636
sI635
S'50,001 Best Baby Names'
p637
sI636
S'Thomas Cole (Famous Artists Series)'
p638
sI637
S'A Short History of Nearly Everything (Illustrated ed.)'
p639
sI638
S"My Boys Can Swim!: The Official Guy's Guide to Pregnancy"
p640
sI639
S'Christina Cooks: Everything You Always Wanted to Know About Whole Foods But Were Afraid to Ask'
p641
sI640
S'Seven Days of Solitude: A Guidebook for a Personal Retreat'
p642
sI641
S'Elbow Room: The Varieties of Free Will Worth Wanting'
p643
sI642
S'A Was Once an Apple Pie'
p644
sI643
S"The Hitchhiker's Guide to the Galaxy (Hitchhiker's Guide, #1)"
p645
sI644
S'Dos Logos'
p646
sI645
S'Buddhism Plain and Simple'
p647
sI646
S'The Confessions (Christian Classics)'
p648
sI647
S'Anthem (Paperback)'
p649
sI648
S'Out-of-This-World Astronomy: 50 Amazing Activities  Projects'
p650
sI649
S'The Guitar Chord Wheel Book: Over 22,000 Chords!'
p651
sI650
S'Euripides I: Alcestis/The Medea/The Heracleidae/Hippolytus'
p652
sI651
S'Kare First Love, Vol. 9 (Kare First Love, #9)'
p653
sI652
S'Aeschylus II: The Suppliant Maidens, The Persians, Seven against Thebes, and Prometheus Bound (The Complete Greek Tragedies)'
p654
sI653
S'The Lord of the Rings: Complete Visual Companion'
p655
sI654
S'Maximum Accessibility: Making Your Web Site More Usable for Everyone: Making Your Web Site More Usable for Everyone'
p656
sI655
S'Secrets of the Snow: Visual Clues to Avalanche and Ski Conditions'
p657
sI656
S'In Praise of Folly'
p658
sI657
S'Trinity (Works of Saint Augustine)'
p659
sI658
S'The Old Man and the Sea'
p660
sI659
S'Flight: 100 Years of Aviation'
p661
sI660
S'Bacchae (Plays of Euripides)'
p662
sI661
S"A Historical Commentary on Thucydides: A Companion to Rex Warner's Penguin Translation"
p663
sI662
S'The History of Sexuality, Volume 1: An Introduction'
p664
sI663
S'Burning Man: Art in the Desert'
p665
sI664
S'7 Habits of Highly Effective People: Powerful Lessons in Personal Change'
p666
sI665
S'The Things They Carried'
p667
sI666
S'Encyclopedia of Thai Massage'
p668
sI667
S'Healing Feelings...from Your Heart'
p669
sI668
S'Fullmetal Alchemist, Vol. 9 (Fullmetal Alchemist, #9)'
p670
sI669
S'100 Years of Lynchings'
p671
sI670
S'Huck Finn\'s "Hidden" Lessons: Teaching and Learning Across the Color Line'
p672
sI671
S"Dr No / Moonraker / Thunderball / From Russia with Love / On Her Majesty's Secret Service / Goldfinger"
p673
sI672
S"Michelin's Charming Places to Stay in France 2003: 1000 Hotels & Guesthouses for Less Than 80 Euros"
p674
sI673
S'Oedipus Rex  (The Theban Plays, #1)'
p675
sI674
S"Heat: An Amateur's Adventures as Kitchen Slave, Line Cook, Pasta-Maker, and Apprentice to a Butcher in Tuscany"
p676
sI675
S'Children of Dune (Dune Chronicles #3)'
p677
sI676
S'Three Weeks With My Brother'
p678
sI677
S'Aeschylus I: Oresteia (Agamemnon, The Libation Bearers, The Eumenides)'
p679
sI678
S'Memoirs Of A Geisha'
p680
sI679
S'Los Logos: A Selected LOGO Collection'
p681
sI680
S'Original Sin: Origins, Developments, Contemporary Meanings'
p682
sI681
S'The Frogs'
p683
sI682
S'Alcestis/Medea/Heracleidae/Hippolytus/Cyclops/Heracles/Iphigenia in Tauris/Helen/Hecuba/Andromache/The Trojan Women (Complete Greek Tragedies, #3)'
p684
sI683
S'Robert Johnson (Signature Licks)'
p685
sI684
S'Getting Things Done: The Art of Stress-Free Productivity'
p686
sI685
S'New Media Language'
p687
sI686
S'Schiffbruch mit Tiger'
p688
sI687
S'A Little Princess'
p689
sI688
S'The Dark Horse'
p690
sI689
S'Real Boys: Rescuing Our Sons from the Myths of Boyhood'
p691
sI690
S'A Tomb for Anatole: Poetry'
p692
sI691
S'Robert Johnson - King of the Delta Blues: Guitar Transcriptions and Detailed Lessons for 29 Songs'
p693
sI692
S'Kepler'
p694
sI693
S'Secrets of Angels and Demons'
p695
sI694
S'One Last Kill (John Rain, #4)'
p696
sI695
S'Modos de ensayo: De Borges a Piglia'
p697
sI696
S'The Warren Buffett Portfolio: Mastering the Power of the Focus Investment Strategy'
p698
sI697
S'Ortlos: Architecture of the Net.Works'
p699
sI698
S'The Five People You Meet in Heaven'
p700
sI699
S'Willem de Kooning: The Life of an Artist'
p701
sI700
S'The Moon is a Harsh Mistress'
p702
sI701
S'To Kill a Mockingbird (To Kill A Mockingbird #1)'
p703
sI702
S'Harriet Spies Again'
p704
sI703
S"Cliffs Notes on Shakespeare's Hamlet"
p705
sI704
S"Thursday's Children"
p706
sI705
S'Benzin: Young Swiss Graphic Design'
p707
sI706
S'The Richest Man in Babylon'
p708
sI707
S'Marketing Warfare!'
p709
sI708
S'Antigone (Greek and Latin Classics)'
p710
sI709
S'Flip-Flop Girl'
p711
sI710
S'The Storm'
p712
sI711
S'Computational Physics: The Proceedings of the Second International Conference on Computational Physics (ICCP-2): September 13-17, 1993, Beijing, China'
p713
sI712
S'Historiae, Vol. 2 (Classical Texts Series)'
p714
sI713
S'The Bad Guys Won!'
p715
sI714
S'Women of Troy/Hecuba/Helen: Three Plays'
p716
sI715
S'Surgery: Basic Science and Clinical Evidence'
p717
sI716
S'Lots and Lots of Zebra Stripes'
p718
sI717
S'The Lost Continent: Travels in Small-Town America'
p719
sI718
S'Hunting the Hunter (On the Run, #6)'
p720
sI719
S'The Intellectual Revolution: Selections from Euripides, Thucydides and Plato'
p721
sI720
S"The Tutor's First Love"
p722
sI721
S"Tim O'Brien: A Critical Companion"
p723
sI722
S'Hippolytos'
p724
sI723
S'Novels, 1901-1902'
p725
sI724
S'Love Artist (Harlequin Romance #2860)'
p726
sI725
S'The Art of War'
p727
sI726
S'Instant Songwriting with the Piano'
p728
sI727
S'Breaking Open the Head: A Psychedelic Journey from Cynicism to Shamanism'
p729
sI728
S'Selected Writings from Protagoras/Republic/Phaedrus/Gorgias'
p730
sI729
S'The Birth of Tragedy'
p731
sI730
S'The Praise of Folly and Other Writings'
p732
sI731
S'Harry Potter and the Prisoner of Azkaban (Harry Potter, #3)'
p733
sI732
S'The Crying of Lot 49'
p734
sI733
S'Loving Graham Greene: A Novel'
p735
sI734
S"The Clan of the Cave Bear, Part 1 of 2 (Earth's Children, #1)"
p736
sI735
S'Poetic Interplay: Catullus and Horace'
p737
sI736
S'Annals of the Former World'
p738
sI737
S'Islands, Mounds, And Atoms: Patterns And Processes In Crystal Growth Far From Equilibrium'
p739
sI738
S'No Fluff, Just Stuff Anthology'
p740
sI739
S'The Story of Mr Sommer'
p741
sI740
S"Thucydides: Man's Place in History"
p742
sI741
S'Augustine: A Very Short Introduction'
p743
sI742
S'Earth is Flat" and Other Great Mistakes'
p744
sI743
S'Moby Dick'
p745
sI744
S'Born To Be Wild'
p746
sI745
S'Commodities For Dummies'
p747
sI746
S'The Santaroga Barrier'
p748
sI747
S'The Power of an Hour: Business and Life Mastery in One Hour a Week'
p749
sI748
S'Iron Ties'
p750
sI749
S'A Field Guide to Rock Art Symbols of the Greater Southwest'
p751
sI750
S'Movie Shoes (Shoes, #6)'
p752
sI751
S'A Tale of Two Cities'
p753
sI752
S'The Puritan Tradition in Revolutionary, Federalist, and Whig Political Theory: A Rhetoric of Origins'
p754
sI753
S"Christopher Davis's Best Year Yet: Hyperion Chapters; Grade 3"
p755
sI754
S"Geoffrey Chaucer's The Pardoner's Tale"
p756
sI755
S'Cool Names for Babies'
p757
sI756
S'Guitar Case Chord Book (Guitar)'
p758
sI757
S'The Other Side of Nowhere: Jazz, Improvisation, and Communities in Dialogue'
p759
sI758
S'The World Is Flat: A Brief History of the Twenty-first Century'
p760
sI759
S'The Complete Anne of Green Gables Boxed Set (Anne of Green Gables, #1-8)'
p761
sI760
S'Ethnography: A Way of Seeing'
p762
sI761
S'Heretics of Dune (Dune Chronicles, #5)'
p763
sI762
S"101 Reasons to Own the World's Greatest Investment: Warren Buffett's Berkshire Hathaway"
p764
sI763
S'A Wrinkle in Time: Teacher Guide'
p765
sI764
S'The Complete Works'
p766
sI765
S'Necessity, Volition, and Love'
p767
sI766
S'Selected Stories'
p768
sI767
S'The 48 Laws of Power'
p769
sI768
S'UFOs Over California: A True History of Extraterrestrial Encounters in the Golden State'
p770
sI769
S'Our Man in Havana'
p771
sI770
S'Dictionary of Bullshit'
p772
sI771
S'Great Short Works'
p773
sI772
S'Leadership'
p774
sI773
S'English-Cayuga/Cayuga-English Dictionary'
p775
sI774
S"Warren Buffett: An Illustrated Biography of the World's Most Successful Investor"
p776
sI775
S'A Nation of Victims: The Decay of the American Character'
p777
sI776
S'The Book of Salt'
p778
sI777
S'History of Graphic Design 3e IM'
p779
sI778
S'Greek Literature in the Byzantine Period: Greek Literature'
p780
sI779
S'Den of Thieves'
p781
sI780
S'Poetry and Myth in Ancient Pastoral: Essays on Theocritus and Virgil'
p782
sI781
S'Robinson Crusoe'
p783
sI782
S'Shibumi'
p784
sI783
S"A. Lincoln'S Gettysburg Addres"
p785
sI784
S'Object-Oriented Programming in C++'
p786
sI785
S'The Eclogues of Virgil: A Translation'
p787
sI786
S"There's Always Enough: The Miraculous Move of God in Mozambique"
p788
sI787
S'Motorcycle Camping Made Easy'
p789
sI788
S'Bleach, Volume 12'
p790
sI789
S'Growing Up Untouchable in India: A Dalit Autobiography'
p791
sI790
S'Poetry for Young People: Edward Lear'
p792
sI791
S'How to Cook Everything Simple Recipes for Great Food'
p793
sI792
S'CSS Pocket Reference'
p794
sI793
S'Into Thin Air: A Personal Account of the Mount Everest Disaster'
p795
sI794
S'Rich Dad Poor Dad Classics - Boxed Set'
p796
sI795
S"Thomas Pynchon (Bloom's Modern Critical Views)"
p797
sI796
S"Motorcycle Owner's Manual"
p798
sI797
S'Holy Man: Father Damien of Molokai'
p799
sI798
S'Cryptonomicon'
p800
sI799
S'Random Harvest'
p801
sI800
S"Through Otis' Eyes: Lessons from a Guide Dog Puppy"
p802
sI801
S"Homer's Text and Language"
p803
sI802
S'Gecko Gathering PB'
p804
sI803
S'Chandler: Stories and Early Novels'
p805
sI804
S'Children Are from Heaven: How to Have Strong, Confident Children'
p806
sI805
S'London: City Guide (Lonely Planet City Guide)'
p807
sI806
S'Dear John'
p808
sI807
S'The Amazing Adventures of Kavalier & Clay'
p809
sI808
S'A History of the United States and Its People'
p810
sI809
S'Cuentos de Eva Luna - Bolsillo'
p811
sI810
S'Treasure Island (Great Illustrated Classics)'
p812
sI811
S'To Sail Beyond the Sunset'
p813
sI812
S'Moby Dick (Complete And Unabridged)'
p814
sI813
S'The Crossing'
p815
sI814
S'Humanity Dick: A Biography of Richard Martin, M. P., 1754-1834'
p816
sI815
S"Mrs. Sharp's Traditions: Reviving Victorian Family Celebrations of Comfort & Joy"
p817
sI816
S'In the Country of Last Things'
p818
sI817
S'The Worm Ouroboros'
p819
sI818
S'Critical Mass'
p820
sI819
S'1000 Families'
p821
sI820
S'Behind a Mask: The Unknown Thrillers of Louisa May Alcott'
p822
sI821
S'Plays 1: Medea/The Phoenician Women/Bacchae'
p823
sI822
S'E. M. Forster: A Life'
p824
sI823
S"The Passion of Ayn Rand's Critics: The Case Against the Brandens"
p825
sI824
S"Norman Hall's Corrections Officer Exam Preparation Book"
p826
sI825
S'The Life Of Dashiell Hammett'
p827
sI826
S'Life After God'
p828
sI827
S'Lonely Planet Londres'
p829
sI828
S'Cities of Salt'
p830
sI829
S'Slow Learner: Early Stories'
p831
sI830
S'The Semi-Complete Guide to Sort of Being a Gentleman'
p832
sI831
S'The Book of Probes'
p833
sI832
S'Swiss Federal Design Grants 2006'
p834
sI833
S'Message in a Bottle'
p835
sI834
S'The Five Love Languages of Teenagers'
p836
sI835
S'The Eyes of Heisenberg'
p837
sI836
S'The Leadership Challenge'
p838
sI837
S"Aisthetische Reduktionen: Analysen Zu Patrick Suskinds 'Der Kontraba', 'Das Parfum' Und 'Rossini'"
p839
sI838
S"Flaubert's Parrot"
p840
sI839
S'Moby-Dick'
p841
sI840
S'The Bostonians'
p842
sI841
S'How to Cook: And Everything Else You Need to Know in the Kitchen'
p843
sI842
S'The Poetical Works of Christopher Smart: Volume VI: A Poetical Translation of the Fables of Phaedrus'
p844
sI843
S'Personal Finance For Dummies'
p845
sI844
S'Eclogues and Georgics'
p846
sI845
S'Comedy Quotes from the Movies: Over 4,000 Bits of Humorous Dialogue from All Film Genres, Topically Arranged and Indexed'
p847
sI846
S'Monkey Business: Are Yor Controlling Events or Are Events Controlling You?'
p848
sI847
S'Thai Massage: A Traditional Medical Technique'
p849
sI848
S'Harry Potter and the Half-Blood Prince (Harry Potter, #6)'
p850
sI849
S'Grand Theft Auto: Vice City Official Strategy Guide for PC'
p851
sI850
S'Houses of God: Religious Architecture for a New Millennium'
p852
sI851
S'The Norton Shakespeare'
p853
sI852
S'A Severed Wasp'
p854
sI853
S'Burning Bright'
p855
sI854
S'Going After Cacciato'
p856
sI855
S'The Taste of Home Cookbook'
p857
sI856
S'Antigone (Translations from Greek Drama)'
p858
sI857
S'The Death of Ivan Ilych And Other Stories'
p859
sI858
S'James Bond and Moonraker'
p860
sI859
S'Consciousness Explained'
p861
sI860
S'Gap Creek: A Novel'
p862
sI861
S'No Price Too High: A Pentecostal Preacher Becomes Catholic - The Inspirational Story of Alex Jones as Told to Diane Hanson'
p863
sI862
S'Americans in Paris: Great Short Stories of the City of Light'
p864
sI863
S'Bakkhai'
p865
sI864
S'Guts: The True Stories behind Hatchet and the Brian Books'
p866
sI865
S'Euripides: Ten Plays'
p867
sI866
S"The Real Estate Investor's Tax Guide"
p868
sI867
S"The Official Crazy Bones Collector's Guide"
p869
sI868
S"Trading with the Enemy: Seduction and Betrayal on Jim Cramer's Wall Street"
p870
sI869
S'The Best 50 Martinis'
p871
sI870
S'The Works Of H. G. Wells:  Complete & Unabridged'
p872
sI871
S'Augustine of Hippo: A Biography'
p873
sI872
S"The Science of Sherlock Holmes: From Baskerville Hall to the Valley of Fear, the Real Forensics Behind the Great Detective's Greatest Cases"
p874
sI873
S'Latin (Vergil)'
p875
sI874
S'Holy Cow! Does God Care about What We Eat?'
p876
sI875
S'Along the Juniata: Thomas Cole and the Dissemination of American Landscape Imagery'
p877
sI876
S'Guitar Chord Bible (Music Bibles)'
p878
sI877
S'Boogaloo on 2nd Avenue'
p879
sI878
S'Bishop Lists: Formation of Apostolic Succession of Bishops in Ecclesiastical Crises'
p880
sI879
S'The Annotated Huckleberry Finn'
p881
sI880
S'Earth Odyssey: Around the World in Search of Our Environmental Future'
p882
sI881
S'The Rough Guide to London Restaurants 2004 6'
p883
sI882
S'Fields of Gold'
p884
sI883
S'One Body, One Life: Six Weeks to the New You'
p885
sI884
S'Natural Disasters [with Online Learning Center Access Code]'
p886
sI885
S'The Next 100 Years: Predictions to the Nations and the Church of the 21st Century'
p887
sI886
S'The No-Salt Cookbook: Reduce or Eliminate Salt Without Sacrificing Flavor'
p888
sI887
S'The Invisible Child'
p889
sI888
S'Introducing Mind and Brain (Introducing...)'
p890
sI889
S'Emergence: Labeled Autistic'
p891
sI890
S'Blood From Blood (John Rain, #2)'
p892
sI891
S'Simply Beautiful Beaded Jewelry'
p893
sI892
S"Don't Make Me Think: A Common Sense Approach to Web Usability"
p894
sI893
S'Blessed Is He Who Has Brought Adam from Sheol'
p895
sI894
S'The Notebooks of Lazarus Long'
p896
sI895
S"The Kid's Cookbook: A Great Book for Kids Who Love to Cook"
p897
sI896
S'Avalanche: Heretical Reflections on the Dark and the Light'
p898
sI897
S'Las razones del amor/ The Reasons Of Love: El Sentido de Nuestras Vidas / The Sense of Our Lives'
p899
sI898
S'How to Build a Real Estate Empire: Wisdom from the Best in the Business'
p900
sI899
S'The Angle of Repose: Four American Photographers in Egypt'
p901
sI900
S"A People's History of the United States: The Civil War to the Present"
p902
sI901
S'On the Road'
p903
sI902
S'Simply Italian: 100 Easy-To-Make, Zesty, Satisfying Favorites'
p904
sI903
S'Think and Grow Rich!'
p905
sI904
S'Prometheus Bound and Other Plays'
p906
sI905
S"Solomon's Song (The Potato Factory, #3)"
p907
sI906
S'Sophocles I: Oedipus the King, Oedipus at Colonus, Antigone (Complete Greek Tragedies)'
p908
sI907
S'Little Women (Little Women, #1)'
p909
sI908
S'The 100 Most Notable Cornellians'
p910
sI909
S'First Love and Other Sorrows: Stories'
p911
sI910
S'A Tramp Abroad'
p912
sI911
S'America: A Concise History, Volume 2: Since 1865'
p913
sI912
S'Wisdom from the Five People You Meet in Heaven'
p914
sI913
S'Sir Gawain and the Green Knight (Myths & Legends Audio)'
p915
sI914
S'Charles Willeford Omnibus: Pick Up/Burnt Orange Heresy/Cockfighter'
p916
sI915
S'The Fellowship of the Ring (The Lord of the Rings, #1)'
p917
sI916
S'Thucydides, Book 6 Commentary'
p918
sI917
S'Investing in REITs: Real Estate Investment Trusts'
p919
sI918
S'Economic Literacy: Basic Economics with an Attitude'
p920
sI919
S'Building Literacy with Love: A Guide for Teachers and Caregivers of Children Birth Through Age 5'
p921
sI920
S'In The Blink Of An Eye: How Vision Sparked The Big Bang Of Evolution'
p922
sI921
S'Augustine: Ancient Thought Baptized'
p923
sI922
S'Unnatural Causes (Adam Dalgliesh #3)'
p924
sI923
S'Cyclops. Alcestis. Medea'
p925
sI924
S'London'
p926
sI925
S'The City of God against the Pagans (Texts in the History of Political Thought)'
p927
sI926
S'The Fixer'
p928
sI927
S'Memoirs of a Geisha'
p929
sI928
S'Bread Givers'
p930
sI929
S'The Power and the Glory'
p931
sI930
S'Democracy'
p932
sI931
S'Memoirs of a Midget'
p933
sI932
S'Natural Health, Natural Medicine'
p934
sI933
S'A Winter Haunting'
p935
sI934
S'Harriet The Spy'
p936
sI935
S'The Headless Cupid (Stanley Family, #1)'
p937
sI936
S'The Harry Potter Collection (Harry Potter, #1-6)'
p938
sI937
S'The Compact Rock Guitar Chord Reference'
p939
sI938
S'El Siglo del Espiritu Santo'
p940
sI939
S'Spectator Politics: Metatheatre and Performance in Aristophanes'
p941
sI940
S'Medea'
p942
sI941
S'Tom Wolfes Treasury of Patterns: 90 Patterns for Dog Carvers'
p943
sI942
S'The Canterbury Tales: Volume III'
p944
sI943
S'Daily Inspiration for the Purpose Driven Life: Scriptures and Reflections from the 40 Days of Purpose'
p945
sI944
S'The Potato Factory'
p946
sI945
S'Great Discoveries & Amazing Adventures: The Stories of Hidden Marvels and Lost Treasures'
p947
sI946
S'Interface'
p948
sI947
S'The Earliest Life of Christ Ever Complied from the Four Gospels: Being the Diatessaron of Tatian (Gorgias Reprint)'
p949
sI948
S'New Technology in Language Learning: Proceedings of the 1989 Man and the Media Symposium'
p950
sI949
S'Veronika Decides to Die'
p951
sI950
S'CSS Mastery: Advanced Web Standards Solutions'
p952
sI951
S"Einstein's Heroes: Imagining the World Through the Language of Mathematics"
p953
sI952
S'Thai Massage Manual: Natural Therapy for Flexibility, Relaxation, and Energy Balance'
p954
sI953
S'The Autobiography of Mark Twain'
p955
sI954
S'Pure and Simple: The Extraordinary Teachings of a Thai Buddhist Laywoman'
p956
sI955
S'Gap Creek'
p957
sI956
S'The Handbook Of Sailing'
p958
sI957
S"Maverick's: The Story of Big-Wave Surfing"
p959
sI958
S'J.K. Rowling'
p960
sI959
S'Den of Thieves (Ad&d 2nd Edition)'
p961
sI960
S'Lincoln on Leadership: Executive Strategies for Tough Times by Donald T. Phillips, Phillips'
p962
sI961
S'Richest Man in Babylon - The Success Secrets of the Ancients'
p963
sI962
S"J. K. Lasser's Pick Stocks Like Warren Buffett"
p964
sI963
S'Long Goodbye'
p965
sI964
S'The Baby Name Wizard: A Magical Method for Finding the Perfect Name for Your Baby'
p966
sI965
S'The Burnt Orange Heresy (Vintage Crime/Black Lizard)'
p967
sI966
S'Illuminations: Visions for Change, Growth, and Self-Acceptance'
p968
sI967
S'Oedipus Rex (Greek and Latin Classics)'
p969
sI968
S'Fire in the Gates'
p970
sI969
S'Emotional Design: Why We Love (or Hate) Everyday Things'
p971
sI970
S"Real Estate Riches: How to Become Rich Using Your Banker's Money"
p972
sI971
S'The Letters of Gustave Flaubert, 1857-1880'
p973
sI972
S'Dune (Dune Chronicles, #1)'
p974
sI973
S'Seven Habits of Highly Effective People'
p975
sI974
S'El Cuaderno De Noah'
p976
sI975
S'Getting Things Done When You Are Not in Charge'
p977
sI976
S'The Archaeology of Rock-Art'
p978
sI977
S'Conversations with Lincoln'
p979
sI978
S'Iliad'
p980
sI979
S'Guitar Chord Encyclopedia: 36 Chords in Each Key'
p981
sI980
S'Freakonomics: A Rogue Economist Explores the Hidden Side of Everything'
p982
sI981
S'Listen for It: A Task-Based Listening Course'
p983
sI982
S'Hecuba, Trojan Women, Andromache'
p984
sI983
S'The History of Sexuality, Volume 1: The Will to Knowledge'
p985
sI984
S'The Fall of Hyperion'
p986
sI985
S'Understanding Sun Tzu on the Art of War'
p987
sI986
S'The Enchanted April'
p988
sI987
S'A Treasury of Kahlil Gibran'
p989
sI988
S'Dave Thomas (Overcoming Adversity)'
p990
sI989
S'Holy Cow! Not Another Mad Snappy Answers to Stupid Questions'
p991
sI990
S'Jack Kerouac: The Road Is Life'
p992
sI991
S"The Innovator's Solution: Creating and Sustaining Successful Growth"
p993
sI992
S'Shadows on the Wind'
p994
sI993
S'The Trojan Women and Other Plays'
p995
sI994
S'Sandpaper Sisters'
p996
sI995
S"The Devil's Broker: Seeking Gold, God, and Glory in Fourteenth- Century Italy"
p997
sI996
S'Angeles & Demonios'
p998
sI997
S'Charles Dickens'
p999
sI998
S'Cameron Townsend: Good News in Every Language (Christian Heroes: Then & Now)'
p1000
sI999
S'The Poems of Herman Melville'
p1001
sI1000
S"Why Zebras Don't Get Ulcers"
p1002
sI1001
S'American Notes for General Circulation'
p1003
sI1002
S'The Highland Scots of North Carolina, 1732-1776'
p1004
sI1003
S'The Confessions (Works of Saint Augustine 1)'
p1005
sI1004
S'Love Your Handwriting (Creating Keepsakes)'
p1006
sI1005
S"The Insider's Guide to 52 Homes in 52 Weeks: Acquire Your Real Estate Fortune Today"
p1007
sI1006
S'Powderguide: Managing Avalanche Risk'
p1008
sI1007
S"The Collapse of the Common Good: How America's Lawsuit Culture Undermines Our Freedom"
p1009
sI1008
S'Mid-Course Correction: Toward a Sustainable Enterprise: The Interface Model'
p1010
sI1009
S'The Church of Solitude'
p1011
sI1010
S"The Ultimate Time Machine: A Remote Viewer's Perception of Time & Predictions for the New Millennium"
p1012
sI1011
S'Little Women (SparkNotes Literature Guide)'
p1013
sI1012
S'Dragonball'
p1014
sI1013
S'The Control of Nature'
p1015
sI1014
S'Telling Tales on Caesar: Roman Stories from Phaedrus'
p1016
sI1015
S'Tooth Decay & Cavities'
p1017
sI1016
S'Blink: The Power of Thinking Without Thinking'
p1018
sI1017
S'The Untouchables: Subordination, Poverty and the State in Modern India (Contemporary South Asia, #4)'
p1019
sI1018
S'Euripides IV: Rhesus/The Suppliant Women/Orestes/Iphigenia in Aulis'
p1020
sI1019
S'Portrait of the Blue Lady: The Character of Melancholy'
p1021
sI1020
S'Vice (V, #8)'
p1022
sI1021
S'The Life of Geoffrey Chaucer: A Critical Biography'
p1023
sI1022
S'The Last Gentleman (Modern Library)'
p1024
sI1023
S'Creating Database-Backed Library Web Pages: Using Open Source Tools'
p1025
sI1024
S'Inventing the Flat Earth: Columbus and Modern Historians'
p1026
sI1025
S'Phaedrus (Classical Greek Texts)'
p1027
sI1026
S'Doing Things with Things: The Design and Use of Everyday Objects'
p1028
sI1027
S"Holy Cows and Hog Heaven: The Food Buyer's Guide to Farm Friendly Food"
p1029
sI1028
S'The Essential Euripides'
p1030
sI1029
S'Amores & Metamorphoses: Selections'
p1031
sI1030
S'Sherlock Holmes and the Kiss of Death'
p1032
sI1031
S'Night of the Living Dead'
p1033
sI1032
S'History of the Peloponnesian War: Bk. 5-6 (Loeb Classical Library)'
p1034
sI1033
S'Myths of the Underworld Journey: Plato, Aristophanes, and the "Orphic" Gold Tablets'
p1035
sI1034
S'The Complete Short Stories'
p1036
sI1035
S'The Machine in Ward Eleven'
p1037
sI1036
S'Everyday Pasta'
p1038
sI1037
S'Preliterate Period (Greek Literature, Volume 1)'
p1039
sI1038
S'Aristophanes and His Theatre of the Absurd'
p1040
sI1039
S'Stephen Hawking: A Life in Science'
p1041
sI1040
S"The Clan of the Cave Bear, Part 2 of 2 (Earth's Children, #1)"
p1042
sI1041
S'Stuffed Owl'
p1043
sI1042
S'Masterwork Studies Series: 100 Years of Solitude'
p1044
sI1043
S'From a Sabine Jar: Reading Horace, Odes 1.9'
p1045
sI1044
S'Simply Italian: Easy Recipes That Are Quick to Prepare, Low in Calories, and Kind to Your Budget'
p1046
sI1045
S"Love: A User's Guide"
p1047
sI1046
S'ABCs of Avalanche Safety'
p1048
sI1047
S'Music with the Brain in Mind'
p1049
sI1048
S"The Complete Idiot's Guide to Getting Things Done"
p1050
sI1049
S'Amazing Rain Forest (Discovering the Rain Forest)'
p1051
sI1050
S'First Comes Love: All About the Birds and the Bees--and Alligators, Possums, and People, Too'
p1052
sI1051
S'The Dharma Bums'
p1053
sI1052
S"Twain's Huckleberry Finn (Cliffs Notes)"
p1054
sI1053
S'No Excuses: Antonio Sabato Jr. Workout For Life'
p1055
sI1054
S'Fairy Doll'
p1056
sI1055
S"The Complete Idiot's Guide to Cashing in On Your Inventions"
p1057
sI1056
S'Job: A Comedy of Justice'
p1058
sI1057
S'Bulletproofing NetWare: Solving the 175 Most Common Problems Before They Happen'
p1059
sI1058
S'Tono-Bungay'
p1060
sI1059
S'From Beirut to Jerusalem'
p1061
sI1060
S'Buffett: The Making of an American Capitalist'
p1062
sI1061
S'Classic Chicago Blues Harp #2'
p1063
sI1062
S'The Bookclub-in-a-Box Discussion Guide to the book: The Curious Incident of the Dog in the Night-Time'
p1064
sI1063
S'Birds/Lysistrata/Women at the Thesmophoria (Loeb Classical Library 179)'
p1065
sI1064
S'A Book of Common Prayer'
p1066
sI1065
S'History of the Progressive Party, 1912-1916'
p1067
sI1066
S'Hebrew Illuminations'
p1068
sI1067
S'Medea and Other Plays'
p1069
sI1068
S"Pojo's Unofficial Absolute Dragonball Z: Gt Episode Reviews"
p1070
sI1069
S'Bookclub-In-A-Box Discusses the Novel the Hours by Michael Cunningham'
p1071
sI1070
S'On Genesis/A Refutation of the Manichees/The Unfinished Literal Meaning of Genesis (Works of St Augustine 1)'
p1072
sI1071
S'The Notebook'
p1073
sI1072
S'The CSS Anthology'
p1074
sI1073
S'Lord of the Flies (SparkNotes Literature Guides)'
p1075
sI1074
S'Simply Bruschetta: Garlic Toast the Italian Way'
p1076
sI1075
S"The Millionaire Next Door: The Surprising Secrets of America's Wealthy"
p1077
sI1076
S'Time Enough for Love'
p1078
sI1077
S"Cliffs Notes on Melville's Moby Dick"
p1079
sI1078
S'The Broker'
p1080
sI1079
S'Lysis/Symposium/Gorgias (Loeb Classical Library, #166)'
p1081
sI1080
S"Brian's Hunt (Brian's Saga, #5)"
p1082
sI1081
S'The White Album'
p1083
sI1082
S'The Fall of Hyperion (Hyperion Cantos, #2)'
p1084
sI1083
S'Euripides: Hippolytus'
p1085
sI1084
S'Motorcycle Basics Techbook'
p1086
sI1085
S'Freddy and the Men from Mars'
p1087
sI1086
S"Observing the User Experience: A Practitioner's Guide to User Research"
p1088
sI1087
S'The Known World'
p1089
sI1088
S'Clouds'
p1090
sI1089
S'So You Think You Know Jane Austen?'
p1091
sI1090
S'The Coming Economic Collapse: How You Can Thrive When Oil Costs $200 a Barrel'
p1092
sI1091
S'Designed to Sell: Turn-Of-The-Century American Posters in the Virginia Museum of Fine Arts'
p1093
sI1092
S'Blink-182: Tales from Beneath Your Mom'
p1094
sI1093
S'El Capitan: Historic Feats and Radical Routes'
p1095
sI1094
S'Three Plays by Aristophanes: Lysistrata/Women at the Thesmophoria/Assemblywomen'
p1096
sI1095
S'The Lion and the Jewel'
p1097
sI1096
S'Make the Most of Your Windows PC: Easy to Follow Step-By-Step Directions'
p1098
sI1097
S'Robinson Crusoe (Scholastic Junior Classics)'
p1099
sI1098
S"The Hitchhiker's Guide to the Galaxy (Hitchhiker's Guide to the Galaxy, #1)"
p1100
sI1099
S'The Patriarch: The Rise and Fall of the Bingham Dynasty'
p1101
sI1100
S'Science and Sensibility: The Elegant Logic of the Universe'
p1102
sI1101
S"The Hitchhiker's Guide to the Galaxy: The Primary Phase (Hitchhiker's Guide: Radio Play, #1)"
p1103
sI1102
S'A Million Little Pieces of Close to Home: A Close to Home Collection'
p1104
sI1103
S'The Complete Sherlock Holmes, Vol 2'
p1105
sI1104
S'Emergence from Chaos to Order'
p1106
sI1105
S'A Prayer for the City'
p1107
sI1106
S'How to Cook Everything: Holiday Cooking'
p1108
sI1107
S'Enoch and Daniel: A Form Critical and Sociological Study of the Historical Apocalypses'
p1109
sI1108
S'The Woodsman and His Hatchet: Eighty Years on Back Country Survival'
p1110
sI1109
S'Long Way Round: Chasing Shadows Across the World'
p1111
sI1110
S'The Art of Hunger: Essays, Prefaces, Interviews, The Red Notebook'
p1112
sI1111
S'Emily of New Moon (Emily, #1)'
p1113
sI1112
S'The Gettysburg Address'
p1114
sI1113
S'Aristophanes: Peace'
p1115
sI1114
S'The Story of Salt'
p1116
sI1115
S"The Ethnographer's Eye: Ways of Seeing in Anthropology"
p1117
sI1116
S"The Phantom Tollbooth: A Children's Play in Two Acts"
p1118
sI1117
S'The Complete Adventures and Memoirs of Sherlock Holmes'
p1119
sI1118
S'Advanced Placement Economics: Microeconomics: Student Activities'
p1120
sI1119
S"The Refining Fire: Herakles and Other Heroes in T.S. Eliot's Works"
p1121
sI1120
S"Tim O'Brien"
p1122
sI1121
S'Northern Lights'
p1123
sI1122
S'Theatre: A Way of Seeing (with InfoTrac)'
p1124
sI1123
S'Timbuktu'
p1125
sI1124
S'Once Upon a Cool Motorcycle Dude'
p1126
sI1125
S'La Caseta Magica (the Phantom Tollbooth)'
p1127
sI1126
S'Rooms with a View: The Stages of Community in the Modern Theater'
p1128
sI1127
S'In Cold Blood'
p1129
sI1128
S'The Jesus Incident (The Pandora Sequence, #1)'
p1130
sI1129
S'The Wedding (The Notebook, #2)'
p1131
sI1130
S'Learn to Program'
p1132
sI1131
S'Hamlet'
p1133
sI1132
S'Innovation and the General Manager'
p1134
sI1133
S"The Player's Handbook: The Ultimate Guide on Dating and Relationships"
p1135
sI1134
S'Storage Network Performance Analysis'
p1136
sI1135
S'Country Living Stylish Storage: Simple Ways to Contain Your Clutter'
p1137
sI1136
S'Metamorphoses'
p1138
sI1137
S'Preventing Medication Errors and Improving Drug Therapy Outcomes'
p1139
sI1138
S'Novels, 1896-1899'
p1140
sI1139
S'Max and Me and the Time Machine'
p1141
sI1140
S'Kentucky Heat'
p1142
sI1141
S'Euripides: Medea'
p1143
sI1142
S'Play It as It Lays'
p1144
sI1143
S'Web Production for Writers and Journalists (Media Skills)'
p1145
sI1144
S'Runaway Time'
p1146
sI1145
S'The Complete Poetical Works: Volume VI'
p1147
sI1146
S'First Love, Second Chance'
p1148
sI1147
S'Fountainhead (Cliffs Notes)'
p1149
sI1148
S'The Portable Jack Kerouac'
p1150
sI1149
S'Language and Desire in Seneca\'s "Phaedra"'
p1151
sI1150
S'The Theory of Everything: The Origin and Fate of the Universe'
p1152
sI1151
S'The Truth Behind the Da Vinci Code: A Challenging Response to the Bestselling Novel'
p1153
sI1152
S'Her Pilgrim Soul: And Other Stories'
p1154
sI1153
S"Phaedrus (World's Classics)"
p1155
sI1154
S'Melville and the politics of identity: From *King Lear* to *Moby-Dick*'
p1156
sI1155
S'Fifty Ways to Cook Most Everything: 2500 Creative Solutions to the Daily Dilemma of What to Cook'
p1157
sI1156
S'Men Are from Mars, Women Are from Venus'
p1158
sI1157
S'Primal Heat (Includes: Breeds, #10; Devlin Dynasty, #1; Moon Lust, #1)'
p1159
sI1158
S'American Government: Continuity And Change'
p1160
sI1159
S"Developing Tactics for Listening Teacher's Book"
p1161
sI1160
S'Destroy, She Said'
p1162
sI1161
S"Euripides' Bacchae, Focus Classical Library (Focus Classical Library)"
p1163
sI1162
S'Baby Signing For Dummies'
p1164
sI1163
S"Programming Ruby: The Pragmatic Programmers' Guide"
p1165
sI1164
S'War and Peace'
p1166
sI1165
S'The October Horse: A Novel of Caesar and Cleopatra (Masters of Rome, #6)'
p1167
sI1166
S'The Nonsense Verse Of Edward Lear'
p1168
sI1167
S'Aristophanes: Clouds, Acharnians, Lysistrata: A Companion to the Penguin Translation of A.H.Sommerstein'
p1169
sI1168
S'Time To Be In Earnest: A Fragment Of Autobiography'
p1170
sI1169
S'Vice & Virtue in Everyday Life: Introductory Readings in Ethics'
p1171
sI1170
S'Plato I: Euthyphro. Apology. Crito. Phaedo. Phaedrus. (Loeb Classical Library, #36)'
p1172
sI1171
S'Typographic Design: Form and Communication'
p1173
sI1172
S'The Compleat Works of Wllm Shkspr (abridged)'
p1174
sI1173
S'I am Charlotte Simmons'
p1175
sI1174
S'Little Women'
p1176
sI1175
S'Ten Colloquies'
p1177
sI1176
S'Bacchae'
p1178
sI1177
S'All My Tomorrows (The Orphan Trains Trilogy, #2)'
p1179
sI1178
S'The Heidi Chronicles'
p1180
sI1179
S'A Million Little Lies'
p1181
sI1180
S'The Minds of Boys: Saving Our Sons from Falling Behind in School and Life'
p1182
sI1181
S"The Insider's Guide to Tax-Free Real Estate Investments: Retire Rich Using Your IRA"
p1183
sI1182
S'Sun Tzu Strategies for Selling: How to Use the Art of War to Build Lifelong Customer Relationships: How to Use the Art of War to Build Lifelong Customer Relationships'
p1184
sI1183
S"Playing the REITs Game: Asia's New Real Estate Investment Trusts"
p1185
sI1184
S'The Denial of Death'
p1186
sI1185
S'Starting an eBay Business for Dummies'
p1187
sI1186
S"Chasing Lance: The 2005 Tour de France and Lance Armstrong's Ride of a Lifetime"
p1188
sI1187
S"Pindar's Homer: The Lyric Possession of An Epic Past"
p1189
sI1188
S'Hard Freeze (Joe Kurtz, #2)'
p1190
sI1189
S'The Journals of Ayn Rand'
p1191
sI1190
S"Shakespeare Set Free: Teaching Romeo & Juliet, Macbeth & Midsumr Night'"
p1192
sI1191
S'Invisible Engines: How Software Platforms Drive Innovation and Transform Industries'
p1193
sI1192
S'The Odyssey'
p1194
sI1193
S'Think and Grow Rich'
p1195
sI1194
S'The Last Life'
p1196
sI1195
S'Antigone / Oedipus the King / Electra'
p1197
sI1196
S"A Midsummer Night's Dream"
p1198
sI1197
S'The Best of Twain, 8 Vols'
p1199
sI1198
S'The Beloved: Reflections on the Path of the Heart'
p1200
sI1199
S'Introducing Stephen Hawking'
p1201
sI1200
S'The Portrait of a Lady'
p1202
sI1201
S'Katherine Paterson'
p1203
sI1202
S'Wizard: The Life and Times of Nikola Tesla: Biography of a Genius'
p1204
sI1203
S"The Hitchhiker's Guide to Lean: Lessons from the Road"
p1205
sI1204
S'Learning to Sail: The Annapolis Sailing School Guide for Youlearning to Sail: The Annapolis Sailing School Guide for Young Sailors of All Ages Ng Sailors of All Ages'
p1206
sI1205
S'eBay Business All-in-One Desk Reference for Dummies'
p1207
sI1206
S'The Custom of the Country'
p1208
sI1207
S'Chord Workbook for Guitar Volume One'
p1209
sI1208
S'Moneyball: The Art of Winning an Unfair Game'
p1210
sI1209
S'The Changeling (Daughters of England, #15)'
p1211
sI1210
S'Essential Jazz: The First 100 Years (with CD-ROM)'
p1212
sI1211
S'Bleach ("Si Shen") (Volume 1)'
p1213
sI1212
S'Beth Makes a Friend (Portraits of Little Women)'
p1214
sI1213
S'The Oresteia'
p1215
sI1214
S"Expanding Tactics for Listening Teacher's Book"
p1216
sI1215
S'The Cobweb'
p1217
sI1216
S'Dialogue and Deviance: Male-Male Desire in the Dialogue Genre (Plato to the Middle Ages, Plato to the Enlightenment, Plato to the Postmodern)'
p1218
sI1217
S"Harry Potter and the Sorcerer's Stone (Harry Potter, #1)"
p1219
sI1218
S'Kare First Love, Vol. 10 (Kare First Love, #10)'
p1220
sI1219
S"Dicing with Di: The Amazing Adventures of Britain's Royal Watchers"
p1221
sI1220
S'Rooms with a View: Two Decades of Outstanding American Interior Design from the Kips Bay...'
p1222
sI1221
S"Betty Crocker's Diabetes Cookbook: Everyday Meals Easy as 1-2-3"
p1223
sI1222
S"America's Mayor: The Hidden History of Rudy Giuliani's New York"
p1224
sI1223
S'Make the Most of Your Digital Photos, Video, & Music'
p1225
sI1224
S"Melville's Moby Dick: An American Nekyia (Studies in Jungian Psychology by Jungian Analysts)"
p1226
sI1225
S'Radiology for Anaesthesia and Intensive Care'
p1227
sI1226
S'Persuasion'
p1228
sI1227
S'The Lady and the Unicorn'
p1229
sI1228
S'Barbarians inside the Gates and Other Controversial Essays'
p1230
sI1229
S'Men Are from Mars, Women Are from Venus: A Practical Guide for Improving Communication and Getting What You Want in Relationships'
p1231
sI1230
S'Maybe You Never Cry Again'
p1232
sI1231
S'Alcoholics Anonymous: The Story of How Many Thousands of Men and Women Have Recovered from Alcoholism'
p1233
sI1232
S"Grace's Letter to Lincoln"
p1234
sI1233
S'The Vice Guide to Sex and Drugs and Rock and Roll'
p1235
sI1234
S'Sport (Harriet the Spy Adventures)'
p1236
sI1235
S'God, Time, & Stephen Hawking'
p1237
sI1236
S'Roman Period (Greek Literature, Volume 6)'
p1238
sI1237
S'The Confessions of Saint Augustine'
p1239
sI1238
S'Theocritus: Idylls'
p1240
sI1239
S"Theatrical Space and Historical Place in Sophocles' Oedipus at Colonus"
p1241
sI1240
S'Daniel Deronda, V1'
p1242
sI1241
S'Buddhism Pure and Simple'
p1243
sI1242
S'On Beyond Zebra!'
p1244
sI1243
S'The Da Vinci Code: Fact or Fiction?'
p1245
sI1244
S'Body Piercing Saved My Life: Inside the Phenomenon of Christian Rock'
p1246
sI1245
S'Purpose Driven Life'
p1247
sI1246
S'Collected Plays: Volume 1: A Dance of the Forests; The Swamp Dwellers; The Strong Breed; The Road; The Bacchae of Euripides: 001 (Includes a Dance of ... Breed/the Road/the Bacchae of Euripides)'
p1248
sI1247
S"Gentleman's Guide to Toasting"
p1249
sI1248
S'Twelve Steps and Twelve Traditions'
p1250
sI1249
S'Sophocles Plays 2: Ajax, Women of Trachis, Electra, Philoctetes'
p1251
sI1250
S'Goodbye Mr. Chips'
p1252
sI1251
S'Jeff Koons/Andy Warhol: Flowers'
p1253
sI1252
S'Oral and Written Communication: Historical Approaches'
p1254
sI1253
S'Martini, Straight Up: The Classic American Cocktail'
p1255
sI1254
S'The Emergence of Life on Earth: A Historical and Scientific Overview'
p1256
sI1255
S'Peace'
p1257
sI1256
S'Pompeii: Monuments Past and Present'
p1258
sI1257
S'Sea of Stones'
p1259
sI1258
S'Eros and Ritual in Ancient Literature: Singing of Atalanta, Daphnis and Orpheus'
p1260
sI1259
S'Girl With a Pearl Earring'
p1261
sI1260
S'Chapterhouse: Dune (Dune Chronicles #6)'
p1262
sI1261
S'First Love'
p1263
sI1262
S'Flesh and Blood'
p1264
sI1263
S'Dune Messiah (Dune Chronicles #2)'
p1265
sI1264
S'Buzz Marketing with Blogs for Dummies'
p1266
sI1265
S'Texas Heat (Texas, #2)'
p1267
sI1266
S'The Alpine Path: The Story of My Career'
p1268
sI1267
S'Is Reality Optional?: And Other Essays'
p1269
sI1268
S'You Only Live Twice (James Bond, #12)'
p1270
sI1269
S'Phaedrus-Kommentar'
p1271
sI1270
S'The Dry Danube: A Hitler Forgery'
p1272
sI1271
S'Best of London (Lonely Planet Best Of)'
p1273
sI1272
S'Eating for Life: Your Guide to Great Health, Fat Loss and Increased Energy!'
p1274
sI1273
S'Killing Yourself To Live'
p1275
sI1274
S'Chicago Blues Guitar (Guitar Books)'
p1276
sI1275
S'Fullmetal Alchemist, Vol. 8 (Fullmetal Alchemist, #8)'
p1277
sI1276
S'Pastoral Prayers in Public Places'
p1278
sI1277
S'The Trust: The Private and Powerful Family behind the New York Times'
p1279
sI1278
S'Wild Fire (John Corey, #4)'
p1280
sI1279
S'100 Bullshit Jobs...And How to Get Them'
p1281
sI1280
S'Colorado Springs Notes, 1899-1900'
p1282
sI1281
S'We the Living'
p1283
sI1282
S"Mel Bay's Guide to Guitar Chord Progression"
p1284
sI1283
S"Douglas Adams's Starship Titanic"
p1285
sI1284
S'New York Trilogy: New York Underground, Trapped, Love and Sex'
p1286
sI1285
S'The Buccaneers'
p1287
sI1286
S'Team of Rivals: The Political Genius of Abraham Lincoln'
p1288
sI1287
S'Death in Holy Orders (Adam Dalgliesh, #11)'
p1289
sI1288
S'Supreme Power: Hyperion'
p1290
sI1289
S'Lysistrata (Clarendon)'
p1291
sI1290
S'The Great Bridge: The Epic Story of the Building of the Brooklyn Bridge'
p1292
sI1291
S"Warren Buffett Wealth: Principles and Practical Methods Used by the World's Greatest Investor"
p1293
sI1292
S"9/11 Descent Into Tyranny: The New World Order's Dark Plans to Turn Earth Into a Prison Planet"
p1294
sI1293
S'The Forerunner: His Parables and Poems'
p1295
sI1294
S'Theocritus: A Selection: Idylls 1, 3, 4, 6, 7, 10, 11 and 13'
p1296
sI1295
S'The Lovely Bones'
p1297
sI1296
S'A History of the World in 6 Glasses'
p1298
sI1297
S'On Love and Death'
p1299
sI1298
S'The Heart of the Matter'
p1300
sI1299
S'A Brief History of the Western World, Volume I: To 1715 (with CD-ROM and InfoTrac)'
p1301
sI1300
S"Selected Themes from the Motion Picture Harry Potter and the Sorcerer's Stone (Solo, Duet, Trio): Flute"
p1302
sI1301
S'Later Works'
p1303
sI1302
S'Twenty Four Hours A Day: Meditations'
p1304
sI1303
S'Frances Hodgson Burnett: The Unexpected Life of the Author of the Secret Garden'
p1305
sI1304
S'Greek Tragedies, Vol. 2: Aeschylus: The Libation Bearers; Sophocles: Electra; Euripides: Iphigenia in Tauris, Electra, The Trojan Women'
p1306
sI1305
S'Bullshit Artist: The 9/11 Leadership Myth'
p1307
sI1306
S'Black Rednecks & White Liberals'
p1308
sI1307
S'Winds of Change (The Story Girl #8)'
p1309
sI1308
S"Broker to Broker: Management Lessons from America's Most Successful Real Estate Companies"
p1310
sI1309
S'The 7 Habits of Highly Effective People'
p1311
sI1310
S'Member of the Club: Reflections on Life in a Racially Polarized World'
p1312
sI1311
S'Assessment in Special Education: A Practical Approach'
p1313
sI1312
S'Disappearances'
p1314
sI1313
S"Melville's Short Novels: Authoritative Texts, Contexts, Criticism"
p1315
sI1314
S'The Story of Holly and Ivy'
p1316
sI1315
S'Suppliant Maidens/Persians/Prometheus/Seven Against Thebes (Loeb Classical Library 145)'
p1317
sI1316
S'Love As A Foreign Language #5'
p1318
sI1317
S'Double Tap (Paul Madriani, #8)'
p1319
sI1318
S"Aristophanes' Male and Female Revolutions: A Reading of Aristophanes' Knights and Assemblywomen"
p1320
sI1319
S'The Voice of Reason: Essays in Objectivist Thought'
p1321
sI1320
S'Government in America: People, Politics, and Policy'
p1322
sI1321
S'Farmer Giles of Ham'
p1323
sI1322
S'Web-Based Instruction: A Guide for Libraries'
p1324
sI1323
S'The Millionaire Next Door'
p1325
sI1324
S'Bulletproof Your PC Network: Solving the 210 Most Common Problems Before They Happen'
p1326
sI1325
S'Trevanian: Four Complete Novels: The Eiger Sanction / The Loo Sanction / The Main / Shibumi'
p1327
sI1326
S'A History of God: The 4,000-Year Quest of Judaism, Christianity, and Islam'
p1328
sI1327
S"Blood Stripes: The Grunt's View of the War in Iraq"
p1329
sI1328
S'Nickel and Dimed'
p1330
sI1329
S'The Plastic Film and Foil Web Handling Guide'
p1331
sI1330
S'New York Nights (Virex Trilogy, #1)'
p1332
sI1331
S"L'Histoire de Pi"
p1333
sI1332
S'Hospital Sketches'
p1334
sI1333
S'Anna Karenina'
p1335
sI1334
S'Iceland: Land of the Sagas'
p1336
sI1335
S'Cover Her Face (Adam Dalgliesh #1)'
p1337
sI1336
S'In Web Design for Libraries'
p1338
sI1337
S"Secrets of the Alchemist Dar (A Treasure's Trove)"
p1339
sI1338
S'The Oedipus Plays of Sophocles'
p1340
sI1339
S'Bernie Mac'
p1341
sI1340
S'Beyond the Red Notebook'
p1342
sI1341
S'Sailing Smart: Winning Techniques, Tactics, And Strategies'
p1343
sI1342
S'African Rock Art: Paintings and Engravings on Stone'
p1344
sI1343
S'The Five Love Languages Faux Leather Bound Journal and Paperback Book Set (Amazon.com Exclusive)'
p1345
sI1344
S'The Design of Everyday Things'
p1346
sI1345
S'Ruby Cookbook'
p1347
sI1346
S'The Future of Freedom: Illiberal Democracy at Home and Abroad'
p1348
sI1347
S'Personal Bankruptcy Laws for Dummies'
p1349
sI1348
S'Angle of Repose, Part 1 of 2'
p1350
sI1349
S'Best of Ruby Quiz Volume One'
p1351
sI1350
S'Finding Yourself in India'
p1352
sI1351
S'Oresteia'
p1353
sI1352
S'My Life in Dog Years'
p1354
sI1353
S'Sliding Into Home'
p1355
sI1354
S'Complete Giuliani Studies'
p1356
sI1355
S'The Little Steamroller'
p1357
sI1356
S'Raising Smart Kids for Dummies'
p1358
sI1357
S'Jungle Love'
p1359
sI1358
S'Tenth Man'
p1360
sI1359
S"Applying Sun Tzu's Art Of War In Marketing"
p1361
sI1360
S'Gorgias, Sophist, and Artist'
p1362
sI1361
S"Sex, Drugs and DNA: Science's Taboos Confronted"
p1363
sI1362
S"Virgil's Aeneid: Interpretation and Influence"
p1364
sI1363
S'New York Trilogy   Whodunit?'
p1365
sI1364
S"Masterpieces of Illumination: Codices Illustres the World's Most Famous Illuminated Manuscripts 400 to 1600"
p1366
sI1365
S'Drina Dances in Switzerland (Drina, #9)'
p1367
sI1366
S'A Little Original Sin: The Life and Work of Jane Bowles'
p1368
sI1367
S'Art for Public Places: Critical Essays'
p1369
sI1368
S'Grace Givers: Amazing Stories of Grace in Action'
p1370
sI1369
S'Execution: The Discipline of Getting Things Done'
p1371
sI1370
S'Conversations with J.K. Rowling'
p1372
sI1371
S'Seven Mansions of Color'
p1373
sI1372
S'An Avalanche of Anoraks'
p1374
sI1373
S'Purpose Driven Life Journal: What on Earth Am I Here For?'
p1375
sI1374
S'A Mind To Murder (Adam Dalgliesh, #2)'
p1376
sI1375
S'Molly Hatchet - 5 of the Best'
p1377
sI1376
S"Brian's Winter"
p1378
sI1377
S'Celtic and Old Norse Designs'
p1379
sI1378
S'The Great House of God'
p1380
sI1379
S'Olympos (Ilium, #2)'
p1381
sI1380
S'Short History of Syriac Literature'
p1382
sI1381
S'Velvet: A Novel of Suspense'
p1383
sI1382
S'Growing Givers Hearts'
p1384
sI1383
S"The Facilitator's Book of Questions: Tools for Looking Together at Student and Teacher Work"
p1385
sI1384
S'Eclogues. Georgics. Aeneid: Books 1-6'
p1386
sI1385
S'First Love: Renewing Your Passion for God'
p1387
sI1386
S'Galileo, Darwin, and Hawking: The Interplay of Science, Reason, and Religion'
p1388
sI1387
S'Tim'
p1389
sI1388
S'The Birds (Methuen Drama)'
p1390
sI1389
S'A Bend in the Road'
p1391
sI1390
S'Guitar Chord Guru: The Chord Book - Your Guide for Success!'
p1392
sI1391
S'Otis Lee Crenshaw: I Blame Society'
p1393
sI1392
S'Pat of Silver Bush (Pat, #1)'
p1394
sI1393
S'The Guitar Chord Deck'
p1395
sI1394
S'Dating For Dummies'
p1396
sI1395
S'The Stories of Mary Gordon'
p1397
sI1396
S'Ft-D Hammett: A Life'
p1398
sI1397
S'The Collapse of Evolution'
p1399
sI1398
S'Heaven and Other Poems'
p1400
sI1399
S'A Killing Rain (Louis Kincaid, #6)'
p1401
sI1400
S'Four Plays: The Clouds/The Birds/Lysistrata/The Frogs'
p1402
sI1401
S'The Madman'
p1403
sI1402
S'Splish Splash!: A Book about Rain'
p1404
sI1403
S'Love Letters'
p1405
sI1404
S"A Sentimental Education: The Story of a Young Man (World's Classics)"
p1406
sI1405
S"Chaucer's Canterbury Tales"
p1407
sI1406
S'Old Man and the Sea'
p1408
sI1407
S'Parzival: The Quest of the Grail Knight'
p1409
sI1408
S'Suppliant Women: Suppliant Women, Electra, Heracles (Loeb Classical Library): Suppliant Women, Electra, Heracles, Trojan Women'
p1410
sI1409
S'On The Road'
p1411
sI1410
S'Hecuba: Introduction, Text, and Commentary'
p1412
sI1411
S'The Curious Incident of the Dog in the Night-time'
p1413
sI1412
S'In the Land of White Death: An Epic Story of Survival in the Siberian Arctic'
p1414
sI1413
S'The First Assistant: A Continuing Tale from Behind the Hollywood Curtain'
p1415
sI1414
S'Stranger Than Fiction'
p1416
sI1415
S'Fast Food Nation: The Dark Side of the All-American Meal'
p1417
sI1416
S'The Warren Buffett CEO: Secrets from the Berkshire Hathaway Managers'
p1418
sI1417
S'Advanced Mathematical Economics'
p1419
sI1418
S'The Chap Manifesto: Revolutionary Etiquette for the Modern Gentleman'
p1420
sI1419
S'Temptations'
p1421
sI1420
S'Dashiell Hammett Une VI'
p1422
sI1421
S'Twelve Steps For Overeaters: An Interpretation Of The Twelve Steps Of Overeaters Anonymous'
p1423
sI1422
S'First Love & Look for My Obituary: Two Novellas by Elena Garro'
p1424
sI1423
S'French Ways and Their Meaning'
p1425
sI1424
S'The Innocents Abroad'
p1426
sI1425
S"Teacher of Holiness: The Holy Spirit in Origen's Commentary on the Epistle to the Romans"
p1427
sI1426
S'Brokeback Mountain: Story to Screenplay'
p1428
sI1427
S"Down at Theresa's: Chicago Blues: The Photographs of Marc PoKempner"
p1429
sI1428
S'Thucydides: An Introduction for the Common Reader'
p1430
sI1429
S'The Sixteen Pleasures'
p1431
sI1430
S"Loving and Dying: A Reading of Plato's Phaedo, Symposium, and Phaedrus"
p1432
sI1431
S'Storage (Chic Simple) (Chic Simple Components)'
p1433
sI1432
S'The Year of the Death of Ricardo Reis'
p1434
sI1433
S"Cliffsnotes on Chaucer's the Canterbury Tales (CliffsNotes)"
p1435
sI1434
S'Hardy Boys Boxed Set 1-6'
p1436
sI1435
S'The Bacchae and Other Plays'
p1437
sI1436
S'Fences and Windows: Dispatches from the Front Lines of the Globalization Debate'
p1438
sI1437
S"Erasmus on His Times: A Shortened Version of the 'Adages' of Erasmus"
p1439
sI1438
S'Artesia: Adventures in the Known World'
p1440
sI1439
S'Farewell, My Lovely'
p1441
sI1440
S'The Long Tail:  Why The Future Is Selling Less Of More'
p1442
sI1441
S'Incredible Chord Finder: Easy-to-Use Guide to Over 1,100 Guitar Chords'
p1443
sI1442
S'Picture Chord Encyclopedia: Photos and Diagrams for 2,600 Guitar Chords!'
p1444
sI1443
S'Help Yourself Get Everything Done'
p1445
sI1444
S'Millionaire Women Next Door: The Many Journeys of Successful American Businesswomen'
p1446
sI1445
S'The Annotated Pride & Prejudice'
p1447
sI1446
S'Trends in Mathematical Physics: Proceedings of the Conference on Trends in Mathematical Physics, October 14-17, 1998, University of Tennessee, Knoxville'
p1448
sI1447
S'Lo mejor de Londres (Lonely Planet Best Of)'
p1449
sI1448
S"Mahatma Gandhi and His Myths: Civil Disobedience, Nonviolence, and Satyagraha in the Real World (Plus Why It's Gandhi, Not Ghandi)"
p1450
sI1449
S'The Long-Distance Relationship Survival Guide: Secrets and Strategies from Successful Couples Who Have Gone the Distance'
p1451
sI1450
S"Investing Without Losing: The Beginner's Guide to Real Estate Tax Lien and Tax Deed Auctions"
p1452
sI1451
S'The Three-Martini Playdate: A Practical Guide to Happy Parenting'
p1453
sI1452
S'A Colorful Symphony: Full Score'
p1454
sI1453
S'Euripides II: The Cyclops/Heracles/Iphigenia in Tauris/Helen'
p1455
sI1454
S'Antigone'
p1456
sI1455
S'The Lira Da Braccio'
p1457
sI1456
S'For the Good of the Earth and Sun: Teaching Poetry'
p1458
sI1457
S'Iphigenia in Aulis'
p1459
sI1458
S'Five Great Science Fiction Novels'
p1460
sI1459
S'Aeneid: Hero, War, Humanity'
p1461
sI1460
S'Vegas Heat (Vegas, #2)'
p1462
sI1461
S'The Jane Austen Book Club'
p1463
sI1462
S'The Structure of Old Norse "Drottkvaett" Poetry'
p1464
sI1463
S'Erasmus and the Age of Reformation'
p1465
sI1464
S'Wild at Heart Field Manual: A Personal Guide to Discover the Secret of Your Masculine Soul'
p1466
sI1465
S'The Good Earth'
p1467
sI1466
S'Guitar Chords for Beginners'
p1468
sI1467
S"Rhetoric, Comedy, and the Violence of Language in Aristophanes' Clouds"
p1469
sI1468
S'Aspects of the Novel'
p1470
sI1469
S'Drina Dances in Exile (Drina, #3)'
p1471
sI1470
S'The Evidence-Based Social Work Skills Book'
p1472
sI1471
S'55,000+ Baby Names'
p1473
sI1472
S'Wild Things: The Material Culture of Everyday Life'
p1474
sI1473
S"The World's First Love: Mary, Mother of God"
p1475
sI1474
S'Mars and Venus Book of Days: 365 Inspriations to Enrich Your Relationships'
p1476
sI1475
S'The Complete Nonsense of Edward Lear'
p1477
sI1476
S'Sun Tzu and the Art of Business: Six Strategic Principles for Managers'
p1478
sI1477
S'Sherlock Holmes: The Lost Cases'
p1479
sI1478
S'The Collapse of Complex Societies'
p1480
sI1479
S'Hiroshima Mon Amour'
p1481
sI1480
S"The Tragedy of Pudd'nhead Wilson"
p1482
sI1481
S'Trade Like Warren Buffett'
p1483
sI1482
S'Rails Recipes'
p1484
sI1483
S'The Rescue (Kidnapped, #3)'
p1485
sI1484
S'Grief, Dying, & Death'
p1486
sI1485
S'The Secret Family: Twenty-Four Hours Inside the Mysterious World of Our Minds and Bodies'
p1487
sI1486
S'The Bucaneers'
p1488
sI1487
S'The Birth of Tragedy and Other Writings (History of Philosophy)'
p1489
sI1488
S'Eric Meyer on CSS: Mastering the Language of Web Design with Cascading Style Sheets'
p1490
sI1489
S'The Horn of the Unicorn: A Mosaic of the Life of Archbishop Marcel Lefebvre'
p1491
sI1490
S'The History of Sexuality, Volume 3: The Care of the Self'
p1492
sI1491
S'The Inner Game of Tennis: The Classic Guide to the Mental Side of Peak Performance'
p1493
sI1492
S'Journey Without Maps'
p1494
sI1493
S'ebay Timesaving Techniques for Dummies'
p1495
sI1494
S"Cliffs Notes on Aristophanes' Lysistrata, The Birds, The Clouds, The Frogs"
p1496
sI1495
S'China Court: The Hours of a Country House'
p1497
sI1496
S'Bleach, Volume 15'
p1498
sI1497
S'Bleach, Volume 14'
p1499
sI1498
S'Women in Old Norse Society: A Portrait'
p1500
sI1499
S'Amazons'
p1501
sI1500
S'The Modern Falconer: Training, Hawking & Breeding'
p1502
sI1501
S"Ruby Ann's Down Home Trailer Park Holiday Cookbook"
p1503
sI1502
S'Greek Literature in the Classical Period: The Prose of Historiography and Oratory'
p1504
sI1503
S'The Portable Henry James'
p1505
sI1504
S'Little Known Evidences of the Book of Mormon'
p1506
sI1505
S'Sex, Drugs & Economics: An Unconventional Introduction to Economics'
p1507
sI1506
S'Book of Sketches'
p1508
sI1507
S'Paul Auster and Postmodern Quest: On the Road to Nowhere'
p1509
sI1508
S'A Brief History of Time'
p1510
sI1509
S'Bridge to Terabithia Study Guide'
p1511
sI1510
S'Marketing Warfare'
p1512
sI1511
S'Decadent'
p1513
sI1512
S'From Russia With Love/Moonraker'
p1514
sI1513
S'Staying Clean: Living Without Drugs'
p1515
sI1514
S'Hesiod II: The Shield. Catalogue of Women. Other Fragments. (Loeb Classical Library, #503)'
p1516
sI1515
S'The Articulate Executive in Action: How the Best Leaders Get Things Done'
p1517
sI1516
S'The Intentional Stance'
p1518
sI1517
S'Hyperion Cantos: Hyperion / The Fall of Hyperion'
p1519
sI1518
S'The Fountainhead'
p1520
sI1519
S'Execution: The Discipline Of Getting Things Done'
p1521
sI1520
S'What Every Investor Needs to Know about Accounting Fraud'
p1522
sI1521
S'Complete Home Storge'
p1523
sI1522
S'A Circle of Quiet (Crosswicks Journals #1)'
p1524
sI1523
S'Mice, Morals, & Monkey Business'
p1525
sI1524
S'The Bible Lessons of John Quincy Adams for His Son'
p1526
sI1525
S'Who Needs Greek? Contests in the Cultural History of Hellenism'
p1527
sI1526
S'The Languages of Aristophanes: Aspects of Linguistic Variation in Classical Attic Greek'
p1528
sI1527
S'My First Love and Other Disasters'
p1529
sI1528
S'Secret of the Peaceful Warrior'
p1530
sI1529
S'Murder by Moonlight & Other Mysteries (New Adventures of Sherlock Holmes 19-24)'
p1531
sI1530
S"The Poet's Voice: Essays on Poetics and Greek Literature"
p1532
sI1531
S'Hyperion and Selected Poems'
p1533
sI1532
S'Camp Cooking: 100 Years The National Museum of Forest Service History'
p1534
sI1533
S'Phaedrus/Apology/Crito/Symposium'
p1535
sI1534
S"The Unity of Plato's Gorgias: Rhetoric, Justice, and the Philosophic Life"
p1536
sI1535
S"Bookclub in a Box Discusses Khaled Hosseini's Novel The Kite Runner"
p1537
sI1536
S'The Enchanted April (1922)'
p1538
sI1537
S'Trump Strategies for Real Estate: Billionaire Lessons for the Small Investor'
p1539
sI1538
S'Sailing for Dummies'
p1540
sI1539
S'Hippolytus'
p1541
sI1540
S'How to Succeed with Men'
p1542
sI1541
S'The J.K. Rowling Encyclopedia'
p1543
sI1542
S'Self'
p1544
sI1543
S"The Secrets of Frank Herbert's Dune"
p1545
sI1544
S'Collected Poems'
p1546
sI1545
S'Old Dry Frye'
p1547
sI1546
S'Libra'
p1548
sI1547
S'Doctor No (James Bond, #6)'
p1549
sI1548
S'Aglaia: The Poetry of Alcman, Sappho, Pindar, Bacchylides, and Corinna'
p1550
sI1549
S'God Created The Integers'
p1551
sI1550
S"Objective IELTS Intermediate Student's Book"
p1552
sI1551
S'Compelling Evidence (Paul Madriani, #1)'
p1553
sI1552
S'Collected Tales, Sketches, Speeches and Essays 2: 1891-1910'
p1554
sI1553
S"Plato's Phaedrus: The Philosophy of Love"
p1555
sI1554
S'Tom Wolfe Carves Dragons'
p1556
sI1555
S'The Warren Buffett Way'
p1557
sI1556
S"The Essential J.R.R. Tolkien Sourcebook: A Fan's Guide to Middle-Earth and Beyond"
p1558
sI1557
S"Dickens' Great Expectations (Cliffs Notes)"
p1559
sI1558
S'Odyssey'
p1560
sI1559
S'Symposium/Phaedrus'
p1561
sI1560
S'The Human Rights Committee and the Right of Individual Communication: Law and Practice'
p1562
sI1561
S'The Prince of the City: Giuliani, New York, and the Genius of American Life'
p1563
sI1562
S'The Years of Rice and Salt'
p1564
sI1563
S'Nikola Tesla: A Spark of Genius'
p1565
sI1564
S'Louisa May Alcott: A Biography: With an Introduction to the New Edition'
p1566
sI1565
S'Salt in His Shoes: Michael Jordan in Pursuit of a Dream'
p1567
sI1566
S'Miss Happiness and Miss Flower'
p1568
sI1567
S'Bone Sharps, Cowboys, and Thunder Lizards: Edward Drinker Cope, Othniel Charles Marsh, and the Gilded Age of Paleontology'
p1569
sI1568
S"The Everything Kid's Cookbook: From Mac'n Cheese to Double Chocolate Chip Cookies-All You Need to Have Some Finger Lickin' Fun"
p1570
sI1569
S'Brainstorms: Philosophical Essays on Mind and Psychology'
p1571
sI1570
S'A Challenge to the Critics: Scholarly Evidences of the Book of Mormon'
p1572
sI1571
S'Managing Debt For Dummies'
p1573
sI1572
S'Natural Resource Conservation: Management for a Sustainable Future'
p1574
sI1573
S'Midwest Eclogue'
p1575
sI1574
S'The Tower'
p1576
sI1575
S'J. K. Rowling: A Biography'
p1577
sI1576
S'Herding Dogs: Progressive Training'
p1578
sI1577
S'Flash to the Core: An Interactive Sketchbook by Joshua Davis'
p1579
sI1578
S'Winner Take All (John Rain, #3)'
p1580
sI1579
S"Murder at Ford's Theatre (Capital Crimes, #19)"
p1581
sI1580
S'Drina Dances in Paris (Drina, #7)'
p1582
sI1581
S'The Woman Chaser'
p1583
sI1582
S'Thai Massage'
p1584
sI1583
S'Stranger Than Fiction: An Independent Investigation of the True Culprits Behid 9-11'
p1585
sI1584
S'What Every Fidelity Investor Needs to Know'
p1586
sI1585
S'The Lord of the Rings Hardcover Box Set (The Lord of the Rings, #1-3)'
p1587
sI1586
S'Lysis/Phaedrus/Symposium: Plato on Homosexuality (Great Books in Philosophy)'
p1588
sI1587
S'The Longest Journey'
p1589
sI1588
S"Literature, Disaster, and the Enigma of Power: A Reading of 'Moby-Dick'"
p1590
sI1589
S'Riding High'
p1591
sI1590
S'The Good Earth (Cliffs Notes)'
p1592
sI1591
S'Trump: Surviving at the Top'
p1593
sI1592
S'Looking for Mo'
p1594
sI1593
S'Euripides and the Poetics of Sorrow: Art, Gender, and Commemoration in Alcestis, Hippolytus, and Hecuba'
p1595
sI1594
S"Foucault's Virginity: Ancient Erotic Fiction & the History of Sexuality (Stanford Memorial Lecture)"
p1596
sI1595
S'Catching Alice'
p1597
sI1596
S'The 36-Hour Day: A Family Guide to Caring for Persons with Alzheimer Disease, Related Dementing Illnesses, and Memory Loss in Later Life'
p1598
sI1597
S'Cultural Diversity Fieldbook: Fresh Visions and Breakthrough Strategies for Revitalizing the Workplace'
p1599
sI1598
S"Kids' Crafts: Stamp It!: 50 Amazing Projects to Make"
p1600
sI1599
S'Walk in the Light & Twenty-Three Tales'
p1601
sI1600
S'Fundamental and Applied Aspects of Modern Physics'
p1602
sI1601
S'Fullmetal Alchemist, Vol. 4 (Fullmetal Alchemist, #4)'
p1603
sI1602
S'Diez Cuentos de Eva Luna Con Guia de Comprension y Repaso de Gramatica'
p1604
sI1603
S"People's History of the United States: 1492 to Present"
p1605
sI1604
S'Adventures of Huckleberry Finn'
p1606
sI1605
S'eBay: Top 100 Simplified Tips & Tricks'
p1607
sI1606
S"Moloka'i"
p1608
sI1607
S'The Trust: The Private and Powerful Family Behind The New York Times'
p1609
sI1608
S'Anansi Boys (American Gods, #2)'
p1610
sI1609
S"Edward Lear's Nonsense Verse"
p1611
sI1610
S'Best of Blink-182'
p1612
sI1611
S'The Secret House: The Extraordinary Science of an Ordinary Day'
p1613
sI1612
S'Anne of Avonlea'
p1614
sI1613
S'The Chemistry And Physics Of Intermetallic Materials (Special Topics In Inorganic Chemistry)'
p1615
sI1614
S"Don't Sweat the Small Stuff for Men: Simple Ways to Minimize Stress in a Competitive World"
p1616
sI1615
S'Fit for Developing Software: Framework for Integrated Tests'
p1617
sI1616
S'Deborah Butterfield'
p1618
sI1617
S'Prolegomena to Homer, 1795'
p1619
sI1618
S"Stylin' with CSS: A Designer's Guide"
p1620
sI1619
S'My Secret Garden'
p1621
sI1620
S'Hello Reader: Make Your Way For Tooth Decay (Level 3)'
p1622
sI1621
S'The Green Toenails Gang (Olivia Sharp: Agent for Secrets)'
p1623
sI1622
S"Glacier's Historic Hotels & Chalets: View with a Room"
p1624
sI1623
S'Heretics of Dune (Dune Chronicles #5)'
p1625
sI1624
S'Enthusiasm and Divine Madness'
p1626
sI1625
S'Language, Sexuality, Narrative: The Oresteia'
p1627
sI1626
S'The Confusion (The Baroque Cycle, #2)'
p1628
sI1627
S"Vicksburg's Long Shadow: The Civil War Legacy of Race and Remembrance"
p1629
sI1628
S'The Power of One (The Power of One, #1)'
p1630
sI1629
S'Sophocles 1: Ajax/Women of Trachis/Electra/Philoctetes'
p1631
sI1630
S'Willem de Kooning: Late Paintings'
p1632
sI1631
S'Rose in Bloom'
p1633
sI1632
S"Plato's Rhapsody and Homer's Music: The Poetics of the Panathenaic Festival in Classical Athens"
p1634
sI1633
S'CSS Cookbook'
p1635
sI1634
S'In Search of Moby Dick: Quest for the White Whale'
p1636
sI1635
S'Adjusting Sights'
p1637
sI1636
S'The River'
p1638
sI1637
S'The Men Who Stare at Goats'
p1639
sI1638
S"Into a Paris Quartier: Reine Margot's Chapel and Other Haunts of St. Germain"
p1640
sI1639
S'How to Cook Everything: Easy Weekend Cooking'
p1641
sI1640
S'Storage Networking Essentials: A Complete Guide to Understanding & Implementing Sans'
p1642
sI1641
S'Ghostly Tales (Portraits of Little Women)'
p1643
sI1642
S'Perfume Dreams: Reflections on the Vietnamese Diaspora'
p1644
sI1643
S'For the New Intellectual: The Philosophy of Ayn Rand'
p1645
sI1644
S'Nickel and Dimed: On (Not) Getting by in America'
p1646
sI1645
S"Hatchet (Brian's Saga, #1)"
p1647
sI1646
S'Moonraker (James Bond #3)'
p1648
sI1647
S'Gita on the Green'
p1649
sI1648
S'Chandler: Later Novels and Other Writings'
p1650
sI1649
S'J.R.R. Tolkien 4-Book Boxed Set: The Hobbit and The Lord of the Rings'
p1651
sI1650
S'Georgia of the Jungle'
p1652
sI1651
S'Portrait of a Lady'
p1653
sI1652
S'Shibumi and the Kitemaker'
p1654
sI1653
S'Purpose Driven Life - For Commuters: What on Earth Am I Here For?'
p1655
sI1654
S'Thy Will Be Done: The Conquest of the Amazon : Nelson Rockefeller and Evangelism in the Age of Oil'
p1656
sI1655
S"Gentleman's Guide to Grooming and Style"
p1657
sI1656
S'Escape From Pompeii'
p1658
sI1657
S'Bleach, Volume 01'
p1659
sI1658
S'Emergence: The Connected Lives of Ants, Brains, Cities, and Software'
p1660
sI1659
S"The Secret Garden Cookbook: Recipes Inspired by Frances Hodgson Burnett's THE SECRET GARDEN"
p1661
sI1660
S"The Heroes of Shakespeare's Tragedies"
p1662
sI1661
S'A Clean Kill in Tokyo (John Rain, #1)'
p1663
sI1662
S'Hard Rain'
p1664
sI1663
S'Freud'
p1665
sI1664
S'The Emergence of Everything: How the World Became Complex'
p1666
sI1665
S'Lectures on Don Quixote'
p1667
sI1666
S'My Inventions'
p1668
sI1667
S'City of the Beasts (Eagle and Jaguar, #1)'
p1669
sI1668
S'The Long Tail: Why the Future of Business is Selling Less of More'
p1670
sI1669
S'If You Lived 100 Years Ago'
p1671
sI1670
S'The Lost Journals of Nikola Tesla: HAARP - Chemtrails and the Secret of Alternative 4'
p1672
sI1671
S'Worlds Beyond Dune Box'
p1673
sI1672
S'A Mouth Like Yours'
p1674
sI1673
S'Louisa May Alcott (Biography (a & E))'
p1675
sI1674
S'Tolstoy: Anna Karenina'
p1676
sI1675
S'Left-Hand Guitar Chord Chart'
p1677
sI1676
S'Dancing Shoes (Shoes, #9)'
p1678
sI1677
S'The Letters of John and Abigail Adams'
p1679
sI1678
S'Drina Dances In New York (Drina, #6)'
p1680
sI1679
S'A Modest Proposal and Other Satirical Works'
p1681
sI1680
S'A Wrinkle in Time: A Guide for Using "A Wrinkle in Time" in the Classroom'
p1682
sI1681
S"Liar's Poker"
p1683
sI1682
S"Cliffs Notes on Hemingway's The Old Man and the Sea"
p1684
sI1683
S'The Tenth Man: The Great Joke (Which Made Lazarus Laugh)'
p1685
sI1684
S'Charlotte Sometimes'
p1686
sI1685
S'The AutoCAD 3D Book'
p1687
sI1686
S'Ghosts (The New York Trilogy, #2)'
p1688
sI1687
S'Elizabeth and Her German Garden'
p1689
sI1688
S'A Home at the End of the World'
p1690
sI1689
S'Willem de Kooning: Paintings 1960-1980'
p1691
sI1690
S'Moby Dick (Graphic Classics)'
p1692
sI1691
S'An Edward Lear Alphabet'
p1693
sI1692
S'Moby Dick (Spark Notes Literature Guide)'
p1694
sI1693
S'How Invention Begins: Echoes of Old Voices in the Rise of New Machines'
p1695
sI1694
S'Emergence'
p1696
sI1695
S'All Families are Psychotic'
p1697
sI1696
S'Risotto: 30 Simply Delicious Vegetarian Recipes from an Italian Kitchen'
p1698
sI1697
S'The Power of One: The Solo Play for Playwrights, Actors, and Directors'
p1699
sI1698
S'Miami'
p1700
sI1699
S'Mandie and the Long Goodbye (Mandie Books, 30)'
p1701
sI1700
S'The Execution of Sherlock Holmes: And Other New Adventures of the Great Detective (Sherlock Holmes, #3)'
p1702
sI1701
S"The War of Don Emmanuel's Nether Parts"
p1703
sI1702
S'The First Stage Guitar Chord Chart: Learn How to Play the Most Commonly Played Guitar Chords!'
p1704
sI1703
S"Dave's Way"
p1705
sI1704
S'Haunted Places in America: A Guide to Spooked and Spooky Public Places in the United States'
p1706
sI1705
S'The Nature of Space and Time'
p1707
sI1706
S'The Fantastic Inventions of Nikola Tesla'
p1708
sI1707
S'The Bible According to Mark Twain'
p1709
sI1708
S'Zen and the Art of Motorcycle Maintenance: An Inquiry Into Values'
p1710
sI1709
S"I Ain't Scared of You: Bernie Mac on How Life Is"
p1711
sI1710
S'The Time Machine'
p1712
sI1711
S'Graphic Design: A History'
p1713
sI1712
S'The Prostitute in the Family Tree'
p1714
sI1713
S'How to Paint Your Motorcycle'
p1715
sI1714
S'David Copperfield'
p1716
sI1715
S'Once Again for Thucydides'
p1717
sI1716
S'The Complete Poetry and Prose of Geoffrey Chaucer'
p1718
sI1717
S'Hypercapitalism: New Media, Language, and Social Perceptions of Value'
p1719
sI1718
S'Complete Works of William Shakespeare'
p1720
sI1719
S'A Changeling for All Seasons'
p1721
sI1720
S'The Long Goodbye'
p1722
sI1721
S'Black Holes, Wormholes and Time Machines'
p1723
sI1722
S"Frommer's Maui 2005"
p1724
sI1723
S"No Ordinary Moments: A Peaceful Warrior's Guide to Daily Life"
p1725
sI1724
S'Brokeback Mountain'
p1726
sI1725
S'Noise'
p1727
sI1726
S'Babrius and Phaedrus (Loeb Classical Library #436)'
p1728
sI1727
S'Relationships for Dummies'
p1729
sI1728
S"Four Comedies: Lysistrata / The Frogs / The Birds / Ladies' Day"
p1730
sI1729
S'De Kooning: An American Master'
p1731
sI1730
S"Across the River: Walter & Oliver's Amazing Adventure"
p1732
sI1731
S'Earlier Writings (Library of Christian Classics)'
p1733
sI1732
S'A Taste for Death (Adam Dalgliesh #7)'
p1734
sI1733
S'The Great Gilly Hopkins'
p1735
sI1734
S'World History in Brief, Volume II (Chapters 14-33)'
p1736
sI1735
S'Open City (Issue #12)'
p1737
sI1736
S'Statesman'
p1738
sI1737
S'The Mediterranean Pantry: Creating and Using Condiments and Seasonings'
p1739
sI1738
S'Aglaia Konrad: Elasticity'
p1740
sI1739
S'The Love Artist'
p1741
sI1740
S'A Prayerbook for Spiritual Friends'
p1742
sI1741
S'Trek: David Carson, Recent Werk'
p1743
sI1742
S'Democracy in America'
p1744
sI1743
S'J.K.Lasser Pro Real Estate Investment Trusts: New Strategies for Portfolio Management'
p1745
sI1744
S'Daniel Defoe: Master of Fictions: His Life and Ideas'
p1746
sI1745
S'The 21 Irrefutable Laws Of Leadership, Workbook'
p1747
sI1746
S'Drina Dances in Madeira (Drina, #8)'
p1748
sI1747
S'Dragonball Z: An Unauthorized Guide'
p1749
sI1748
S'Flaubert: A Biography'
p1750
sI1749
S'Web Bloopers: 60 Common Web Design Mistakes And How To Avoid Them (Morgan Kaufmann Series In Interactive Technologies)'
p1751
sI1750
S'Grand Valley Dani: Peaceful Warriors'
p1752
sI1751
S'Oedipus Tyrannus: Tragic Heroism and the Limits of Knowledge'
p1753
sI1752
S"Taunton's Home Storage Idea Book"
p1754
sI1753
S'Political Philosophy and Rhetoric: A Study of the Origins of American Party Politics'
p1755
sI1754
S'The Adventures of Huckleberry Finn'
p1756
sI1755
S'The Complete Verse and Other Nonsense'
p1757
sI1756
S'The Owl and the Pussycat'
p1758
sI1757
S'Why Is Sex Fun? The Evolution of Human Sexuality (Science Masters)'
p1759
sI1758
S'The Old Way of Seeing: How Architecture Lost Its Magic - And How to Get It Back'
p1760
sI1759
S'The Emergence of Sociological Theory'
p1761
sI1760
S'Phaedrus (Large Print)'
p1762
sI1761
S'Alex & Penny Ballooning over Italy'
p1763
sI1762
S'The Power of One: Daisy Bates and the Little Rock Nine'
p1764
sI1763
S"Auggie Wren's Christmas Story"
p1765
sI1764
S'Cratylus'
p1766
sI1765
S'Time for the Stars'
p1767
sI1766
S'Atlas Shrugged & The Fountainhead'
p1768
sI1767
S'Bringing Up Boys'
p1769
sI1768
S'Hatchet: A Guide for Using "Hatchet" in the Classroom'
p1770
sI1769
S'Beyond Silence and Denial'
p1771
sI1770
S'The Importance of What We Care about: Philosophical Essays'
p1772
sI1771
S'The Ayn Rand Lexicon: Objectivism from A to Z (Ayn Rand Library)'
p1773
sI1772
S'The Portable Chaucer'
p1774
sI1773
S'Aristophanes 2: Wasps/Lysistrata/Frogs/The Sexual Congress'
p1775
sI1774
S'Willem De Kooning: Reflections in the Studio'
p1776
sI1775
S"Sun Tzu's the Art of War Plus Warrior Marketing: Strategy for Market Positioning"
p1777
sI1776
S'Rumer Godden'
p1778
sI1777
S'Sex For Dummies'
p1779
sI1778
S'Short Epics'
p1780
sI1779
S'Singers, Heroes, and Gods in the Odyssey: Life in a Modern Matriarchy'
p1781
sI1780
S'Cinnamon and Roses (Rose Trilogy, #1)'
p1782
sI1781
S'Men are From Mars, Women are From Venus Low Price CD'
p1783
sI1782
S'Whipping Star'
p1784
sI1783
S'The Complete Sailor: Learning the Art of Sailing'
p1785
sI1784
S"Hamlet's Mill: An Essay Investigating  the Origins of Human Knowledge & Its Transmission Through Myth"
p1786
sI1785
S'The Black Mass of Brother Springer'
p1787
sI1786
S'Hard Rain (Code Red #16)'
p1788
sI1787
S'Otis Redding: Try a Little Tenderness'
p1789
sI1788
S'The New York Trilogy'
p1790
sI1789
S'Bridge to Terabithia'
p1791
sI1790
S'The Longest Journey (Bantam Classic)'
p1792
sI1791
S"The Beginner's Guide to Real Estate Investing"
p1793
sI1792
S'True Tales of American Life'
p1794
sI1793
S'Naomi Klein y el fin de las marcas (Intelectuales)'
p1795
sI1794
S"Herman Melville's Moby-Dick: A Routledge Study Guide and Sourcebook"
p1796
sI1795
S'The Guitar Three-Chord Songbook: Play 50 Rock Hits with Only 3 Easy Chords'
p1797
sI1796
S'Trojan Women/Iphigenia Among the Taurians/Ion'
p1798
sI1797
S'How to Restore Your Motorcycle'
p1799
sI1798
S'The Bridge over the Drina'
p1800
sI1799
S'Hooking Up'
p1801
sI1800
S'A Wrinkle in Time (A Wrinkle in Time Quintet, #1)'
p1802
sI1801
S'Praise of Folly'
p1803
sI1802
S'The Tipping Point: How Little Things Can Make a Big Difference'
p1804
sI1803
S'Heidi'
p1805
sI1804
S'Boys of Summer'
p1806
sI1805
S"Golding's Lord of the Flies (Cliffs Notes)"
p1807
sI1806
S'Guns, Germs and Steel: The Fates of Human Societies'
p1808
sI1807
S'Harry Potter and the Goblet of Fire (Harry Potter, #4)'
p1809
sI1808
S'Four Plays: Medea / Hippolytus / Heracles / Bacchae'
p1810
sI1809
S"Listening to the Cicadas: A Study of Plato's Phaedrus"
p1811
sI1810
S'Dreamer of Dune: The Biography of Frank Herbert'
p1812
sI1811
S'The Curious Incident of the Dog in the Night-Time'
p1813
sI1812
S'Minds, Brains and Science'
p1814
sI1813
S"Gentleman's GD.to Etiquette"
p1815
sI1814
S'Chuva Forte'
p1816
sI1815
S'Sweet Dreams: Philosophical Obstacles to a Science of Consciousness'
p1817
sI1816
S'Ruby Quickly: Ruby and Rails for the Real World'
p1818
sI1817
S'In a Sunburned Country'
p1819
sI1818
S'The Leadership Pipeline: How to Build the Leadership-Powered Company'
p1820
sI1819
S'Anthem'
p1821
sI1820
S'Collected Papers in Greek and Georgian Textual Criticism'
p1822
sI1821
S'City as Comedy'
p1823
sI1822
S'The Thorn Birds'
p1824
sI1823
S'A Wrinkle in Time: A Reading Guide (Scholastic Bookfiles)'
p1825
sI1824
S'Pompeii: Public and Private Life'
p1826
sI1825
S"Green Shadows, White Whale: A Novel of Ray Bradbury's Adventures Making Moby Dick with John Huston in Ireland"
p1827
sI1826
S'The Illustrated Alchemist: A Fable about Following Your Dream'
p1828
sI1827
S'The Eleventh Hour: A Curious Mystery'
p1829
sI1828
S'Birds Without Wings - Unabridged'
p1830
sI1829
S'The Ultimate Guitar Chord Big Book: Over 100,000 Chords!'
p1831
sI1830
S'Theatre, a Way of Seeing: A Way of Seeing'
p1832
sI1831
S'Sun Tzu Was a Sissy: Conquer Your Enemies, Promote Your Friends, and Wage the Real Art of War'
p1833
sI1832
S'On Love: Lysis/Symposium/Phaedrus/Alcibiades/Selections from Republic & Laws'
p1834
sI1833
S'The Canterbury Tales in Modern Verse'
p1835
sI1834
S'The Mask of Comedy: Class, Gender, and Resistance'
p1836
sI1835
S'The Hours'
p1837
sI1836
S'The Modern Prince: Charles J. Haughey and the Quest for Power'
p1838
sI1837
S'Small Vices (Spenser, #24)'
p1839
sI1838
S'Secret Garden'
p1840
sI1839
S'The Trojan Women'
p1841
sI1840
S'Drina Goes on Tour (Drina, #10)'
p1842
sI1841
S"A Wrinkle in Time by Madeleine L'Engle: Study Guide"
p1843
sI1842
S'Adams-Jefferson Letters'
p1844
sI1843
S'Complete Stories, 1892-1898'
p1845
sI1844
S'The Best of the Achaeans: Concepts of the Hero in Archaic Greek Poetry'
p1846
sI1845
S'Creative Sparks: An Index of 150+ Concepts, Images and Exercises to Ignite Your Design Ingenuity'
p1847
sI1846
S'Simple Handmade Storage: 23 Step-By-Step Weekend Projects'
p1848
sI1847
S'On, Off (Carmine Delmonico, #1)'
p1849
sI1848
S'Great Short Works of Herman Melville'
p1850
sI1849
S'Richest Man In Babylon For Today'
p1851
sI1850
S'The Fifth Mountain'
p1852
sI1851
S"A Don't Sweat the Small Stuff Treasury: A Special Selection for Mothers"
p1853
sI1852
S'Orestes and Other Plays'
p1854
sI1853
S'Death of an Expert Witness (Adam Dalgliesh #6)'
p1855
sI1854
S'History in the Making: An Absorbing Look at How American History Has Changed in the Telling over the Last 200 Years'
p1856
sI1855
S"Stephen Hawking's Universe"
p1857
sI1856
S"The Hit Man's Dilemma: Or Business, Personal and Impersonal"
p1858
sI1857
S"Ruby's Low-Fat Soul Food Cookbook"
p1859
sI1858
S"Jon Krakauer's Adventure on Mt. Everest"
p1860
sI1859
S'Women of Troy'
p1861
sI1860
S'Theocritus: Select Poems: Select Poems'
p1862
sI1861
S"The Art of War: Sun Tzu's Classis in Plain English with Sun Pin's: The Art of Warfare"
p1863
sI1862
S'Sun Tzu For Success: How to Use the Art of War to Master Challenges and Accomplish the Important Goals in Your Life'
p1864
sI1863
S'The Articulate Executive: Learn to Look, ACT, and Sound Like a Leader'
p1865
sI1864
S'Euripides: Helen, Phoenician Women, Orestes'
p1866
sI1865
S'Howards End'
p1867
sI1866
S'The Red Hot Cookbook: Create a Culinary Inferno with Flaming Good Recipes from Around the World'
p1868
sI1867
S'Tai Chi Chuan: Aplicaciones Marciales:  Estilo Yang Avanzado De Tai Chi Chuan'
p1869
sI1868
S'The Long Shadow (The Morland Dynasty, #6)'
p1870
sI1869
S"Don DeLillo's White Noise (Bloom's Modern Critical Interpretations)"
p1871
sI1870
S'American Government; Continuity and Change'
p1872
sI1871
S'The Mini Rough Guide to London'
p1873
sI1872
S"Lincoln's Gettysburg Address in Translation"
p1874
sI1873
S'Aristophanes 1: Clouds/Wasps/Birds'
p1875
sI1874
S'The Wonder of Boys: What Parents, Mentors and Educators Can Do to Shape Boys into Exceptional Men'
p1876
sI1875
S'An Art of Desire: Reading Paul Auster'
p1877
sI1876
S'The House of God'
p1878
sI1877
S'Open City 6: The Only Woman He Ever Left'
p1879
sI1878
S'The Fall of the Amazing Zalindas  (Sherlock Holmes and the Baker Street Irregulars #1)'
p1880
sI1879
S"A Don't Sweat the Small Stuff Treasury: A Special Collection for the Office"
p1881
sI1880
S"The Tragedy of Pudd'nhead Wilson/Those Extraordinary Twins"
p1882
sI1881
S'The Oedipus Plays of Sophocles: Oedipus the King; Oedipus at Colonus; Antigone'
p1883
sI1882
S"The River (Brian's Saga, #2)"
p1884
sI1883
S"Sophocles' Tragic World: Divinity, Nature, Society"
p1885
sI1884
S'The Whaleship Essex: The True Story of Moby Dick'
p1886
sI1885
S'Disney: The First 100 Years'
p1887
sI1886
S'Generation X: Tales for an Accelerated Culture'
p1888
sI1887
S"The Cod's Tale"
p1889
sI1888
S'Privileged Witness (Witness Series, #3)'
p1890
sI1889
S'Guitar Case Chord Book in Full Color - Compact Music Guides Series'
p1891
sI1890
S'Love & Transformation: An Ovid Reader'
p1892
sI1891
S'Cod: A Biography of the Fish that Changed the World'
p1893
sI1892
S'Public Places-Urban Spaces: The Dimensions of Urban Design'
p1894
sI1893
S'E.M. Forster'
p1895
sI1894
S'The Lord of the Rings (The Lord of the Rings, #1-3)'
p1896
sI1895
S"Public Places: My Life in the Theater, with Peter O'Toole and Beyond"
p1897
sI1896
S'The Richest Man in Babylon: The Success Secrets of the Ancients'
p1898
sI1897
S'Rudy! An Investigative Biography Of Rudolph Giuliani'
p1899
sI1898
S'Children of Heracles. Hippolytus. Andromache. Hecuba'
p1900
sI1899
S'Moby Dick: Library Edition'
p1901
sI1900
S'The Three Theban Plays: Antigone / Oedipus the King / Oedipus at Colonus'
p1902
sI1901
S'A Storm Without Rain: A Novel in Time'
p1903
sI1902
S'Jazz Guitar Chord Solos'
p1904
sI1903
S'Snow Crash: The Official Strategy Guide'
p1905
sI1904
S'Parmenides/Philebus/Symposium/Phaedrus/Alcibiades 1-2/Hipparchus/Amatores (Platonis Opera, #2)'
p1906
sI1905
S"Death and the King's Horseman"
p1907
sI1906
S'The Curious Incident of the Dog In the Night-time'
p1908
sI1907
S"The Creative Myth and the Cosmic Hero: Text and Context in Ernest Becker's the Denial of Death"
p1909
sI1908
S"Don't Despair on Thursdays!: The Children's Grief-Management Book"
p1910
sI1909
S'The Simple Art of Murder'
p1911
sI1910
S'The Mouse and the Motorcycle (Read-Aloud Edition)'
p1912
sI1911
S"Liar's Poker: A Harry Garnish Mystery"
p1913
sI1912
S"Jim Cramer's Mad Money: Watch TV, Get Rich"
p1914
sI1913
S'The Power Broker: Robert Moses and the Fall of New York'
p1915
sI1914
S'Memorial del Convento'
p1916
sI1915
S'Enchanted April: Acting Edition'
p1917
sI1916
S'Gorgias/Timaeus'
p1918
sI1917
S'Of Mice and Men'
p1919
sI1918
S'Una semana de invierno'
p1920
sI1919
S'The Lord of the Rings: Weapons and Warfare'
p1921
sI1920
S'The Third Chimpanzee: The Evolution & Future of the Human Animal'
p1922
sI1921
S'Moby Dick: or The White Whale (Oxford Illustrated Classics)'
p1923
sI1922
S"Jane Austen's Letters"
p1924
sI1923
S'Walk Fast, Talk Loud and Smile: How to Succeed in Sales and Have Fun Doing It'
p1925
sI1924
S'Orient Express'
p1926
sI1925
S'Alcestis'
p1927
sI1926
S"Betty Crocker's Picture Cookbook, Facsimile Edition"
p1928
sI1927
S'Fats That Heal, Fats That Kill'
p1929
sI1928
S"A Don't Sweat the Small Stuff Treasury: A Special Selection for Teachers"
p1930
sI1929
S'Essence and Alchemy: A Book of Perfume'
p1931
sI1930
S'Classical Period : Poetics of Drama (Greek Literature, Volume 3)'
p1932
sI1931
S'Electronic Structure: Basic Theory and Practical Methods'
p1933
sI1932
S'The Big Sleep'
p1934
sI1933
S'A Catholic Perspective on the Purpose Driven Life'
p1935
sI1934
S'Der Sturz von Hyperion'
p1936
sI1935
S'Doubting Thomas'
p1937
sI1936
S'The Golden Tulip'
p1938
sI1937
S'The Quiet American'
p1939
sI1938
S'Warrior of the Light'
p1940
sI1939
S'Jazz Guitar Chord Workout'
p1941
sI1940
S'Scholar of Decay (Ravenloft, #14)'
p1942
sI1941
S'La Place de la Concorde Suisse'
p1943
sI1942
S'A Modest Proposal (Literary Casebook Series)'
p1944
sI1943
S'Kindred Spirit: A Biography of L. M. Montgomery, Creator of Anne of Green Gables'
p1945
sI1944
S'The Exp 48 Laws of Power'
p1946
sI1945
S'Avalanche'
p1947
sI1946
S'The Secret Garden'
p1948
sI1947
S'Protagoras/Philebus/Gorgias'
p1949
sI1948
S'Leadership in Organizations'
p1950
sI1949
S"Don't Panic: Douglas Adams & The Hitchhiker's Guide to the Galaxy"
p1951
sI1950
S'The Road to Dune (Dune Universe)'
p1952
sI1951
S'The Wish Giver: Three Tales of Coven Tree (Trophy Newbery)'
p1953
sI1952
S'The Gorgias of Plato'
p1954
sI1953
S'Madame Bovary'
p1955
sI1954
S'Dragonball Z: Extreme Glow-in-the-dark Sticker Activity'
p1956
sI1955
S'Ethnic Variations in Dying, Death and Grief: Diversity in Universality'
p1957
sI1956
S'The Bone Collector (Lincoln Rhyme, #1)'
p1958
sI1957
S'Girlfriend in a Coma'
p1959
sI1958
S'Harry Potter Collection (Harry Potter, #1-6)'
p1960
sI1959
S'Perimenopause the Natural Way'
p1961
sI1960
S'Grief Lessons: Four Plays by Euripides'
p1962
sI1961
S"The Hitchhiker's Guide to the Galaxy: Quintessential Phase (Hitchhiker's Guide: Radio Play, #5)"
p1963
sI1962
S'Aeschylus 2: The Persians/Seven Against Thebes/The Suppliants/Prometheus Bound'
p1964
sI1963
S'Guitar Chord Songbook: Classic Rock'
p1965
sI1964
S'Untouchable'
p1966
sI1965
S"Our Kind of People: Inside America's Black Upper Class"
p1967
sI1966
S'Jane Austen: The Complete Novels'
p1968
sI1967
S'The Winning Investment Habits of Warren Buffett & George Soros'
p1969
sI1968
S'Ballet Shoes for Anna'
p1970
sI1969
S'In an Uncertain World: Tough Choices from Wall Street to Washington'
p1971
sI1970
S'Angels and Demons in Art'
p1972
sI1971
S'Ready for Anything: 52 Productivity Principles for Getting Things Done'
p1973
sI1972
S"Plato's Erotic Dialogues: Symposium/Phaedrus (Ancient Greek Philosophy)"
p1974
sI1973
S"Children's Songs: Guitar Chord Songbook"
p1975
sI1974
S'Daily Reflections For Highly Effective People : Living The 7 Habits Of Highly Successful People Every Day'
p1976
sI1975
S'The City of God'
p1977
sI1976
S'The Ravishing of Lol Stein'
p1978
sI1977
S'Harriet the Spy, Double Agent (Harriet the Spy Adventures)'
p1979
sI1978
S'Steering a New Course: Transportation, Energy, and the Environment'
p1980
sI1979
S'The Gandhi Quartet'
p1981
sI1980
S'Letterhead and Logo Design 9'
p1982
sI1981
S'La Caida de Hyperion'
p1983
sI1982
S'The Good Earth (House of Earth, #1)'
p1984
sI1983
S'The History of Graphic Design'
p1985
sI1984
S'How to Cook Everything: The Basics: Simple Recipes Anyone Can Cook'
p1986
sI1985
S'Fullmetal Alchemist, Vol. 3 (Fullmetal Alchemist, #3)'
p1987
sI1986
S'Teaching English Abroad'
p1988
sI1987
S"Phil Gordon's Little Green Book: Lessons and Teachings in No Limit Texas Hold'em"
p1989
sI1988
S'Henry Miller on Writing'
p1990
sI1989
S'Los Cinco Lenguajes Del Amor/the Five Languages of Love'
p1991
sI1990
S"A Don't Sweat the Small Stuff Treasury: A Special Selection for Fathers"
p1992
sI1991
S'The Hyperion Omnibus: Hyperion / The Fall of Hyperion'
p1993
sI1992
S'Teaching with the Brain in Mind'
p1994
sI1993
S'Think and Grow Rich: Instant Motivator'
p1995
sI1994
S'First Love, Last Rites'
p1996
sI1995
S'The Birds and Other Plays'
p1997
sI1996
S'Against the Day'
p1998
sI1997
S'Huck Finn and Tom Sawyer Among the Indians'
p1999
sI1998
S'Leadership and Self-Deception: Getting Out of the Box'
p2000
sI1999
S'The Effective Corrections Manager: Correctional Supervision for the Future'
p2001
sI2000
S'The Book of Illumination: Kitab al-Tanwir fi Isqat al-Tadbir'
p2002
sI2001
S'Growing Little Women: Capturing Teachable Moments with Your Daughter'
p2003
sI2002
S'John Adams'
p2004
sI2003
S'Roadside Guide to Indian Ruins & Rock Art of the Southwest'
p2005
sI2004
S'The Way We Die Now'
p2006
sI2005
S'Eleanor Rigby'
p2007
sI2006
S'The Untouchable'
p2008
sI2007
S'A Walk to Remember'
p2009
sI2008
S'Thucydides Reader: Annotated Passages from Books I-VIII of the Histories'
p2010
sI2009
S'The Lord of the Rings- 3 volumes set (The Lord of the Rings, #1-3)'
p2011
sI2010
S'Writing'
p2012
sI2011
S'Aristophanes: An Author for the Stage'
p2013
sI2012
S'Lucretius on Death and Anxiety: Poetry and Philosophy in de Rerum Natura'
p2014
sI2013
S'Rails Cookbook: Recipes for Rapid Web Development with Ruby'
p2015
sI2014
S'Horace\'s "Carmen Saeculare": Ritual Magic and the Poet`s Art'
p2016
sI2015
S'The Mysteries of Sherlock Holmes (Illustrated Junior Library)'
p2017
sI2016
S"Kierkegaard's Relations to Hegel Reconsidered"
p2018
sI2017
S'Personal Finance For Dummie$ For Canadians'
p2019
sI2018
S'How to Draw Dragonball'
p2020
sI2019
S'The Fables of Phaedrus'
p2021
sI2020
S'Kinds Of Minds: The Origins Of Consciousness (SCIENCE MASTERS)'
p2022
sI2021
S'The Wit and Wisdom of Mark Twain'
p2023
sI2022
S'Truth Decay: Defending Christianity Against the Challenges of Postmodernism'
p2024
sI2023
S'The Terror'
p2025
sI2024
S'The Interpreters'
p2026
sI2025
S'London is the Best City in America'
p2027
sI2026
S'American Government: Continuity and Change, Alternate Edition'
p2028
sI2027
S'Keys to Investing in Real Estate'
p2029
sI2028
S'Selected Poems of Herman Melville'
p2030
sI2029
S'On the Beaten Path: An Appalachian Pilgrimage'
p2031
sI2030
S'The Changeling'
p2032
sI2031
S'One Hundred Years of Solitude'
p2033
sI2032
S'The Witches of Worm'
p2034
sI2033
S'Collected Stories, 1911-1937'
p2035
sI2034
S'The Wedding Clause'
p2036
sI2035
S'Redburn'
p2037
sI2036
S'The Game: Penetrating the Secret Society of Pickup Artists'
p2038
sI2037
S'Tomcat in Love'
p2039
sI2038
S'Cambridge Wizard Student Guide The Curious Incident of the Dog in the Night Time (Cambridge Wizard English Student Guides)'
p2040
sI2039
S'The Iliad'
p2041
sI2040
S'The Virtue of Selfishness: A New Concept of Egoism'
p2042
sI2041
S'The Lost Boy (Dave Pelzer #2)'
p2043
sI2042
S'What If the Zebras Lost Their Stripes?'
p2044
sI2043
S'Quiet Days in Clichy'
p2045
sI2044
S'Murder at The Washington Tribune (Capital Crimes, #21)'
p2046
sI2045
S'La Dama y El Unicornio'
p2047
sI2046
S'Cuentos de Eva Luna'
p2048
sI2047
S"Ender's Game (Ender's Saga, #1)"
p2049
sI2048
S"Today's Chicago Blues"
p2050
sI2049
S"Dionysiac Poetics and Euripides' -Bacchae-"
p2051
sI2050
S'Now Zen'
p2052
sI2051
S'Vintage Didion'
p2053
sI2052
S"Men: A User's Guide"
p2054
sI2053
S'In the Garden: Essays in Honor of Frances Hodgson Burnett'
p2055
sI2054
S'Hunters Of Dune (Dune Chronicles, #7)'
p2056
sI2055
S'Quicksilver (The Baroque Cycle, #1)'
p2057
sI2056
S'From Russia With Love (James Bond, #5)'
p2058
sI2057
S'Point Deception (Cape Perdido, #1)'
p2059
sI2058
S'Walk Gently This Good Earth'
p2060
sI2059
S'Homeric Questions'
p2061
sI2060
S"The Kids' Book about Death and Dying"
p2062
sI2061
S"Cliffs Notes on Stevenson's Treasure Island and Kidnapped"
p2063
sI2062
S'The Untouchables'
p2064
sI2063
S"Real Estate Riches (Rich Dad's Advisors (Audio)) [ABRIDGED] (Rich Dad's Advisors (Audio))"
p2065
sI2064
S'HTML, XHTML, and CSS (Visual Quickstart Guide)'
p2066
sI2065
S"Gentleman's Guide To Professional Appearance"
p2067
sI2066
S"Cleon, Knights, and Aristophanes' Politics"
p2068
sI2067
S'Microserfs'
p2069
sI2068
S'Vance Packard & American Social Criticism'
p2070
sI2069
S'Taxonomic Monograph  of the Genus Aglaia (Meliaceae)'
p2071
sI2070
S"Guns, Germs, and Steel (SparkNotes B&N Reader's Companion)"
p2072
sI2071
S'Euripides: Iphigenia at Aulis (Companions to Greek & Roman Tragedy)'
p2073
sI2072
S"The Leader's Handbook: Making Things Happen, Getting Things Done"
p2074
s.