(dp1
S'Holy Cow!'
p2
I0
sS'Red Dog'
p3
I1
sS'Nineveh and Its Remains, Volume 1'
p4
I2
sS'Aristophanes and Athens: An Introduction to the Plays'
p5
I3
sS'Hello, Lied the Agent: And Other Bullshit You Hear as a Hollywood TV Writer'
p6
I4
sS'Life of Pi'
p7
I5
sS'Head First HTML with CSS & XHTML'
p8
I6
sS'Men Are from Mars, Women Are from Venus: Secrets of Passion/Audio Cassette'
p9
I7
sS"An Artist's Way Of Seeing"
p10
I8
sS'A Wrinkle in Time: LitPlan Teacher Pack'
p11
I9
sS'City Eclogue'
p12
I10
sS'Small Gardens: How to Get the Most Impact from the Least Space'
p13
I11
sS'Sex in Middlesex: Popular Mores in a Massachusetts County, 1649-1699'
p14
I12
sS"Breakfast at Tiffany's: A Short Novel and Three Stories"
p15
I13
sS'The Bridge on the Drina'
p16
I14
sS'The No-Salt, Lowest-Sodium Cookbook: Hundreds of Favorite Recipes Created to Combat Congestive Heart Failure and Dangerous Hypertension'
p17
I15
sS'A People and a Nation: A History of the United States, Dolphin Edition - Complete'
p18
I16
sS'A Wrinkle in Time: Student Packet'
p19
I17
sS'Kahlil Gibran: His Life and World'
p20
I18
sS"Madeleine L'Engle: Author of a Wrinkle in Time (People in Focus)"
p21
I19
sS'Akin to Anne: Tales of Other Orphans'
p22
I169
sS'Warren Buffett:: Master of the Market'
p23
I21
sS'A Taste for Death (Adam Dalgliesh #7)'
p24
I1732
sS'The Advanced Guitar Case Chord Book: Compact Reference Library'
p25
I23
sS'The Languages of Native North America'
p26
I24
sS"I'm a Stranger Here Myself: Notes on Returning to America after Twenty Years Away"
p27
I25
sS'The Essential Cook: Everything You Really Need to Know about Foods and Cooking Except the Recipes'
p28
I26
sS'Clouds/Wasps/Peace'
p29
I27
sS'Way of the Peaceful Warrior: A Book That Changes Lives'
p30
I28
sS'From Java to Ruby'
p31
I29
sS'Red Hot Chili Peppers'
p32
I30
sS'The Book of Life: Ascension and the Divine World Order'
p33
I31
sS'The Dosadi Experiment (ConSentiency Universe, #2)'
p34
I32
sS'Peripheral (Post) Modernity: The Syncretist Aesthetics of Borges, Piglia, Kalokyris and Kyriakidis'
p35
I33
sS'The Path to Buddha: A Tibetan Pilgrimage'
p36
I34
sS'Transgender Emergence: Therapeutic Guidelines for Working with Gender-Variant People and Their Families'
p37
I35
sS"Your Baby's First Year for Dummies"
p38
I36
sS'Together Alone: Personal Relationships in Public Places'
p39
I37
sS'Molly Hatchet - 5 of the Best'
p40
I1375
sS'Greek Bucolic Poets: Theocritus. Bion. Moschus'
p41
I39
sS'The Oxford Shakespeare: The Complete Works'
p42
I40
sS'The Fountainhead: An American Novel'
p43
I41
sS'John Adams and the Spirit of Liberty'
p44
I42
sS'Olympos (Ilium, #2)'
p45
I1379
sS'Memory of Fire (The World Gates, #1)'
p46
I44
sS'Classics: A Discipline and Profession in Crisis?'
p47
I45
sS"Not Your Mother's Slow Cooker Cookbook"
p48
I46
sS'Pride and Prejudice'
p49
I321
sS'Lovely in Her Bones (Elizabeth MacPherson, #2)'
p50
I48
sS'The Three Ways of Getting Things Done: Hierarchy, Heterarchy and Responsible Autonomy in Organizations'
p51
I49
sS'Introducing Mind & Brain'
p52
I50
sS'Gorgias'
p53
I51
sS'The Letters of J.R.R. Tolkien'
p54
I52
sS"Moonraker's Bride"
p55
I53
sS'Getting Things Done: The Art of Stress-Free Productivity'
p56
I684
sS'The Art of War by Sun Tzu - Special Edition'
p57
I55
sS'Wedding Wishes and Woes (The Story Girl #6)'
p58
I56
sS'Art Invention House'
p59
I57
sS'The Ghost Stories of Edith Wharton'
p60
I58
sS'Meditation, Compassion & Lovingkindness: An Approach to Vipassana Practice'
p61
I476
sS'Wire'
p62
I59
sS'The Alchemist'
p63
I60
sS'Off the Main Sequence: The Other Science Fiction Stories of Robert A. Heinlein'
p64
I61
sS'No Room for Francie'
p65
I62
sS'Oliver Twist'
p66
I63
sS"The Facilitator's Book of Questions: Tools for Looking Together at Student and Teacher Work"
p67
I1383
sS'The Music of Chance'
p68
I65
sS'Ever Wonder Why? and Other Controversial Essays'
p69
I66
sS'Ovid\'s "Metamorphoses"'
p70
I67
sS'Logo Design Workbook: A Hands-On Guide to Creating Logos'
p71
I68
sS'The Hunters'
p72
I69
sS'Ziggy the Zebra'
p73
I70
sS'The World is Flat'
p74
I71
sS"Chaucer's Canterbury Tales (Selected): An Interlinear Translation"
p75
I72
sS'Batman: Holy Terror'
p76
I73
sS'The Language of New Media'
p77
I74
sS"The Dolls' House"
p78
I75
sS'Practice! Practice!: A Latin Via Ovid Workbook'
p79
I76
sS'Caesar (Masters of Rome, #5)'
p80
I77
sS'Ulysses: The Amazing Adventures of'
p81
I78
sS'Salmon of Doubt: Hitchhiking the Galaxy One Last Time'
p82
I79
sS'Reading Families'
p83
I540
sS'Powers Unlimited One: A Sourcebook for Heroes Unlimited (Heroes Unlimited, #1)'
p84
I81
sS'Skeptic in the House of God'
p85
I546
sS'The Automatic Millionaire Workbook: A Personalized Plan to Live and Finish Rich. . . Automatically'
p86
I83
sS'Three Nights in August: Strategy, Heartbreak, and Joy Inside the Mind of a Manager'
p87
I84
sS'First Comes Love: All About the Birds and the Bees--and Alligators, Possums, and People, Too'
p88
I1050
sS'How to Meet Beautiful Women'
p89
I86
sS"The Diamond Age: or, A Young Lady's Illustrated Primer"
p90
I87
sS'Tom Hunter: Living in Hell and Other Stories'
p91
I88
sS'Money to Burn'
p92
I89
sS'Guitar Chord Guru: The Chord Book - Your Guide for Success!'
p93
I1390
sS'The Zebra Wall'
p94
I91
sS'The Language of New Media Design: Theory and Practice'
p95
I92
sS'Aeschylus: Seven Plays (Complete Greek Tragedies, #1)'
p96
I93
sS'A Tomb for Anatole: Poetry'
p97
I690
sS'The Five Love Languages'
p98
I95
sS'The Bacchae of Euripides'
p99
I96
sS'An Iliad'
p100
I97
sS'The Second John McPhee Reader (John McPhee Reader, #2)'
p101
I98
sS'Lance Armstrong: A Biography'
p102
I100
sS'The Ecclesiazusae (or Women in Council)'
p103
I101
sS'On Bullshit'
p104
I102
sS"The Compleat Gentleman: The Modern Man's Guide to Chivalry"
p105
I103
sS'Comoediae 1: Acharenses/Equites/Nubes/Vespae/Pax/Aves'
p106
I104
sS'Gabriel Garcia Marquez'
p107
I105
sS'Three Plays: The Wasps / The Poet and the Women / The Frogs'
p108
I106
sS'Dragonball Z: How To Draw Ii'
p109
I107
sS'Simply Sicilian: Family Recipes'
p110
I108
sS'Historia del cerco de Lisboa'
p111
I109
sS'Into the Wild'
p112
I110
sS'Leadership: Theory and Practice'
p113
I111
sS'The Purpose-Driven Life'
p114
I112
sS'Agile Web Development with Rails: A Pragmatic Guide'
p115
I113
sS'120 Studies for Right Hand Development'
p116
I114
sS'The Tenants'
p117
I115
sS'Drina Dances in Madeira (Drina, #8)'
p118
I1746
sS'Blessing the Bridge: What Animals Teach Us About Death, Dying, and Beyond'
p119
I117
sS'Hunting the Hunter (On the Run, #6)'
p120
I718
sS'Life Is a Road, the Soul Is a Motorcycle'
p121
I119
sS'A Tear and a Smile'
p122
I120
sS'The Judge (Paul Madriani, #4)'
p123
I121
sS'The Politically Incorrect Guide to American History'
p124
I122
sS'The Salmon of Doubt: Hitchhiking the Galaxy One Last Time'
p125
I123
sS'To Kill a Mockingbird'
p126
I124
sS'Out to Eat London 2001 (Lonely Planet)'
p127
I125
sS"101 Reasons to Own the World's Greatest Investment: Warren Buffett's Berkshire Hathaway"
p128
I762
sS'Ovid: The Art of Love and Other Poems (Loeb Classical Library No. 232)'
p129
I127
sS'Birth Marks: The Tragedy of Primogeniture in Pierre Corneille, Thomas Corneille, and Jean Racine'
p130
I128
sS'Power and Struggle'
p131
I129
sS'Elektra'
p132
I130
sS'Nickel and Dimed: On (Not) Getting By in America'
p133
I131
sS'Grand Valley Dani: Peaceful Warriors'
p134
I1750
sS'Beating the Odds'
p135
I133
sS'The Power of One Christlike Life'
p136
I134
sS'Harry Potter Schoolbooks Box Set: Two Classic Books from the Library of Hogwarts School of Witchcraft and Wizardry'
p137
I135
sS"Pindar's Mythmaking: The Fourth Pythian Ode"
p138
I136
sS'Cockfighter'
p139
I137
sS"Drina's Dancing Year (Drina, #2)"
p140
I138
sS'The Fables of Phaedrus'
p141
I2019
sS'Sideswipe'
p142
I139
sS'The Egypt Game (Game, #1)'
p143
I140
sS'The Long Goodbye. Based on the Novel by Raymond Chandler'
p144
I141
sS'Helen'
p145
I142
sS"God's Grace"
p146
I143
sS'Four Complete Novels'
p147
I144
sS'The Power of a City at Prayer: What Happens When Churches Unite'
p148
I145
sS'Tristia. Ex Ponto'
p149
I146
sS'Agamemnon (Oresteia, #1)'
p150
I147
sS'Histories of Sexuality: Antiquity to Sexual Revolution'
p151
I148
sS'Nursing Diagnosis Reference Manual'
p152
I149
sS'A Lonely Resurrection (John Rain, #2)'
p153
I150
sS'Insights on Death & Dying'
p154
I151
sS'Great Expectations: Authoritative Text, Backgrounds, Contexts, Criticism (Critical Editions)'
p155
I152
sS'Deception Point'
p156
I153
sS'Economic Literacy: Basic Economics with an Attitude'
p157
I918
sS'The Graham Greene Film Reader'
p158
I155
sS'Competing for Customers and Capital'
p159
I156
sS'World History in Brief: Major Patterns of Change and Continuity, Volume II: Since 1450'
p160
I157
sS"Bryson's Dictionary of Troublesome Words: A Writer's Guide to Getting It Right"
p161
I158
sS'Sand and Foam'
p162
I159
sS'Changeling (Changeling, #1)'
p163
I160
sS'If You Were There in 1776'
p164
I161
sS'Stover at Yale'
p165
I162
sS'The Syriac Church and Fathers'
p166
I163
sS'Practical Subversion'
p167
I164
sS"Fanaroff and Martin's Neonatal-Perinatal Medicine: Diseases of the Fetus and Infant (Expert Consult - Online and Print) (2-Volume Set)"
p168
I165
sS'The Unfortunate Tobacconist & Other Mysteries (Sherlock Holmes 1-6)'
p169
I166
sS'Daniel Deronda Notebooks'
p170
I167
sS'The World Is Flat: A Brief History Of The Twenty-First Century'
p171
I168
sS'Ballet Shoes: A Story of Three Children on the Stage (Shoes, #1)'
p172
I211
sS'The Complete Plays'
p173
I170
sS"The Color of Love: An Artist's Book of Poetry and Passion"
p174
I171
sS'Aleppo Tales'
p175
I172
sS'Molokai (Pacific Classics, No. 4) (Pacific Classics, # 4)'
p176
I173
sS'Confesiones de un chef = Kitchen Confidential (Punto de Lectura) (Spanish Edition)'
p177
I174
sS'City of Glass (The New York Trilogy, #1)'
p178
I175
sS'The Battles of Dune'
p179
I176
sS"A People's History of the United States"
p180
I177
sS'Letters of Ayn Rand'
p181
I178
sS'A Grammar of the Icelandic or Old Norse Tongue'
p182
I179
sS'Rudy Giuliani: Emperor of the City'
p183
I180
sS"Dr. Pitcairn's Complete Guide to Natural Health for Dogs & Cats"
p184
I181
sS'The Art of Love'
p185
I182
sS'Church is Stranger Than Fiction'
p186
I183
sS'Sexus (The Rosy Crucifixion, #1)'
p187
I184
sS'The Racketty-Packetty House'
p188
I185
sS'Day by Day with Saint Augustine'
p189
I186
sS'Aristophanes'
p190
I187
sS'A Million Little Pieces of Feces'
p191
I188
sS'The Song of Troy'
p192
I189
sS'Jazz Guitar Chord System'
p193
I190
sS"Meg's Dearest Wish (Madame Alexander Little Women Journals)"
p194
I191
sS'Amazons: An Intimate Memoir by the First Woman Ever to Play in the National Hockey League'
p195
I192
sS'Whitethorn'
p196
I193
sS'True Believer (Jeremy Marsh & Lexie Darnell, #1)'
p197
I194
sS'Further Adventures of Huck Finn'
p198
I195
sS'Genres in Dialogue: Plato and the Construct of Philosophy'
p199
I196
sS'The Nonsense Verse Of Edward Lear'
p200
I1166
sS'Harry Potter Paperback Boxed Set, Books 1-5 (Harry Potter, #1-5)'
p201
I198
sS'Hamlet: An Authoritative Text, Intellectual Backgrounds, Extracts from the Sources, Essays in Criticism (Norton Critical Edition)'
p202
I199
sS"Sophocles' Antigone"
p203
I200
sS'History of the Peloponnesian War: Bk. 1-2 (Loeb Classical Library)'
p204
I201
sS'Lost Horizon'
p205
I202
sS'The Modern Prince and Other Writings'
p206
I203
sS'The Long Italian Goodbye'
p207
I204
sS'Splish Splash!: A Book about Rain'
p208
I1402
sS'1000 Record Covers'
p209
I206
sS"Louisa May Alcott's Christmas Treasury"
p210
I207
sS'Bleach, Tome 1: The Death and the Strawberry'
p211
I208
sS"George Eliot and Judaism: An Attempt to Appreciate 'Daniel Deronda'"
p212
I209
sS'Athena (The Freddie Montgomery Trilogy, #3)'
p213
I210
sS'Body for Life for Women: 12 Weeks to a Firm, Fit, Fabulous Body at Any Age'
p214
I212
sS'Idylls'
p215
I213
sS'Mapping the Big Picture: Integrating Curriculum & Assessment K-12'
p216
I214
sS'Basic Economics'
p217
I215
sS'The Forerunner: His Parables and Poems'
p218
I1293
sS'Collected Travel Writings: The Continent'
p219
I217
sS'Guide to Rock Art of the Utah Region: Sites with Public Access'
p220
I218
sS"Warren Buffett Speaks: Wit and Wisdom from the World's Greatest Investor"
p221
I219
sS'Power of One'
p222
I220
sS'Getting Results with Curriculum Mapping'
p223
I221
sS'The Pilgrimage: A Contemporary Quest for Ancient Wisdom'
p224
I222
sS'By the River Piedra I Sat Down and Wept'
p225
I223
sS"The Forewarned Investor: Don't Get Fooled Again by Corporate Fraud"
p226
I224
sS"The Phoenician Solar Theology: An Investigation Into the Phoenician Opinion of the Sun Found in Julian's Hymn to King Helios"
p227
I225
sS"Phil Gordon's Poker Box Set: Phil Gordon's Little Black Book, Phil Gordon's Little Green Book, Phil Gordon's Little Blue Book"
p228
I226
sS'The Salmon of Doubt'
p229
I227
sS'Thomas Cole'
p230
I228
sS'Intertextuality and the Reading of Roman Poetry'
p231
I229
sS"Anne's World, Maud's World: The Sacred Sites of L.M. Montgomery"
p232
I230
sS'Rudolph Giuliani'
p233
I231
sS'The Broker'
p234
I1078
sS'Moby Dick: Or, the White Whale (Oxford Illustrated Classics Series)'
p235
I233
sS'The Reasons of Love'
p236
I234
sS'Moon Palace'
p237
I235
sS'Naked Pictures of Famous People'
p238
I236
sS'The Locked Room (The New York Trilogy, #3)'
p239
I237
sS'Alex & Penny in Egypt'
p240
I238
sS'The Basic Principles of Marketing Warfare'
p241
I239
sS'King of the Vagabonds (The Baroque Cycle, Vol. 1, Book 2)'
p242
I240
sS"MAXNotes Literature Guides: Harper Lee's To Kill a Mockingbird"
p243
I241
sS'Great Expectations'
p244
I242
sS"Thucydides Book I: A Students' Grammatical Commentary"
p245
I243
sS'Gates of Fire: An Epic Novel of the Battle of Thermopylae'
p246
I244
sS'The Enchiridion on Faith Hope and Love (Augustine Series 1)'
p247
I245
sS'How to Think Like Benjamin Graham and Invest Like Warren Buffett'
p248
I246
sS'The Gulf War Did Not Take Place'
p249
I247
sS'Jack Kerouac on the Road'
p250
I248
sS'Euripides: Bacchae (Duckworth Companions to Greek & Roman Tragedy) (Duckworth Companions to Greek & Roman Tragedy)'
p251
I249
sS'Zodiac'
p252
I250
sS'Revolutionary Characters: What Made the Founders Different'
p253
I251
sS'Lacrimal Gland, Tear Film, and Dry Eye Syndromes: Basic Science and Clinical Relevance'
p254
I252
sS'The Divine Hours (Volume Two): Prayers for Autumn and Wintertime: A Manual for Prayer'
p255
I253
sS'The Rise And Fall Of The Third Chimpanzee'
p256
I254
sS'Ovid IV: Metamorphoses: Volume 2, Books IX-XV (Loeb Classical Library #43)'
p257
I256
sS'Personal Finance for Canadians for Dummies'
p258
I257
sS'J.K.Rowling'
p259
I258
sS'A Tale of Two Cities (SparkNotes Literature Guide)'
p260
I260
sS'The Stories of Eva Luna'
p261
I261
sS'Chicago Blues: Portraits and Stories'
p262
I262
sS'Arts with the Brain in Mind'
p263
I263
sS'The First Man in Rome (Masters of Rome, #1)'
p264
I264
sS'Applied Economics: Thinking Beyond Stage One'
p265
I265
sS'Theban Plays'
p266
I266
sS'Open City #9: Bewitched'
p267
I267
sS'A Day in the Life of a Mayor: Featuring New York City Mayor Rudy Giuliani'
p268
I268
sS'Baby Minds: Brain-Building Games Your Baby Will Love'
p269
I269
sS'Aeschylus: The Oresteia (A Student Guide: Landmarks of World Literature)'
p270
I270
sS'Original Sin: A Biblical Theology of the Hebrew Bible'
p271
I271
sS'Motorcycle Basics Techbook'
p272
I1084
sS'Treasure Island'
p273
I273
sS'Guns, Germs, and Steel: The Fates of Human Societies'
p274
I274
sS'The Good Eye'
p275
I275
sS'In the Name of Jesus: Reflections on Christian Leadership'
p276
I276
sS'The Oxford Illustrated Jane Austen: 6-Volume Set'
p277
I277
sS'The Confessions of St. Augustine'
p278
I278
sS'The Real Warren Buffett: Managing Capital, Leading People'
p279
I279
sS'Drina Dances in Italy (Drina, #4)'
p280
I280
sS'Tales from Ovid'
p281
I281
sS'Endymion (Hyperion Cantos #3)'
p282
I282
sS"The Clan of the Cave Bear (Earth's Children, #1)"
p283
I283
sS'Seven-Year Seduction'
p284
I285
sS'Trump: The Way to the Top: The Best Business Advice I Ever Received'
p285
I286
sS'The Last Days of Pompeii'
p286
I287
sS'Jack: A Life Like No Other'
p287
I288
sS"Searching for Lost City: On the Trail of America's Native Languages"
p288
I289
sS"The Languages of Tolkien's Middle-Earth"
p289
I290
sS'Sideswipe: A Hoke Moseley Novel'
p290
I291
sS'Live Strong: Inspirational Stories from Cancer Survivors-from Diagnosis to Treatment and Beyond'
p291
I292
sS'The Oresteia: Agamemnon/The Libation Bearers/The Eumenides'
p292
I293
sS'The Selected Journals Of L.M. Montgomery, Vol. 5: 1935-1942'
p293
I294
sS'Minds, Brains, and Learning: Understanding the Psychological and Educational Relevance of Neuroscientific Research'
p294
I295
sS'Five Love Languages Journal: How To Express Heartfelt Commitment To Your Mate'
p295
I296
sS'Wrinkles in Time'
p296
I298
sS'Men are From Mars, Women are From Venus Low Price CD'
p297
I1781
sS"On the Watershed: The Natural World of New York's Catskill Mountain Region (Bright Hill Press Word Thursdays Anthology Series) (Bright Hill Press Word Thursdays Anthology Series.)"
p298
I300
sS'The Bacchae Euripides the Frogs Aristophanes'
p299
I301
sS'Collapse: How Societies Choose to Fail or Succeed'
p300
I302
sS"Edith Wharton : Novellas and Other Writings : Madame De Treymes / Ethan Frome / Summer / Old New York / The Mother's Recompense / A Backward Glance"
p301
I303
sS"Seeing What's Next: Using the Theories of Innovation to Predict Industry Change"
p302
I304
sS'Temptations'
p303
I1419
sS'The Rough Guide to Walks in London and Southeast England'
p304
I306
sS"Basic Economics: A Citizen's Guide to the Economy"
p305
I307
sS"The Hit Man: One Man's Strategy for Growth, Change, and Profit"
p306
I308
sS'Cold Counsel: Women in Old Norse Literature and Myth (Hardcover)'
p307
I309
sS'Natural Hormone Replacement: The Safe and Natural Menopause Treaatment Alternative...'
p308
I310
sS'Damn Right!: Behind the Scenes with Berkshire Hathaway Billionaire Charlie Munger'
p309
I311
sS'Empire 2.0: A Modest Proposal for a United States of the West (Terra Nova)'
p310
I312
sS'Sorting Out Your Finances for Dummies'
p311
I313
sS'Silver Lies (Silver Rush, #1)'
p312
I314
sS'The Complete Sailor: Learning the Art of Sailing'
p313
I1783
sS'Trump University Real Estate 101: Building Wealth with Real Estate Investments'
p314
I316
sS'Monkey Business'
p315
I317
sS"eBay PowerSeller Secrets: Insider Tips from eBay's Most Successful Sellers"
p316
I318
sS"The America's Test Kitchen Family Cookbook"
p317
I319
sS'Lincoln at Gettysburg: The Words That Remade America'
p318
I47
sS'Ambiguous Images: Gender and Rock Art'
p319
I322
sS'The Physics of Star Trek'
p320
I323
sS'When Johnny Came Sliding Home: The Post-Civil War Baseball Boom, 1865-1870'
p321
I324
sS'Fast Food Nation: What the All-American Meal Is Doing to the World'
p322
I325
sS'Harry Potter and the Chamber of Secrets (Harry Potter, #2)'
p323
I326
sS'A Million Little Pieces'
p324
I328
sS'Buddhism: A New Approach'
p325
I329
sS"Tyler Florence's Real Kitchen: An Indespensible Guide for Anybody Who Likes to Cook"
p326
I330
sS'The Giver (The Giver, #1)'
p327
I320
sS"To Kill a Mockingbird (Barron's Book Notes)"
p328
I332
sS'Chess for Zebras'
p329
I333
sS'Mientras Nieva Sobre Los Cedros/Snow Falling on Cedars (Spanish Edition)'
p330
I334
sS'New Junior Cookbook (Better Homes & Gardens Test Kitchen)'
p331
I335
sS'In Spite of Innocence'
p332
I336
sS"Freedom's Shadow"
p333
I337
sS"Huck Finn/Pudd'nhead Wilson/No 44 Mysterious Stranger other Writings"
p334
I338
sS'Sophocles I: Oedipus The King, Oedipus at Colonus, Antigone (The Complete Greek Tragedies, #8)'
p335
I339
sS'The Rock Art of Texas Indians'
p336
I340
sS'Bringing Up Boys'
p337
I1767
sS"Aristophanes' Old-And-New Comedy: Volume I: Six Essays in Perspective"
p338
I342
sS'Night'
p339
I343
sS'2012: The Return of Quetzalcoatl'
p340
I344
sS"A Don't Sweat the Small Stuff Treasury: A Special Collection for Newlyweds"
p341
I345
sS'Geisha of Gion'
p342
I346
sS'Tea with Jane Austen'
p343
I347
sS"Dubin's Lives"
p344
I348
sS'Falconry  Hawking'
p345
I349
sS'Wonderful World of Collecting Perfume Bottles: Identification & Value Guide'
p346
I350
sS'Fullmetal Alchemist, Vol. 1 (Fullmetal Alchemist, #1)'
p347
I351
sS"The Beginner's Guide to Real Estate Investing"
p348
I1791
sS'Voices from Colonial America: Delaware 1638-1776'
p349
I353
sS'Designing for Interaction: Creating Smart Applications and Clever Devices'
p350
I354
sS"Teacher of Holiness: The Holy Spirit in Origen's Commentary on the Epistle to the Romans"
p351
I1425
sS'The Essential Guide to Motorcycle Maintenance'
p352
I356
sS"J.K. Rowling's Harry Potter Novels: A Reader's Guide"
p353
I357
sS'True Tales of American Life'
p354
I1792
sS'Brokeback Mountain: Story to Screenplay'
p355
I1426
sS'Springboard 1'
p356
I359
sS'How to Make Anyone Fall in Love with You'
p357
I360
sS'Euripides: Trojan Women'
p358
I361
sS"Sex Lover's Book of Lists"
p359
I362
sS'Luther and Erasmus: Free Will and Salvation (Library of Christian Classics)'
p360
I363
sS'The Vision of the Anointed: Self-Congratulation as a Basis for Social Policy'
p361
I364
sS"A House Like a Lotus (O'Keefe Family, #3)"
p362
I365
sS'Electronic Structure: Basic Theory and Practical Methods'
p363
I1931
sS"Untouchables: My Family's Triumphant Journey Out of the Caste System in Modern India"
p364
I366
sS"The Ultimate Hitchhiker's Guide to the Galaxy (Hitchhiker's Guide to the Galaxy #1-5)"
p365
I367
sS'V.'
p366
I368
sS'A Brief History of the Western World (with CD-ROM and InfoTrac)'
p367
I369
sS'Politics of Subversion'
p368
I370
sS"Captain Corelli's Mandolin"
p369
I371
sS'Notes from a Small Island'
p370
I372
sS'Illuminations: Essays and Reflections'
p371
I373
sS'Cucina Fresca: Italian Food, Simply Prepared'
p372
I374
sS'Rough Guide Directions: London'
p373
I375
sS'Scholastic Bookfiles: Bridge To Terabithia By Katherine Paterson'
p374
I376
sS'Aiding Democracy Abroad: The Learning Curve'
p375
I377
sS'Tennis Shoes'
p376
I378
sS'Snow Falling On Cedars'
p377
I379
sS'Leaps of Faith: Science, Miracles & the Search for Supernatural Consolation'
p378
I380
sS'Salmon Doubts'
p379
I381
sS'The History of Sexuality, Volume 2: The Use of Pleasure'
p380
I382
sS'Protagoras and Logos: A Study in Greek Philosophy and Rhetoric'
p381
I383
sS'The History (Great Minds)'
p382
I419
sS"Corporate Vices: What's Gone Wrong with Business?"
p383
I385
sS'Three Comedies: The Birds/The Clouds/The Wasps'
p384
I386
sS'Rooms with a View: Two Decades of Outstanding American Interior Design from Kips Bay Decorator Show Houses'
p385
I387
sS'God Emperor of Dune (Dune Chronicles, #4)'
p386
I388
sS'Armageddon Averted: The Soviet Collapse, 1970-2000'
p387
I389
sS'Public Enemies (On The Run, #5)'
p388
I390
sS'The Secret Garden: Dawn to Dusk in the Astonishing Hidden World of the Garden'
p389
I391
sS'Phaedrus'
p390
I392
sS'The History of Love'
p391
I393
sS'Great Expectations (MAXNotes Literature Guides)'
p392
I394
sS'Read My Lips: Sexual Subversion and the End of Gender'
p393
I395
sS'Escape from Fire Mountain'
p394
I396
sS'Cirque Du Soleil: The Spark: Igniting the Creative Fire That Lives Within Us All'
p395
I397
sS"How to Ride a Motorcycle: A Rider's Guide to Strategy, Safety, and Skill Development"
p396
I398
sS'The Sun Also Rises: A Novel of the Twenties'
p397
I399
sS'Results That Matter: Improving Communities by Engaging Citizens, Measuring Performance, and Getting Things Done'
p398
I400
sS'What Maisie Knew'
p399
I401
sS'Oedipus the King (Enriched Classics)'
p400
I402
sS'Online Investing Hacks: 100 Industrial-Strength Tips & Tools'
p401
I403
sS'Against the Wind'
p402
I404
sS'The Art of Structural Design: A Swiss Legacy'
p403
I405
sS'Assembly of Women (Literary Classics)'
p404
I406
sS'Hooking Up'
p405
I1799
sS'LOGO Lounge: 2,000 International Identities by Leading Designers'
p406
I408
sS'1776'
p407
I409
sS'A Short History of Decay'
p408
I410
sS'Sailing from Byzantium: How a Lost Empire Shaped the World'
p409
I411
sS'The Rough Guide to London'
p410
I412
sS'Martin Chuzzlewit'
p411
I413
sS"The Biggest Loser Cookbook: More Than 125 Healthy, Delicious Recipes Adapted from NBC's Hit Show"
p412
I414
sS'Is Your World Flat?: Experiencing Emotional Awareness in an Upwards-Moving Cycle'
p413
I415
sS'The John McPhee Reader (John McPhee Reader, #1)'
p414
I416
sS"Aftifices of Eternity: Horace's Fourth Book of Odes"
p415
I417
sS'Her Pilgrim Soul'
p416
I418
sS"Broker to Broker: Management Lessons from America's Most Successful Real Estate Companies"
p417
I1308
sS'Angelfish'
p418
I420
sS'A Conflict Of Visions: Ideological Origins of Political Struggles'
p419
I421
sS'West with the Night'
p420
I422
sS'Four Comedies: Lysistrata/The Congresswomen/The Acharnians/The Frogs'
p421
I423
sS'Undue Influence (Paul Madriani, #3)'
p422
I424
sS'High Exposure: An Enduring Passion for Everest and Unforgiving Places'
p423
I425
sS'Innocent Blood'
p424
I426
sS'MDX Solutions: With Microsoft SQL Server Analysis Services 2005 and Hyperion Essbase'
p425
I427
sS'The Book of Evidence'
p426
I428
sS"It's Not About the Bike: My Journey Back to Life"
p427
I429
sS'Gorgias (Clarendon)'
p428
I430
sS'Fullmetal Alchemist, Vol. 2 (Fullmetal Alchemist, #2)'
p429
I431
sS'The Rhetoric Of Imitation: Genre And Poetic Memory In Virgil And Other Latin Poets'
p430
I432
sS'How to Draw Action Dragonball Z (Dragonball Z)'
p431
I433
sS'The Persian War (Translations from Greek & Roman Authors)'
p432
I434
sS'Tandia'
p433
I435
sS'The Feeling Good Handbook'
p434
I436
sS"Fire at Eden's Gate: Tom McCall and the Oregon Story"
p435
I437
sS'The Long Dark Tea-Time of the Soul (Dirk Gently, #2)'
p436
I438
sS'Heat and Dust'
p437
I553
sS'The Westing Game'
p438
I440
sS'Frogs/Assemblywomen/Wealth (Loeb Classical Library 180)'
p439
I441
sS'Aliens: Original Sin'
p440
I442
sS'Fences and Windows: Dispatches from the Front Lines of the Globalization Debate'
p441
I1436
sS'Moonraker (James Bond, #3)'
p442
I445
sS'Hey Nostradamus!'
p443
I446
sS'The Motorcycle Diaries: Notes on a Latin American Journey'
p444
I447
sS'The Lord of the Rings: The Art of The Fellowship of the Ring'
p445
I448
sS"Erasmus on His Times: A Shortened Version of the 'Adages' of Erasmus"
p446
I1437
sS'Unpainted to the Last: "Moby Dick" and Twentieth-century American Art'
p447
I450
sS'Twelve Sharp (Stephanie Plum, #12)'
p448
I451
sS'A People and a Nation: A History of the United States'
p449
I613
sS'Desert Heat (Joanna Brady, #1)'
p450
I453
sS'The Richest Man in Babylon: 2the Success Secrets of the Ancients'
p451
I626
sS'The Mother Tongue: English and How It Got That Way'
p452
I455
sS'Homeric Responses'
p453
I456
sS'Thucydides: Book I'
p454
I457
sS'Heidi'
p455
I1803
sS'Original Sin (Adam Dalgliesh #9)'
p456
I458
sS'When the World Was Steady'
p457
I459
sS'David Carson 2ndsight'
p458
I460
sS'A Fairy Tale Created Original Sin'
p459
I461
sS"Heat: An Amateur's Adventures as Kitchen Slave, Line Cook, Pasta-Maker, and Apprentice to a Butcher in Tuscany"
p460
I674
sS'Neither Here nor There: Travels in Europe'
p461
I463
sS"Golding's Lord of the Flies (Cliffs Notes)"
p462
I1805
sS'Truth and Beauty'
p463
I464
sS'Death and Dying: Life and Living [With Infotrac]'
p464
I465
sS"Paul Auster (Bloom's Modern Critical Views)"
p465
I466
sS'On Christian Teaching'
p466
I467
sS'A Full House: An Austin Family Christmas (Austin Family, #9)'
p467
I468
sS'Lance Armstrong: The Race of His Life'
p468
I470
sS'The Broken Wings'
p469
I471
sS'Angels, Demons & Gods of the New Millenium: Musings on Modern Magick'
p470
I473
sS'Advanced Global Illumination, Second Edition'
p471
I474
sS'The Gettysburg Address'
p472
I1112
sS'My Nestorian Adventure in China: A Popular Account of the Holm-Nestorian Expedition to Sian-Fu and Its Results'
p473
I475
sS'Commodities For Dummies'
p474
I745
sS'A World of Heroes: Selections from Homer, Herodotus and Sophocles'
p475
I477
sS"CliffsComplete Shakespeare's Hamlet (Cliffs Complete)"
p476
I478
sS'Good Earth'
p477
I479
sS'Hank the Cowdog and Monkey Business (Hank the Cowdog, #14)'
p478
I480
sS'Monkey Business: True Story of the Scopes Trial'
p479
I481
sS'Seeing'
p480
I482
sS'Reading Greek Tragedy'
p481
I483
sS'Jesus the Son of Man'
p482
I484
sS'Friday Night Lights: A Town, a Team, And a Dream'
p483
I485
sS'Gates Of Fire'
p484
I486
sS'The Fate of Empire, 1776-2000 (A History of Britain, #3)'
p485
I487
sS'Cuentos de Eva Luna - Bolsillo'
p486
I809
sS'HTML Utopia'
p487
I489
sS'Modern Latin America'
p488
I490
sS"Caesar's Women (Masters of Rome, #4)"
p489
I491
sS'Breast Health the Natural Way'
p490
I492
sS'Love First: A New Approach to Intervention for Alcoholism and Drug Addiction (A Hazelden Guidebook)'
p491
I493
sS'Lysistrata'
p492
I494
sS'Holy Cow! Does God Care about What We Eat?'
p493
I874
sS'Aristophanes\' "Lysistrata"'
p494
I496
sS'Millionaire Women Next Door: The Many Journeys of Successful American Businesswomen'
p495
I1444
sS'Joe Pass Guitar Chords'
p496
I498
sS'Old Norse-Icelandic Literature: A Short Introduction'
p497
I499
sS'Spectacles of Truth in Classical Greek Philosophy: Theoria in Its Cultural Context'
p498
I500
sS'The Names'
p499
I502
sS'The Adventures of Sherlock Holmes (Sherlock Holmes, #3)'
p500
I503
sS"The Wealthy Barber: Everyone's Commonsense Guide to Becoming Financially Independent"
p501
I504
sS'The Richest Man In Babylon'
p502
I505
sS"The Wealthy Barber: Everyone's Common-Sense Guide to Becoming Financially Independent"
p503
I506
sS"L'Affaire"
p504
I507
sS'Hecuba, Trojan Women, Andromache'
p505
I982
sS'Maui Handbook: Including Molokai and Lanai'
p506
I509
sS'A Shadow in Summer (Long Price Quartet, #1)'
p507
I510
sS'The Bon Appetit Cookbook'
p508
I512
sS'Ballet Shoes (CD)'
p509
I513
sS'The Nightingale Question: Five Poets from Saxony'
p510
I514
sS'The Little Black Book of Martinis'
p511
I515
sS'Do It Tomorrow and Other Secrets of Time Management'
p512
I516
sS'Lord of the Flies'
p513
I517
sS'Euripidean Polemic: The Trojan Women and the Function of Tragedy'
p514
I518
sS'Moby Dick (Troll Illustrated Classics)'
p515
I519
sS'Unauthorized Harry Potter Book Seven News: "Half-Blood Prince" Analysis and Speculation'
p516
I520
sS'Electra and Other Plays'
p517
I521
sS'Ruby Quickly: Ruby and Rails for the Real World'
p518
I1816
sS'Indian Givers: How the Indians of the Americas Transformed the World'
p519
I523
sS"Bill Bryson's African Diary"
p520
I524
sS'Tenth Man Down'
p521
I525
sS'The Amazing Adventures of the Escapist: Volume 1'
p522
I526
sS'Version Control with Subversion'
p523
I527
sS'The Praise of Folly'
p524
I528
sS'The Healthy College Cookbook: Quick. Cheap. Easy.'
p525
I529
sS'Dalit: The Black Untouchables of India'
p526
I530
sS'Herman Melville:  Moby Dick, Billy Budd and Other Writings'
p527
I531
sS'The Origins of Rhetoric in Ancient Greece'
p528
I532
sS'La Caseta Magica (the Phantom Tollbooth)'
p529
I1125
sS'Into Thin Air: A Personal Account of the Mount Everest Disaster'
p530
I793
sS"America (The Book): A Citizen's Guide to Democracy Inaction"
p531
I535
sS'The Double-Bass (Bloomsbury Classics)'
p532
I536
sS'Slouching Towards Bethlehem'
p533
I537
sS"Augustine's Laws"
p534
I538
sS'Another Bullshit Night in Suck City'
p535
I539
sS'The Journals of Louisa May Alcott'
p536
I80
sS'Bullets, Badges, and Bullshit'
p537
I541
sS'Minor Works: On Colours/On Things Heard/Physiognomics/On Plants/On Marvellous Things Heard/Mechanical Problems/On Indivisible Lines/The...Gorgias'
p538
I542
sS'Odalisque (The Baroque Cycle, Vol. 1, Book 3)'
p539
I543
sS'The New York Trilogy'
p540
I1788
sS'Coming into the Country'
p541
I544
sS'Greek Literature in the Roman Period and in Late Antiquity'
p542
I545
sS'Big Sur and the Oranges of Hieronymus Bosch'
p543
I82
sS"23 Days in July: Inside the Tour de France and Lance Armstrong's Record-Breaking Victory"
p544
I547
sS'The Power of One: One Person, One Rule, One Month'
p545
I548
sS'The Wedding Clause'
p546
I2034
sS'From the Good Earth: A Celebration of Growing Food Around the World'
p547
I549
sS'The Riverside Shakespeare'
p548
I550
sS'Falling Angels'
p549
I551
sS'The Time of the Assassins:  a Study of Rimbaud'
p550
I552
sS'Prescription for Natural Cures'
p551
I439
sS'Black Swan/White Crow'
p552
I554
sS'Recovering Subversion: FEMINIST POLITICS BEYOND THE LAW'
p553
I555
sS'Roman Fever (and Other Stories)'
p554
I556
sS'Gates of Fire'
p555
I557
sS'A Long Shadow (Inspector Ian Rutledge, #8)'
p556
I558
sS'Stranger in a Strange Land'
p557
I559
sS'Drina Dances Again (Drina, #5)'
p558
I560
sS"Cliffs Notes on Cervantes' Don Quixote"
p559
I561
sS"Matthew Flinders' Cat"
p560
I562
sS'The Natural Way to Draw'
p561
I563
sS'Swiss Design 2002: Netzwerke / Ra(c)Seaux / Networks'
p562
I564
sS'The House of Mirth'
p563
I565
sS"Morgan's Run"
p564
I566
sS'Six Weeks to a Simpler Lifesty'
p565
I567
sS'The Random House Book of 20th Century French Poetry'
p566
I568
sS'Gorgias: Encomium of Helen'
p567
I569
sS'Euripides III: Hecuba/Andromache/The Trojan Women/Ion (Complete Greek Tragedies, #7)'
p568
I570
sS'The Peaceful Warrior: The Diary of Deborahs Armor Bearer, Israel, 1200 B.C.'
p569
I571
sS'Five Great Science Fiction Novels'
p570
I1458
sS'Grief Lessons: Four Plays by Euripides'
p571
I1960
sS'Ballet Shoes'
p572
I573
sS'Out to Eat London 2002 (Lonely Planet Out to Eat)'
p573
I574
sS"CliffsNotes on Euripides' Medea and Electra"
p574
I575
sS'The Colossus of Maroussi'
p575
I576
sS'Knit India Through Literature, Volume II: The East'
p576
I577
sS'Harry Potter and the Order of the Phoenix (Harry Potter, #5)'
p577
I578
sS'The Kite Runner'
p578
I579
sS'Huck Finn & Tom Sawyer among the Indians & Other Unfinished Stories (Mark Twain Library)'
p579
I580
sS'The Shaolin Way: 10 Modern Secrets of Survival from a Shaolin Grandmaster'
p580
I581
sS'Dune Trilogy Box Set (Dune Chronicles, #1-3)'
p581
I582
sS'Harry Potter et la Chambre des Secrets (Harry Potter, #2)'
p582
I583
sS'Scents (Chic Simple)'
p583
I584
sS'Daily Inspiration for the Purpose Driven Life'
p584
I585
sS'The Grass Crown (Masters of Rome, #2)'
p585
I586
sS'Pragmatic Version Control: Using Subversion (The Pragmatic Starter Kit Series)'
p586
I587
sS'Sex, Drugs, and Cocoa Puffs: A Low Culture Manifesto'
p587
I588
sS'Simply Italian: 100 Easy-To-Make, Zesty, Satisfying Favorites'
p588
I902
sS'The Big Book of Logos 3'
p589
I589
sS'The Amazing Adventures Of Bathman!'
p590
I590
sS'The Language of News Media'
p591
I591
sS'Augustine Came to Kent'
p592
I592
sS'Girl with a Pearl Earring'
p593
I593
sS'Storage Network Performance Analysis'
p594
I1134
sS'The Fountainheads: Wright, Rand, the FBI and Hollywood'
p595
I595
sS'Unleashing the Ideavirus: Stop Marketing AT People! Turn Your Ideas into Epidemics by Helping Your Customers Do the Marketing thing for You.'
p596
I596
sS'La Chute de John R.'
p597
I598
sS'The Peloponnesian War: A New Translation, Backgrounds, Interpretations'
p598
I599
sS'Nexus (The Rosy Crucifixion, #3)'
p599
I600
sS'Theocritus and the Archaeology of Greek Poetry'
p600
I601
sS'Swiss Graphic Design'
p601
I602
sS'A Tale of Two Cities, Spotlight Edition'
p602
I603
sS'The Good Earth'
p603
I1465
sS'The Runaways'
p604
I605
sS'Breaking Open the Head: A Psychedelic Journey Into the Heart of Contemporary Shamanism'
p605
I606
sS'Conversations with Bernard Malamud (Literary Conversations)'
p606
I607
sS'Hello Reader: Make Your Way For Tooth Decay (Level 3)'
p607
I1620
sS"I Wish I Had Known That!: World's Greatest Money & Time Saving Baby Secrets Revealed!"
p608
I609
sS"Euripides' Bacchae"
p609
I610
sS'The Subterraneans'
p610
I611
sS'Getting Pregnant the Natural Way: The 6-Step Natural Fertility Program Integrating Nutrition, Herbal Therapy, Movement Therapy, Massage, and Mind-Body Techniques'
p611
I612
sS'Happiness, Death, and the Remainder of Life'
p612
I452
sS'Shadows in the Starlight (Changeling Detective, #2)'
p613
I614
sS'Thucydides'
p614
I615
sS'The Invention of Tradition'
p615
I616
sS'Kindred Spirits'
p616
I617
sS'Music at the Aragonese Court of Naples'
p617
I618
sS'Winterdance: The Fine Madness of Running the Iditarod'
p618
I619
sS'The Phaedrus Of Plato'
p619
I620
sS'And a Hard Rain Fell'
p620
I621
sS'Typee, Omoo, Mardi'
p621
I622
sS'Wilfrid Gordon McDonald Partridge'
p622
I623
sS'The Metamorphoses of Ovid'
p623
I624
sS'Prologue (Geoffrey Chaucer   The Canterbury Tales)'
p624
I625
sS'The Iliad/The Odyssey'
p625
I454
sS'Novels, 1896-1899'
p626
I1138
sS"Ruby Ann's Down Home Trailer Park Cookbook"
p627
I628
sS'History of the Peloponnesian War, Bk. 7-8 (Loeb Classical Library)'
p628
I629
sS'Shadows and Wind: A View of Modern Vietnam'
p629
I630
sS"Always Enough: God's Miraculous Provision Among the Poorest Children on Earth"
p630
I631
sS'Burning'
p631
I632
sS'The Long Secret'
p632
I633
sS'In An Uncertain World: Tough Choices From Wall Street To Washington'
p633
I634
sS'50,001 Best Baby Names'
p634
I635
sS'Thomas Cole (Famous Artists Series)'
p635
I636
sS'A Short History of Nearly Everything (Illustrated ed.)'
p636
I637
sS"My Boys Can Swim!: The Official Guy's Guide to Pregnancy"
p637
I638
sS'Christina Cooks: Everything You Always Wanted to Know About Whole Foods But Were Afraid to Ask'
p638
I639
sS'Seven Days of Solitude: A Guidebook for a Personal Retreat'
p639
I640
sS'Elbow Room: The Varieties of Free Will Worth Wanting'
p640
I641
sS'A Was Once an Apple Pie'
p641
I642
sS"The Hitchhiker's Guide to the Galaxy (Hitchhiker's Guide, #1)"
p642
I643
sS'Dos Logos'
p643
I644
sS'Buddhism Plain and Simple'
p644
I645
sS'The Confessions (Christian Classics)'
p645
I646
sS'Anthem (Paperback)'
p646
I647
sS'Out-of-This-World Astronomy: 50 Amazing Activities  Projects'
p647
I648
sS'The Guitar Chord Wheel Book: Over 22,000 Chords!'
p648
I649
sS'Euripides I: Alcestis/The Medea/The Heracleidae/Hippolytus'
p649
I650
sS'Kare First Love, Vol. 9 (Kare First Love, #9)'
p650
I651
sS'Aeschylus II: The Suppliant Maidens, The Persians, Seven against Thebes, and Prometheus Bound (The Complete Greek Tragedies)'
p651
I652
sS'The Lord of the Rings: Complete Visual Companion'
p652
I653
sS'Maximum Accessibility: Making Your Web Site More Usable for Everyone: Making Your Web Site More Usable for Everyone'
p653
I654
sS'Mars and Venus Book of Days: 365 Inspriations to Enrich Your Relationships'
p654
I1474
sS'In Praise of Folly'
p655
I656
sS'Trinity (Works of Saint Augustine)'
p656
I657
sS'The Old Man and the Sea'
p657
I658
sS'Flight: 100 Years of Aviation'
p658
I659
sS'Bacchae (Plays of Euripides)'
p659
I660
sS"A Historical Commentary on Thucydides: A Companion to Rex Warner's Penguin Translation"
p660
I661
sS'The History of Sexuality, Volume 1: An Introduction'
p661
I662
sS'Burning Man: Art in the Desert'
p662
I663
sS'7 Habits of Highly Effective People: Powerful Lessons in Personal Change'
p663
I664
sS'The Things They Carried'
p664
I665
sS'Encyclopedia of Thai Massage'
p665
I666
sS'Runaway Time'
p666
I1144
sS'Fullmetal Alchemist, Vol. 9 (Fullmetal Alchemist, #9)'
p667
I668
sS'100 Years of Lynchings'
p668
I669
sS'Huck Finn\'s "Hidden" Lessons: Teaching and Learning Across the Color Line'
p669
I670
sS"Dr No / Moonraker / Thunderball / From Russia with Love / On Her Majesty's Secret Service / Goldfinger"
p670
I671
sS"Michelin's Charming Places to Stay in France 2003: 1000 Hotels & Guesthouses for Less Than 80 Euros"
p671
I672
sS'Oedipus Rex  (The Theban Plays, #1)'
p672
I673
sS'The Foods of Greece'
p673
I462
sS'Children of Dune (Dune Chronicles #3)'
p674
I675
sS'Three Weeks With My Brother'
p675
I676
sS'Aeschylus I: Oresteia (Agamemnon, The Libation Bearers, The Eumenides)'
p676
I677
sS'Memoirs Of A Geisha'
p677
I678
sS'Los Logos: A Selected LOGO Collection'
p678
I679
sS'The Trojan Women'
p679
I1839
sS'The Frogs'
p680
I681
sS'Alcestis/Medea/Heracleidae/Hippolytus/Cyclops/Heracles/Iphigenia in Tauris/Helen/Hecuba/Andromache/The Trojan Women (Complete Greek Tragedies, #3)'
p681
I682
sS'Robert Johnson (Signature Licks)'
p682
I683
sS'An Original Sin'
p683
I54
sS'New Media Language'
p684
I685
sS'Schiffbruch mit Tiger'
p685
I686
sS'A Little Princess'
p686
I687
sS'The Dark Horse'
p687
I688
sS'Real Boys: Rescuing Our Sons from the Myths of Boyhood'
p688
I689
sS'Blink'
p689
I94
sS'Robert Johnson - King of the Delta Blues: Guitar Transcriptions and Detailed Lessons for 29 Songs'
p690
I691
sS'Kepler'
p691
I692
sS'Secrets of Angels and Demons'
p692
I693
sS'One Last Kill (John Rain, #4)'
p693
I694
sS'Modos de ensayo: De Borges a Piglia'
p694
I695
sS'The Warren Buffett Portfolio: Mastering the Power of the Focus Investment Strategy'
p695
I696
sS'Ortlos: Architecture of the Net.Works'
p696
I697
sS'The Five People You Meet in Heaven'
p697
I698
sS'Willem de Kooning: The Life of an Artist'
p698
I699
sS'The Moon is a Harsh Mistress'
p699
I700
sS'To Kill a Mockingbird (To Kill A Mockingbird #1)'
p700
I701
sS'Harriet Spies Again'
p701
I702
sS"Cliffs Notes on Shakespeare's Hamlet"
p702
I703
sS"Thursday's Children"
p703
I704
sS'The Best of the Achaeans: Concepts of the Hero in Archaic Greek Poetry'
p704
I1844
sS'The Richest Man in Babylon'
p705
I706
sS'Marketing Warfare!'
p706
I707
sS'Antigone (Greek and Latin Classics)'
p707
I708
sS'Flip-Flop Girl'
p708
I709
sS'The Storm'
p709
I710
sS'Computational Physics: The Proceedings of the Second International Conference on Computational Physics (ICCP-2): September 13-17, 1993, Beijing, China'
p710
I711
sS'Historiae, Vol. 2 (Classical Texts Series)'
p711
I712
sS'The Bad Guys Won!'
p712
I713
sS"Moloka'i"
p713
I1606
sS'Women of Troy/Hecuba/Helen: Three Plays'
p714
I714
sS'Surgery: Basic Science and Clinical Evidence'
p715
I715
sS'Guitar Chord Songbook: Classic Rock'
p716
I1963
sS'Lots and Lots of Zebra Stripes'
p717
I716
sS'The Lost Continent: Travels in Small-Town America'
p718
I717
sS'Tesla Papers'
p719
I118
sS'The Intellectual Revolution: Selections from Euripides, Thucydides and Plato'
p720
I719
sS"The Tutor's First Love"
p721
I720
sS"Tim O'Brien: A Critical Companion"
p722
I721
sS'Hippolytos'
p723
I722
sS'Novels, 1901-1902'
p724
I723
sS'Love Artist (Harlequin Romance #2860)'
p725
I724
sS'The Art of War'
p726
I725
sS'Instant Songwriting with the Piano'
p727
I726
sS'Breaking Open the Head: A Psychedelic Journey from Cynicism to Shamanism'
p728
I727
sS'Selected Writings from Protagoras/Republic/Phaedrus/Gorgias'
p729
I728
sS'The Birth of Tragedy'
p730
I729
sS'The Praise of Folly and Other Writings'
p731
I730
sS'Harry Potter and the Prisoner of Azkaban (Harry Potter, #3)'
p732
I731
sS'The Crying of Lot 49'
p733
I732
sS'Loving Graham Greene: A Novel'
p734
I733
sS"The Clan of the Cave Bear, Part 1 of 2 (Earth's Children, #1)"
p735
I734
sS'Poetic Interplay: Catullus and Horace'
p736
I735
sS'Annals of the Former World'
p737
I736
sS'Islands, Mounds, And Atoms: Patterns And Processes In Crystal Growth Far From Equilibrium'
p738
I737
sS'No Fluff, Just Stuff Anthology'
p739
I738
sS"Thucydides: Man's Place in History"
p740
I740
sS'Augustine: A Very Short Introduction'
p741
I741
sS'Earth is Flat" and Other Great Mistakes'
p742
I742
sS'Moby Dick'
p743
I743
sS'Born To Be Wild'
p744
I744
sS'The Santaroga Barrier'
p745
I746
sS'The Power of an Hour: Business and Life Mastery in One Hour a Week'
p746
I747
sS'Iron Ties'
p747
I748
sS'A Field Guide to Rock Art Symbols of the Greater Southwest'
p748
I749
sS'Movie Shoes (Shoes, #6)'
p749
I750
sS'A Tale of Two Cities'
p750
I751
sS'The Puritan Tradition in Revolutionary, Federalist, and Whig Political Theory: A Rhetoric of Origins'
p751
I752
sS'Melville and the politics of identity: From *King Lear* to *Moby-Dick*'
p752
I1154
sS'Orestes and Other Plays'
p753
I1852
sS'Guitar Case Chord Book (Guitar)'
p754
I756
sS'The Other Side of Nowhere: Jazz, Improvisation, and Communities in Dialogue'
p755
I757
sS'The World Is Flat: A Brief History of the Twenty-first Century'
p756
I758
sS'The Complete Anne of Green Gables Boxed Set (Anne of Green Gables, #1-8)'
p757
I759
sS'Ethnography: A Way of Seeing'
p758
I760
sS'Heretics of Dune (Dune Chronicles, #5)'
p759
I761
sS'Practice of the Wild'
p760
I126
sS'A Wrinkle in Time: Teacher Guide'
p761
I763
sS'The Complete Works'
p762
I764
sS'Necessity, Volition, and Love'
p763
I765
sS'Selected Stories'
p764
I766
sS'The 48 Laws of Power'
p765
I767
sS'UFOs Over California: A True History of Extraterrestrial Encounters in the Golden State'
p766
I768
sS"Ruby's Low-Fat Soul Food Cookbook"
p767
I1857
sS'Dictionary of Bullshit'
p768
I770
sS'Great Short Works'
p769
I771
sS'Leadership'
p770
I772
sS'English-Cayuga/Cayuga-English Dictionary'
p771
I773
sS"Warren Buffett: An Illustrated Biography of the World's Most Successful Investor"
p772
I774
sS'A Nation of Victims: The Decay of the American Character'
p773
I775
sS'The Book of Salt'
p774
I776
sS'Eros and Ritual in Ancient Literature: Singing of Atalanta, Daphnis and Orpheus'
p775
I1258
sS'Greek Literature in the Byzantine Period: Greek Literature'
p776
I778
sS'Den of Thieves'
p777
I779
sS'Poetry and Myth in Ancient Pastoral: Essays on Theocritus and Virgil'
p778
I780
sS"Jon Krakauer's Adventure on Mt. Everest"
p779
I1858
sS'Shibumi'
p780
I782
sS"A. Lincoln'S Gettysburg Addres"
p781
I783
sS'Object-Oriented Programming in C++'
p782
I784
sS'The Eclogues of Virgil: A Translation'
p783
I785
sS"There's Always Enough: The Miraculous Move of God in Mozambique"
p784
I786
sS'Motorcycle Camping Made Easy'
p785
I787
sS'Women in Old Norse Society: A Portrait'
p786
I1498
sS'Growing Up Untouchable in India: A Dalit Autobiography'
p787
I789
sS'Poetry for Young People: Edward Lear'
p788
I790
sS'How to Cook Everything Simple Recipes for Great Food'
p789
I791
sS'CSS Pocket Reference'
p790
I792
sS"Love: A User's Guide"
p791
I1045
sS'Rich Dad Poor Dad Classics - Boxed Set'
p792
I794
sS"Thomas Pynchon (Bloom's Modern Critical Views)"
p793
I795
sS"Motorcycle Owner's Manual"
p794
I796
sS'Holy Man: Father Damien of Molokai'
p795
I797
sS'Cryptonomicon'
p796
I798
sS'Random Harvest'
p797
I799
sS"Through Otis' Eyes: Lessons from a Guide Dog Puppy"
p798
I800
sS"Aristophanes' Male and Female Revolutions: A Reading of Aristophanes' Knights and Assemblywomen"
p799
I1318
sS'Gecko Gathering PB'
p800
I802
sS'Chandler: Stories and Early Novels'
p801
I803
sS'Greek Literature in the Classical Period: The Prose of Historiography and Oratory'
p802
I1502
sS'Children Are from Heaven: How to Have Strong, Confident Children'
p803
I804
sS'London: City Guide (Lonely Planet City Guide)'
p804
I805
sS'Dear John'
p805
I806
sS'The Amazing Adventures of Kavalier & Clay'
p806
I807
sS'A History of the United States and Its People'
p807
I808
sS'Archaic Period (Greek Literature, Volume 2)'
p808
I488
sS'Treasure Island (Great Illustrated Classics)'
p809
I810
sS'To Sail Beyond the Sunset'
p810
I811
sS'Little Known Evidences of the Book of Mormon'
p811
I1504
sS'The Crossing'
p812
I813
sS'Humanity Dick: A Biography of Richard Martin, M. P., 1754-1834'
p813
I814
sS"Mrs. Sharp's Traditions: Reviving Victorian Family Celebrations of Comfort & Joy"
p814
I815
sS'In the Country of Last Things'
p815
I816
sS'The Worm Ouroboros'
p816
I817
sS'Critical Mass'
p817
I818
sS'1000 Families'
p818
I819
sS'Behind a Mask: The Unknown Thrillers of Louisa May Alcott'
p819
I820
sS'Plays 1: Medea/The Phoenician Women/Bacchae'
p820
I821
sS'E. M. Forster: A Life'
p821
I822
sS"The Passion of Ayn Rand's Critics: The Case Against the Brandens"
p822
I823
sS"Norman Hall's Corrections Officer Exam Preparation Book"
p823
I824
sS'The Life Of Dashiell Hammett'
p824
I825
sS'Life After God'
p825
I826
sS'Lonely Planet Londres'
p826
I827
sS'Cities of Salt'
p827
I828
sS'The Earliest Life of Christ Ever Complied from the Four Gospels: Being the Diatessaron of Tatian (Gorgias Reprint)'
p828
I947
sS'Veronika Decides to Die'
p829
I949
sS'The Book of Probes'
p830
I831
sS'Swiss Federal Design Grants 2006'
p831
I832
sS'Message in a Bottle'
p832
I833
sS'The Eyes of Heisenberg'
p833
I835
sS'The Leadership Challenge'
p834
I836
sS"Aisthetische Reduktionen: Analysen Zu Patrick Suskinds 'Der Kontraba', 'Das Parfum' Und 'Rossini'"
p835
I837
sS"Flaubert's Parrot"
p836
I838
sS'Moby-Dick'
p837
I839
sS'How to Cook: And Everything Else You Need to Know in the Kitchen'
p838
I841
sS'The Poetical Works of Christopher Smart: Volume VI: A Poetical Translation of the Fables of Phaedrus'
p839
I842
sS'Paul Auster and Postmodern Quest: On the Road to Nowhere'
p840
I1507
sS'Simply Italian: Easy Recipes That Are Quick to Prepare, Low in Calories, and Kind to Your Budget'
p841
I1044
sS'Comedy Quotes from the Movies: Over 4,000 Bits of Humorous Dialogue from All Film Genres, Topically Arranged and Indexed'
p842
I845
sS'Monkey Business: Are Yor Controlling Events or Are Events Controlling You?'
p843
I846
sS'Thai Massage: A Traditional Medical Technique'
p844
I847
sS'Harry Potter and the Half-Blood Prince (Harry Potter, #6)'
p845
I848
sS'Grand Theft Auto: Vice City Official Strategy Guide for PC'
p846
I849
sS'Houses of God: Religious Architecture for a New Millennium'
p847
I850
sS'The Norton Shakespeare'
p848
I851
sS'A Severed Wasp'
p849
I852
sS'Burning Bright'
p850
I853
sS'Going After Cacciato'
p851
I854
sS'The Taste of Home Cookbook'
p852
I855
sS'Antigone (Translations from Greek Drama)'
p853
I856
sS'The Death of Ivan Ilych And Other Stories'
p854
I857
sS'James Bond and Moonraker'
p855
I858
sS'Consciousness Explained'
p856
I859
sS'Gap Creek: A Novel'
p857
I860
sS'No Price Too High: A Pentecostal Preacher Becomes Catholic - The Inspirational Story of Alex Jones as Told to Diane Hanson'
p858
I861
sS'Americans in Paris: Great Short Stories of the City of Light'
p859
I862
sS'Bakkhai'
p860
I863
sS'Guts: The True Stories behind Hatchet and the Brian Books'
p861
I864
sS'Euripides: Ten Plays'
p862
I865
sS"The Real Estate Investor's Tax Guide"
p863
I866
sS"The Official Crazy Bones Collector's Guide"
p864
I867
sS"Trading with the Enemy: Seduction and Betrayal on Jim Cramer's Wall Street"
p865
I868
sS'The Best 50 Martinis'
p866
I869
sS'The Works Of H. G. Wells:  Complete & Unabridged'
p867
I870
sS'Augustine of Hippo: A Biography'
p868
I871
sS"The Science of Sherlock Holmes: From Baskerville Hall to the Valley of Fear, the Real Forensics Behind the Great Detective's Greatest Cases"
p869
I872
sS'Latin (Vergil)'
p870
I873
sS'The Sun Also Rises'
p871
I495
sS'Along the Juniata: Thomas Cole and the Dissemination of American Landscape Imagery'
p872
I875
sS'Guitar Chord Bible (Music Bibles)'
p873
I876
sS'Boogaloo on 2nd Avenue'
p874
I877
sS'Bishop Lists: Formation of Apostolic Succession of Bishops in Ecclesiastical Crises'
p875
I878
sS'The Annotated Huckleberry Finn'
p876
I879
sS'Earth Odyssey: Around the World in Search of Our Environmental Future'
p877
I880
sS'The Rough Guide to London Restaurants 2004 6'
p878
I881
sS"Lincoln's Gettysburg Address in Translation"
p879
I1872
sS'One Body, One Life: Six Weeks to the New You'
p880
I883
sS'Natural Disasters [with Online Learning Center Access Code]'
p881
I884
sS'The Next 100 Years: Predictions to the Nations and the Church of the 21st Century'
p882
I885
sS'The No-Salt Cookbook: Reduce or Eliminate Salt Without Sacrificing Flavor'
p883
I886
sS'The Invisible Child'
p884
I887
sS'Introducing Mind and Brain (Introducing...)'
p885
I888
sS'The Compleat Works of Wllm Shkspr (abridged)'
p886
I1172
sS'Blood From Blood (John Rain, #2)'
p887
I890
sS'Simply Beautiful Beaded Jewelry'
p888
I891
sS'An Art of Desire: Reading Paul Auster'
p889
I1875
sS'E.M. Forster'
p890
I1893
sS'Blessed Is He Who Has Brought Adam from Sheol'
p891
I893
sS'The Notebooks of Lazarus Long'
p892
I894
sS"The Kid's Cookbook: A Great Book for Kids Who Love to Cook"
p893
I895
sS'Avalanche: Heretical Reflections on the Dark and the Light'
p894
I896
sS'Las razones del amor/ The Reasons Of Love: El Sentido de Nuestras Vidas / The Sense of Our Lives'
p895
I897
sS'How to Build a Real Estate Empire: Wisdom from the Best in the Business'
p896
I898
sS'The Angle of Repose: Four American Photographers in Egypt'
p897
I899
sS"A People's History of the United States: The Civil War to the Present"
p898
I900
sS'On the Road'
p899
I901
sS"9/11 Descent Into Tyranny: The New World Order's Dark Plans to Turn Earth Into a Prison Planet"
p900
I1292
sS'Angle of Repose, Part 1 of 2'
p901
I1348
sS'Prometheus Bound and Other Plays'
p902
I904
sS"Solomon's Song (The Potato Factory, #3)"
p903
I905
sS'Sophocles I: Oedipus the King, Oedipus at Colonus, Antigone (Complete Greek Tragedies)'
p904
I906
sS'Little Women (Little Women, #1)'
p905
I907
sS'The 100 Most Notable Cornellians'
p906
I908
sS'First Love and Other Sorrows: Stories'
p907
I909
sS'A Tramp Abroad'
p908
I910
sS'America: A Concise History, Volume 2: Since 1865'
p909
I911
sS'Wisdom from the Five People You Meet in Heaven'
p910
I912
sS'Sir Gawain and the Green Knight (Myths & Legends Audio)'
p911
I913
sS'Charles Willeford Omnibus: Pick Up/Burnt Orange Heresy/Cockfighter'
p912
I914
sS'The Fellowship of the Ring (The Lord of the Rings, #1)'
p913
I915
sS'Thucydides, Book 6 Commentary'
p914
I916
sS'Investing in REITs: Real Estate Investment Trusts'
p915
I917
sS'Medea - Literary Touchstone Classic'
p916
I154
sS'Building Literacy with Love: A Guide for Teachers and Caregivers of Children Birth Through Age 5'
p917
I919
sS'In The Blink Of An Eye: How Vision Sparked The Big Bang Of Evolution'
p918
I920
sS'The Bostonians'
p919
I840
sS'Unnatural Causes (Adam Dalgliesh #3)'
p920
I922
sS'Cyclops. Alcestis. Medea'
p921
I923
sS'London'
p922
I924
sS'The City of God against the Pagans (Texts in the History of Political Thought)'
p923
I925
sS'The Fixer'
p924
I926
sS'Memoirs of a Geisha'
p925
I927
sS'Bread Givers'
p926
I928
sS'Complete Home Storge'
p927
I1521
sS'Democracy'
p928
I930
sS'Memoirs of a Midget'
p929
I931
sS'Natural Health, Natural Medicine'
p930
I932
sS'A Winter Haunting'
p931
I933
sS'Harriet The Spy'
p932
I934
sS'The Headless Cupid (Stanley Family, #1)'
p933
I935
sS'The Harry Potter Collection (Harry Potter, #1-6)'
p934
I936
sS'The Compact Rock Guitar Chord Reference'
p935
I937
sS'El Siglo del Espiritu Santo'
p936
I938
sS'Spectator Politics: Metatheatre and Performance in Aristophanes'
p937
I939
sS'Medea'
p938
I940
sS'Tom Wolfes Treasury of Patterns: 90 Patterns for Dog Carvers'
p939
I941
sS'Mice, Morals, & Monkey Business'
p940
I1523
sS'Daily Inspiration for the Purpose Driven Life: Scriptures and Reflections from the 40 Days of Purpose'
p941
I943
sS'The Potato Factory'
p942
I944
sS'Great Discoveries & Amazing Adventures: The Stories of Hidden Marvels and Lost Treasures'
p943
I945
sS'Interface'
p944
I946
sS'Slow Learner: Early Stories'
p945
I829
sS'New Technology in Language Learning: Proceedings of the 1989 Man and the Media Symposium'
p946
I948
sS'The Semi-Complete Guide to Sort of Being a Gentleman'
p947
I830
sS'CSS Mastery: Advanced Web Standards Solutions'
p948
I950
sS"Einstein's Heroes: Imagining the World Through the Language of Mathematics"
p949
I951
sS'Thai Massage Manual: Natural Therapy for Flexibility, Relaxation, and Energy Balance'
p950
I952
sS'The Autobiography of Mark Twain'
p951
I953
sS'Pure and Simple: The Extraordinary Teachings of a Thai Buddhist Laywoman'
p952
I954
sS'Guitar Case Chord Book in Full Color - Compact Music Guides Series'
p953
I1889
sS'The Handbook Of Sailing'
p954
I956
sS"Maverick's: The Story of Big-Wave Surfing"
p955
I957
sS'J.K. Rowling'
p956
I958
sS'Den of Thieves (Ad&d 2nd Edition)'
p957
I959
sS'Lincoln on Leadership: Executive Strategies for Tough Times by Donald T. Phillips, Phillips'
p958
I960
sS'Richest Man in Babylon - The Success Secrets of the Ancients'
p959
I961
sS"J. K. Lasser's Pick Stocks Like Warren Buffett"
p960
I962
sS'Long Goodbye'
p961
I963
sS'The Baby Name Wizard: A Magical Method for Finding the Perfect Name for Your Baby'
p962
I964
sS'The Burnt Orange Heresy (Vintage Crime/Black Lizard)'
p963
I965
sS'Illuminations: Visions for Change, Growth, and Self-Acceptance'
p964
I966
sS'Oedipus Rex (Greek and Latin Classics)'
p965
I967
sS'Fire in the Gates'
p966
I968
sS'Emotional Design: Why We Love (or Hate) Everyday Things'
p967
I969
sS"Real Estate Riches: How to Become Rich Using Your Banker's Money"
p968
I970
sS'The Letters of Gustave Flaubert, 1857-1880'
p969
I971
sS'Dune (Dune Chronicles, #1)'
p970
I972
sS'The Lord of the Rings (The Lord of the Rings, #1-3)'
p971
I1894
sS'Getting Things Done When You Are Not in Charge'
p972
I975
sS'The Archaeology of Rock-Art'
p973
I976
sS'Conversations with Lincoln'
p974
I977
sS'Iliad'
p975
I978
sS'Guitar Chord Encyclopedia: 36 Chords in Each Key'
p976
I979
sS'Freakonomics: A Rogue Economist Explores the Hidden Side of Everything'
p977
I980
sS'Listen for It: A Task-Based Listening Course'
p978
I981
sS'Smart Mobs: The Next Social Revolution'
p979
I508
sS'The History of Sexuality, Volume 1: The Will to Knowledge'
p980
I983
sS'Hard Freeze (Joe Kurtz, #2)'
p981
I1188
sS'Understanding Sun Tzu on the Art of War'
p982
I985
sS'The Enchanted April'
p983
I986
sS'A Treasury of Kahlil Gibran'
p984
I987
sS'Dave Thomas (Overcoming Adversity)'
p985
I988
sS'Holy Cow! Not Another Mad Snappy Answers to Stupid Questions'
p986
I989
sS'Jack Kerouac: The Road Is Life'
p987
I990
sS"The Innovator's Solution: Creating and Sustaining Successful Growth"
p988
I991
sS'Shadows on the Wind'
p989
I992
sS'The Trojan Women and Other Plays'
p990
I993
sS'Sandpaper Sisters'
p991
I994
sS"The Devil's Broker: Seeking Gold, God, and Glory in Fourteenth- Century Italy"
p992
I995
sS'Angeles & Demonios'
p993
I996
sS'Charles Dickens'
p994
I997
sS'Cameron Townsend: Good News in Every Language (Christian Heroes: Then & Now)'
p995
I998
sS'The Poems of Herman Melville'
p996
I999
sS"Why Zebras Don't Get Ulcers"
p997
I1000
sS'Sun Tzu For Success: How to Use the Art of War to Master Challenges and Accomplish the Important Goals in Your Life'
p998
I1862
sS'The Highland Scots of North Carolina, 1732-1776'
p999
I1002
sS'The Confessions (Works of Saint Augustine 1)'
p1000
I1003
sS'Love Your Handwriting (Creating Keepsakes)'
p1001
I1004
sS"The Insider's Guide to 52 Homes in 52 Weeks: Acquire Your Real Estate Fortune Today"
p1002
I1005
sS'Powderguide: Managing Avalanche Risk'
p1003
I1006
sS"The Collapse of the Common Good: How America's Lawsuit Culture Undermines Our Freedom"
p1004
I1007
sS'Mid-Course Correction: Toward a Sustainable Enterprise: The Interface Model'
p1005
I1008
sS'The Church of Solitude'
p1006
I1009
sS"The Ultimate Time Machine: A Remote Viewer's Perception of Time & Predictions for the New Millennium"
p1007
I1010
sS'Little Women (SparkNotes Literature Guide)'
p1008
I1011
sS'Trump Strategies for Real Estate: Billionaire Lessons for the Small Investor'
p1009
I1537
sS'The Control of Nature'
p1010
I1013
sS'Telling Tales on Caesar: Roman Stories from Phaedrus'
p1011
I1014
sS'Tooth Decay & Cavities'
p1012
I1015
sS'Blink: The Power of Thinking Without Thinking'
p1013
I1016
sS'The Untouchables: Subordination, Poverty and the State in Modern India (Contemporary South Asia, #4)'
p1014
I1017
sS"A Midsummer Night's Dream"
p1015
I1196
sS'Portrait of the Blue Lady: The Character of Melancholy'
p1016
I1019
sS'Sailing for Dummies'
p1017
I1538
sS'The Life of Geoffrey Chaucer: A Critical Biography'
p1018
I1021
sS'The Last Gentleman (Modern Library)'
p1019
I1022
sS'Creating Database-Backed Library Web Pages: Using Open Source Tools'
p1020
I1023
sS'Inventing the Flat Earth: Columbus and Modern Historians'
p1021
I1024
sS'Phaedrus (Classical Greek Texts)'
p1022
I1025
sS'Doing Things with Things: The Design and Use of Everyday Objects'
p1023
I1026
sS'The Essential Euripides'
p1024
I1028
sS'Amores & Metamorphoses: Selections'
p1025
I1029
sS'Sherlock Holmes and the Kiss of Death'
p1026
I1030
sS'Night of the Living Dead'
p1027
I1031
sS'History of the Peloponnesian War: Bk. 5-6 (Loeb Classical Library)'
p1028
I1032
sS'Myths of the Underworld Journey: Plato, Aristophanes, and the "Orphic" Gold Tablets'
p1029
I1033
sS'What to Sell on ebay and Where to Get It: The Definitive Guide to Product Sourcing for eBay and Beyond'
p1030
I384
sS'The Complete Short Stories'
p1031
I1034
sS'The Machine in Ward Eleven'
p1032
I1035
sS'Everyday Pasta'
p1033
I1036
sS'Preliterate Period (Greek Literature, Volume 1)'
p1034
I1037
sS'Aristophanes and His Theatre of the Absurd'
p1035
I1038
sS'Stephen Hawking: A Life in Science'
p1036
I1039
sS"The Clan of the Cave Bear, Part 2 of 2 (Earth's Children, #1)"
p1037
I1040
sS'Stuffed Owl'
p1038
I1041
sS'Masterwork Studies Series: 100 Years of Solitude'
p1039
I1042
sS'From a Sabine Jar: Reading Horace, Odes 1.9'
p1040
I1043
sS'Eclogues and Georgics'
p1041
I844
sS'ABCs of Avalanche Safety'
p1042
I1046
sS'Music with the Brain in Mind'
p1043
I1047
sS'Wizard: The Life and Times of Nikola Tesla: Biography of a Genius'
p1044
I1202
sS'Amazing Rain Forest (Discovering the Rain Forest)'
p1045
I1049
sS'Where Angels Fear to Tread'
p1046
I85
sS'The Dharma Bums'
p1047
I1051
sS"Twain's Huckleberry Finn (Cliffs Notes)"
p1048
I1052
sS'Wonderous Mushroom: Sacred Mushrooms In Mexico And Mesoamerica.'
p1049
I99
sS'Fairy Doll'
p1050
I1054
sS"The Complete Idiot's Guide to Cashing in On Your Inventions"
p1051
I1055
sS'Job: A Comedy of Justice'
p1052
I1056
sS'Bulletproofing NetWare: Solving the 175 Most Common Problems Before They Happen'
p1053
I1057
sS'Tono-Bungay'
p1054
I1058
sS'Collected Poems'
p1055
I1544
sS'Buffett: The Making of an American Capitalist'
p1056
I1060
sS'Classic Chicago Blues Harp #2'
p1057
I1061
sS'The Bookclub-in-a-Box Discussion Guide to the book: The Curious Incident of the Dog in the Night-Time'
p1058
I1062
sS'Birds/Lysistrata/Women at the Thesmophoria (Loeb Classical Library 179)'
p1059
I1063
sS'A Book of Common Prayer'
p1060
I1064
sS'History of the Progressive Party, 1912-1916'
p1061
I1065
sS'Hebrew Illuminations'
p1062
I1066
sS'eBay Business All-in-One Desk Reference for Dummies'
p1063
I1205
sS'Libra'
p1064
I1546
sS'Bookclub-In-A-Box Discusses the Novel the Hours by Michael Cunningham'
p1065
I1069
sS'On Genesis/A Refutation of the Manichees/The Unfinished Literal Meaning of Genesis (Works of St Augustine 1)'
p1066
I1070
sS'The Notebook'
p1067
I1071
sS'The CSS Anthology'
p1068
I1072
sS'Lord of the Flies (SparkNotes Literature Guides)'
p1069
I1073
sS'Simply Bruschetta: Garlic Toast the Italian Way'
p1070
I1074
sS"The Millionaire Next Door: The Surprising Secrets of America's Wealthy"
p1071
I1075
sS'Time Enough for Love'
p1072
I1076
sS"Cliffs Notes on Melville's Moby Dick"
p1073
I1077
sS'Sylvia'
p1074
I232
sS'Lysis/Symposium/Gorgias (Loeb Classical Library, #166)'
p1075
I1079
sS"Brian's Hunt (Brian's Saga, #5)"
p1076
I1080
sS'The White Album'
p1077
I1081
sS'The Fall of Hyperion (Hyperion Cantos, #2)'
p1078
I1082
sS'Euripides: Hippolytus'
p1079
I1083
sS"Madeleine L'Engle Herself: Reflections on a Writing Life"
p1080
I272
sS'Freddy and the Men from Mars'
p1081
I1085
sS"Observing the User Experience: A Practitioner's Guide to User Research"
p1082
I1086
sS'The Known World'
p1083
I1087
sS'Clouds'
p1084
I1088
sS'So You Think You Know Jane Austen?'
p1085
I1089
sS'The Coming Economic Collapse: How You Can Thrive When Oil Costs $200 a Barrel'
p1086
I1090
sS'Designed to Sell: Turn-Of-The-Century American Posters in the Virginia Museum of Fine Arts'
p1087
I1091
sS'Blink-182: Tales from Beneath Your Mom'
p1088
I1092
sS'El Capitan: Historic Feats and Radical Routes'
p1089
I1093
sS'Three Plays by Aristophanes: Lysistrata/Women at the Thesmophoria/Assemblywomen'
p1090
I1094
sS'The Lion and the Jewel'
p1091
I1095
sS'Make the Most of Your Windows PC: Easy to Follow Step-By-Step Directions'
p1092
I1096
sS'Robinson Crusoe (Scholastic Junior Classics)'
p1093
I1097
sS"The Hitchhiker's Guide to the Galaxy (Hitchhiker's Guide to the Galaxy, #1)"
p1094
I1098
sS'The Patriarch: The Rise and Fall of the Bingham Dynasty'
p1095
I1099
sS'Science and Sensibility: The Elegant Logic of the Universe'
p1096
I1100
sS"The Hitchhiker's Guide to the Galaxy: The Primary Phase (Hitchhiker's Guide: Radio Play, #1)"
p1097
I1101
sS'A Million Little Pieces of Close to Home: A Close to Home Collection'
p1098
I1102
sS'The Complete Sherlock Holmes, Vol 2'
p1099
I1103
sS'Doctor No (James Bond, #6)'
p1100
I1547
sS'A Prayer for the City'
p1101
I1105
sS'How to Cook Everything: Holiday Cooking'
p1102
I1106
sS'Enoch and Daniel: A Form Critical and Sociological Study of the Historical Apocalypses'
p1103
I1107
sS'The Woodsman and His Hatchet: Eighty Years on Back Country Survival'
p1104
I1108
sS'Long Way Round: Chasing Shadows Across the World'
p1105
I1109
sS"Jim Cramer's Mad Money: Watch TV, Get Rich"
p1106
I1912
sS'The Art of Hunger: Essays, Prefaces, Interviews, The Red Notebook'
p1107
I1110
sS'Emily of New Moon (Emily, #1)'
p1108
I1111
sS'The World Treasury of Physics, Astronomy & Mathematics from Albert Einstein to Stephen W. Hawking & from Annie Dillard to John Updike'
p1109
I444
sS'Aristophanes: Peace'
p1110
I1113
sS'The Story of Salt'
p1111
I1114
sS"The Ethnographer's Eye: Ways of Seeing in Anthropology"
p1112
I1115
sS"The Phantom Tollbooth: A Children's Play in Two Acts"
p1113
I1116
sS'The Complete Adventures and Memoirs of Sherlock Holmes'
p1114
I1117
sS'Advanced Placement Economics: Microeconomics: Student Activities'
p1115
I1118
sS"The Refining Fire: Herakles and Other Heroes in T.S. Eliot's Works"
p1116
I1119
sS"Tim O'Brien"
p1117
I1120
sS'Northern Lights'
p1118
I1121
sS'Theatre: A Way of Seeing (with InfoTrac)'
p1119
I1122
sS'Timbuktu'
p1120
I1123
sS'Once Upon a Cool Motorcycle Dude'
p1121
I1124
sS'The Histories'
p1122
I533
sS'Rooms with a View: The Stages of Community in the Modern Theater'
p1123
I1126
sS'In Cold Blood'
p1124
I1127
sS'The Jesus Incident (The Pandora Sequence, #1)'
p1125
I1128
sS'The Wedding (The Notebook, #2)'
p1126
I1129
sS'Learn to Program'
p1127
I1130
sS'Hamlet'
p1128
I1131
sS'Innovation and the General Manager'
p1129
I1132
sS"The Player's Handbook: The Ultimate Guide on Dating and Relationships"
p1130
I1133
sS"New Essays on 'The Portrait of a Lady'"
p1131
I594
sS'Una semana de invierno'
p1132
I1918
sS'Metamorphoses'
p1133
I1136
sS'Preventing Medication Errors and Improving Drug Therapy Outcomes'
p1134
I1137
sS'Oxford Guides to Chaucer: The Canterbury Tales'
p1135
I627
sS'Max and Me and the Time Machine'
p1136
I1139
sS'Kentucky Heat'
p1137
I1140
sS'The Third Chimpanzee: The Evolution & Future of the Human Animal'
p1138
I1920
sS'Play It as It Lays'
p1139
I1142
sS'Web Production for Writers and Journalists (Media Skills)'
p1140
I1143
sS'Healing Feelings...from Your Heart'
p1141
I667
sS'The Complete Poetical Works: Volume VI'
p1142
I1145
sS'First Love, Second Chance'
p1143
I1146
sS'Fountainhead (Cliffs Notes)'
p1144
I1147
sS'The Portable Jack Kerouac'
p1145
I1148
sS'Language and Desire in Seneca\'s "Phaedra"'
p1146
I1149
sS'The Theory of Everything: The Origin and Fate of the Universe'
p1147
I1150
sS'The Truth Behind the Da Vinci Code: A Challenging Response to the Bestselling Novel'
p1148
I1151
sS'Her Pilgrim Soul: And Other Stories'
p1149
I1152
sS"Phaedrus (World's Classics)"
p1150
I1153
sS"Christopher Davis's Best Year Yet: Hyperion Chapters; Grade 3"
p1151
I753
sS'Fifty Ways to Cook Most Everything: 2500 Creative Solutions to the Daily Dilemma of What to Cook'
p1152
I1155
sS'Men Are from Mars, Women Are from Venus'
p1153
I1156
sS'Bone Sharps, Cowboys, and Thunder Lizards: Edward Drinker Cope, Othniel Charles Marsh, and the Gilded Age of Paleontology'
p1154
I1567
sS'American Government: Continuity And Change'
p1155
I1158
sS"Developing Tactics for Listening Teacher's Book"
p1156
I1159
sS'Destroy, She Said'
p1157
I1160
sS"Homer's Text and Language"
p1158
I801
sS'Baby Signing For Dummies'
p1159
I1162
sS"Programming Ruby: The Pragmatic Programmers' Guide"
p1160
I1163
sS'War and Peace'
p1161
I1164
sS'The October Horse: A Novel of Caesar and Cleopatra (Masters of Rome, #6)'
p1162
I1165
sS'Den of Thieves (Cat Royal, #3)'
p1163
I197
sS'Aristophanes: Clouds, Acharnians, Lysistrata: A Companion to the Penguin Translation of A.H.Sommerstein'
p1164
I1167
sS'Time To Be In Earnest: A Fragment Of Autobiography'
p1165
I1168
sS'Vice & Virtue in Everyday Life: Introductory Readings in Ethics'
p1166
I1169
sS'Plato I: Euthyphro. Apology. Crito. Phaedo. Phaedrus. (Loeb Classical Library, #36)'
p1167
I1170
sS'Typographic Design: Form and Communication'
p1168
I1171
sS'Emergence: Labeled Autistic'
p1169
I889
sS'I am Charlotte Simmons'
p1170
I1173
sS'Little Women'
p1171
I1174
sS'Ten Colloquies'
p1172
I1175
sS'Bacchae'
p1173
I1176
sS'All My Tomorrows (The Orphan Trains Trilogy, #2)'
p1174
I1177
sS'The Heidi Chronicles'
p1175
I1178
sS'A Million Little Lies'
p1176
I1179
sS'Natural Resource Conservation: Management for a Sustainable Future'
p1177
I1572
sS"The Insider's Guide to Tax-Free Real Estate Investments: Retire Rich Using Your IRA"
p1178
I1181
sS'Sun Tzu Strategies for Selling: How to Use the Art of War to Build Lifelong Customer Relationships: How to Use the Art of War to Build Lifelong Customer Relationships'
p1179
I1182
sS"Playing the REITs Game: Asia's New Real Estate Investment Trusts"
p1180
I1183
sS'The Denial of Death'
p1181
I1184
sS'Starting an eBay Business for Dummies'
p1182
I1185
sS"Chasing Lance: The 2005 Tour de France and Lance Armstrong's Ride of a Lifetime"
p1183
I1186
sS"Pindar's Homer: The Lyric Possession of An Epic Past"
p1184
I1187
sS'The Fall of Hyperion'
p1185
I984
sS'The Journals of Ayn Rand'
p1186
I1189
sS"Shakespeare Set Free: Teaching Romeo & Juliet, Macbeth & Midsumr Night'"
p1187
I1190
sS'Radiology for Anaesthesia and Intensive Care'
p1188
I1225
sS'The Odyssey'
p1189
I1192
sS'Think and Grow Rich'
p1190
I1193
sS'The Last Life'
p1191
I1194
sS'Antigone / Oedipus the King / Electra'
p1192
I1195
sS'A Wrinkle in Time (A Wrinkle in Time Quintet, #1)'
p1193
I1800
sS'Euripides IV: Rhesus/The Suppliant Women/Orestes/Iphigenia in Aulis'
p1194
I1018
sS'The Best of Twain, 8 Vols'
p1195
I1197
sS'The Beloved: Reflections on the Path of the Heart'
p1196
I1198
sS'Introducing Stephen Hawking'
p1197
I1199
sS'The Portrait of a Lady'
p1198
I1200
sS'Katherine Paterson'
p1199
I1201
sS"The Complete Idiot's Guide to Getting Things Done"
p1200
I1048
sS"The Hitchhiker's Guide to Lean: Lessons from the Road"
p1201
I1203
sS'Learning to Sail: The Annapolis Sailing School Guide for Youlearning to Sail: The Annapolis Sailing School Guide for Young Sailors of All Ages Ng Sailors of All Ages'
p1202
I1204
sS'Medea and Other Plays'
p1203
I1067
sS'The Custom of the Country'
p1204
I1206
sS'Chord Workbook for Guitar Volume One'
p1205
I1207
sS'Moneyball: The Art of Winning an Unfair Game'
p1206
I1208
sS'The Changeling (Daughters of England, #15)'
p1207
I1209
sS'Essential Jazz: The First 100 Years (with CD-ROM)'
p1208
I1210
sS'Bleach ("Si Shen") (Volume 1)'
p1209
I1211
sS'Beth Makes a Friend (Portraits of Little Women)'
p1210
I1212
sS'The Oresteia'
p1211
I1213
sS"Expanding Tactics for Listening Teacher's Book"
p1212
I1214
sS'The Cobweb'
p1213
I1215
sS'Dialogue and Deviance: Male-Male Desire in the Dialogue Genre (Plato to the Middle Ages, Plato to the Enlightenment, Plato to the Postmodern)'
p1214
I1216
sS"Harry Potter and the Sorcerer's Stone (Harry Potter, #1)"
p1215
I1217
sS'The Thorn Birds'
p1216
I1822
sS'Kare First Love, Vol. 10 (Kare First Love, #10)'
p1217
I1218
sS"Dicing with Di: The Amazing Adventures of Britain's Royal Watchers"
p1218
I1219
sS'Flash to the Core: An Interactive Sketchbook by Joshua Davis'
p1219
I1577
sS"Betty Crocker's Diabetes Cookbook: Everyday Meals Easy as 1-2-3"
p1220
I1221
sS"America's Mayor: The Hidden History of Rudy Giuliani's New York"
p1221
I1222
sS'Make the Most of Your Digital Photos, Video, & Music'
p1222
I1223
sS"Melville's Moby Dick: An American Nekyia (Studies in Jungian Psychology by Jungian Analysts)"
p1223
I1224
sS'Invisible Engines: How Software Platforms Drive Innovation and Transform Industries'
p1224
I1191
sS'Persuasion'
p1225
I1226
sS'The Lady and the Unicorn'
p1226
I1227
sS'Barbarians inside the Gates and Other Controversial Essays'
p1227
I1228
sS'Men Are from Mars, Women Are from Venus: A Practical Guide for Improving Communication and Getting What You Want in Relationships'
p1228
I1229
sS'Maybe You Never Cry Again'
p1229
I1230
sS'Alcoholics Anonymous: The Story of How Many Thousands of Men and Women Have Recovered from Alcoholism'
p1230
I1231
sS"Murder at Ford's Theatre (Capital Crimes, #19)"
p1231
I1579
sS'The Vice Guide to Sex and Drugs and Rock and Roll'
p1232
I1233
sS'Drina Dances in Paris (Drina, #7)'
p1233
I1580
sS'God, Time, & Stephen Hawking'
p1234
I1235
sS'Oral and Written Communication: Historical Approaches'
p1235
I1252
sS'The Confessions of Saint Augustine'
p1236
I1237
sS'Theocritus: Idylls'
p1237
I1238
sS"Theatrical Space and Historical Place in Sophocles' Oedipus at Colonus"
p1238
I1239
sS'Daniel Deronda, V1'
p1239
I1240
sS'Buddhism Pure and Simple'
p1240
I1241
sS'On Beyond Zebra!'
p1241
I1242
sS'Member of the Club: Reflections on Life in a Racially Polarized World'
p1242
I1310
sS'Body Piercing Saved My Life: Inside the Phenomenon of Christian Rock'
p1243
I1244
sS'Purpose Driven Life'
p1244
I1245
sS"Gentleman's Guide to Toasting"
p1245
I1247
sS'The Exp 48 Laws of Power'
p1246
I1944
sS'Sophocles Plays 2: Ajax, Women of Trachis, Electra, Philoctetes'
p1247
I1249
sS'Goodbye Mr. Chips'
p1248
I1250
sS'Jeff Koons/Andy Warhol: Flowers'
p1249
I1251
sS'Roman Period (Greek Literature, Volume 6)'
p1250
I1236
sS'Martini, Straight Up: The Classic American Cocktail'
p1251
I1253
sS'The Emergence of Life on Earth: A Historical and Scientific Overview'
p1252
I1254
sS'Peace'
p1253
I1255
sS'Pompeii: Monuments Past and Present'
p1254
I1256
sS'Sea of Stones'
p1255
I1257
sS'Girl With a Pearl Earring'
p1256
I1259
sS'Chapterhouse: Dune (Dune Chronicles #6)'
p1257
I1260
sS'First Love'
p1258
I1261
sS'Flesh and Blood'
p1259
I1262
sS'Dune Messiah (Dune Chronicles #2)'
p1260
I1263
sS'Buzz Marketing with Blogs for Dummies'
p1261
I1264
sS'Texas Heat (Texas, #2)'
p1262
I1265
sS'The Alpine Path: The Story of My Career'
p1263
I1266
sS'Is Reality Optional?: And Other Essays'
p1264
I1267
sS'What Every Fidelity Investor Needs to Know'
p1265
I1584
sS'Phaedrus-Kommentar'
p1266
I1269
sS'The Dry Danube: A Hitler Forgery'
p1267
I1270
sS'Best of London (Lonely Planet Best Of)'
p1268
I1271
sS'Eating for Life: Your Guide to Great Health, Fat Loss and Increased Energy!'
p1269
I1272
sS'Killing Yourself To Live'
p1270
I1273
sS'Chicago Blues Guitar (Guitar Books)'
p1271
I1274
sS'Fullmetal Alchemist, Vol. 8 (Fullmetal Alchemist, #8)'
p1272
I1275
sS'Pastoral Prayers in Public Places'
p1273
I1276
sS'The Trust: The Private and Powerful Family behind the New York Times'
p1274
I1277
sS'Wild Fire (John Corey, #4)'
p1275
I1278
sS'100 Bullshit Jobs...And How to Get Them'
p1276
I1279
sS'Colorado Springs Notes, 1899-1900'
p1277
I1280
sS"The Poet's Voice: Essays on Poetics and Greek Literature"
p1278
I1530
sS'We the Living'
p1279
I1281
sS"Mel Bay's Guide to Guitar Chord Progression"
p1280
I1282
sS"Douglas Adams's Starship Titanic"
p1281
I1283
sS'Leadership in Organizations'
p1282
I1948
sS'The Buccaneers'
p1283
I1285
sS'Team of Rivals: The Political Genius of Abraham Lincoln'
p1284
I1286
sS'Death in Holy Orders (Adam Dalgliesh, #11)'
p1285
I1287
sS'Supreme Power: Hyperion'
p1286
I1288
sS'Lysistrata (Clarendon)'
p1287
I1289
sS'The Great Bridge: The Epic Story of the Building of the Brooklyn Bridge'
p1288
I1290
sS"Warren Buffett Wealth: Principles and Practical Methods Used by the World's Greatest Investor"
p1289
I1291
sS"Gorgias (World's Classics)"
p1290
I216
sS'Theocritus: A Selection: Idylls 1, 3, 4, 6, 7, 10, 11 and 13'
p1291
I1294
sS'The Five Love Languages of Teenagers'
p1292
I834
sS'A History of the World in 6 Glasses'
p1293
I1296
sS'On Love and Death'
p1294
I1297
sS'The Heart of the Matter'
p1295
I1298
sS'A Brief History of the Western World, Volume I: To 1715 (with CD-ROM and InfoTrac)'
p1296
I1299
sS"Selected Themes from the Motion Picture Harry Potter and the Sorcerer's Stone (Solo, Duet, Trio): Flute"
p1297
I1300
sS'Later Works'
p1298
I1301
sS'Twenty Four Hours A Day: Meditations'
p1299
I1302
sS'Frances Hodgson Burnett: The Unexpected Life of the Author of the Secret Garden'
p1300
I1303
sS'Greek Tragedies, Vol. 2: Aeschylus: The Libation Bearers; Sophocles: Electra; Euripides: Iphigenia in Tauris, Electra, The Trojan Women'
p1301
I1304
sS'Bullshit Artist: The 9/11 Leadership Myth'
p1302
I1305
sS'Black Rednecks & White Liberals'
p1303
I1306
sS'Winds of Change (The Story Girl #8)'
p1304
I1307
sS'Shakespeare and the Denial of Death'
p1305
I511
sS'The 7 Habits of Highly Effective People'
p1306
I1309
sS'The Da Vinci Code: Fact or Fiction?'
p1307
I1243
sS'Assessment in Special Education: A Practical Approach'
p1308
I1311
sS'Disappearances'
p1309
I1312
sS"Melville's Short Novels: Authoritative Texts, Contexts, Criticism"
p1310
I1313
sS'The Story of Holly and Ivy'
p1311
I1314
sS'Suppliant Maidens/Persians/Prometheus/Seven Against Thebes (Loeb Classical Library 145)'
p1312
I1315
sS'Love As A Foreign Language #5'
p1313
I1316
sS'Double Tap (Paul Madriani, #8)'
p1314
I1317
sS'The Voice of Reason: Essays in Objectivist Thought'
p1315
I1319
sS'Government in America: People, Politics, and Policy'
p1316
I1320
sS'Farmer Giles of Ham'
p1317
I1321
sS'Web-Based Instruction: A Guide for Libraries'
p1318
I1322
sS'The Millionaire Next Door'
p1319
I1323
sS'Bulletproof Your PC Network: Solving the 210 Most Common Problems Before They Happen'
p1320
I1324
sS'Trevanian: Four Complete Novels: The Eiger Sanction / The Loo Sanction / The Main / Shibumi'
p1321
I1325
sS'A History of God: The 4,000-Year Quest of Judaism, Christianity, and Islam'
p1322
I1326
sS"Blood Stripes: The Grunt's View of the War in Iraq"
p1323
I1327
sS'Nickel and Dimed'
p1324
I1328
sS'The Plastic Film and Foil Web Handling Guide'
p1325
I1329
sS'New York Nights (Virex Trilogy, #1)'
p1326
I1330
sS"L'Histoire de Pi"
p1327
I1331
sS'Hospital Sketches'
p1328
I1332
sS'Anna Karenina'
p1329
I1333
sS'Iceland: Land of the Sagas'
p1330
I1334
sS'Cover Her Face (Adam Dalgliesh #1)'
p1331
I1335
sS'Walk in the Light & Twenty-Three Tales'
p1332
I1599
sS"Secrets of the Alchemist Dar (A Treasure's Trove)"
p1333
I1337
sS'The Oedipus Plays of Sophocles'
p1334
I1338
sS'Harry Potter Collection (Harry Potter, #1-6)'
p1335
I1958
sS'Four Plays: The Clouds/The Birds/Lysistrata/The Frogs'
p1336
I1400
sS'Flat Earth? Round Earth?'
p1337
I469
sS'Sailing Smart: Winning Techniques, Tactics, And Strategies'
p1338
I1341
sS'African Rock Art: Paintings and Engravings on Stone'
p1339
I1342
sS'The Five Love Languages Faux Leather Bound Journal and Paperback Book Set (Amazon.com Exclusive)'
p1340
I1343
sS'The Design of Everyday Things'
p1341
I1344
sS'Ruby Cookbook'
p1342
I1345
sS'The Future of Freedom: Illiberal Democracy at Home and Abroad'
p1343
I1346
sS'Personal Bankruptcy Laws for Dummies'
p1344
I1347
sS'Think and Grow Rich!'
p1345
I903
sS'Best of Ruby Quiz Volume One'
p1346
I1349
sS'Finding Yourself in India'
p1347
I1350
sS'Oresteia'
p1348
I1351
sS'Aeschylus 2: The Persians/Seven Against Thebes/The Suppliants/Prometheus Bound'
p1349
I1962
sS'Fullmetal Alchemist, Vol. 4 (Fullmetal Alchemist, #4)'
p1350
I1601
sS'Complete Giuliani Studies'
p1351
I1354
sS'The Little Steamroller'
p1352
I1355
sS'Raising Smart Kids for Dummies'
p1353
I1356
sS'Jungle Love'
p1354
I1357
sS'Untouchable'
p1355
I1964
sS'Tenth Man'
p1356
I1358
sS"Applying Sun Tzu's Art Of War In Marketing"
p1357
I1359
sS'Gorgias, Sophist, and Artist'
p1358
I1360
sS"Sex, Drugs and DNA: Science's Taboos Confronted"
p1359
I1361
sS"Virgil's Aeneid: Interpretation and Influence"
p1360
I1362
sS'New York Trilogy   Whodunit?'
p1361
I1363
sS"Masterpieces of Illumination: Codices Illustres the World's Most Famous Illuminated Manuscripts 400 to 1600"
p1362
I1364
sS'Drina Dances in Switzerland (Drina, #9)'
p1363
I1365
sS'A Little Original Sin: The Life and Work of Jane Bowles'
p1364
I1366
sS'Art for Public Places: Critical Essays'
p1365
I1367
sS'Grace Givers: Amazing Stories of Grace in Action'
p1366
I1368
sS'Execution: The Discipline of Getting Things Done'
p1367
I1369
sS'Conversations with J.K. Rowling'
p1368
I1370
sS'Seven Mansions of Color'
p1369
I1371
sS'An Avalanche of Anoraks'
p1370
I1372
sS'Purpose Driven Life Journal: What on Earth Am I Here For?'
p1371
I1373
sS'A Mind To Murder (Adam Dalgliesh, #2)'
p1372
I1374
sS'Against the Odds: Tales of Achievement'
p1373
I38
sS"Brian's Winter"
p1374
I1376
sS'The Canterbury Tales (original-spelling edition)'
p1375
I597
sS'The Great House of God'
p1376
I1378
sS'Principles of Virology: Molecular Biology, Pathogenesis, and Control'
p1377
I43
sS'Short History of Syriac Literature'
p1378
I1380
sS'Velvet: A Novel of Suspense'
p1379
I1381
sS'Growing Givers Hearts'
p1380
I1382
sS'Middlesex'
p1381
I64
sS'Eclogues. Georgics. Aeneid: Books 1-6'
p1382
I1384
sS'First Love: Renewing Your Passion for God'
p1383
I1385
sS'Galileo, Darwin, and Hawking: The Interplay of Science, Reason, and Religion'
p1384
I1386
sS'Tim'
p1385
I1387
sS'The Birds (Methuen Drama)'
p1386
I1388
sS'The Trust: The Private and Powerful Family Behind The New York Times'
p1387
I1607
sS'Behind the Couch'
p1388
I90
sS'Otis Lee Crenshaw: I Blame Society'
p1389
I1391
sS'Pat of Silver Bush (Pat, #1)'
p1390
I1392
sS'The Guitar Chord Deck'
p1391
I1393
sS'Dating For Dummies'
p1392
I1394
sS'The Stories of Mary Gordon'
p1393
I1395
sS'Ft-D Hammett: A Life'
p1394
I1396
sS'The Collapse of Evolution'
p1395
I1397
sS'Heaven and Other Poems'
p1396
I1398
sS'A Killing Rain (Louis Kincaid, #6)'
p1397
I1399
sS'Cool Names for Babies'
p1398
I755
sS'The Madman'
p1399
I1401
sS'The Story of Inventions'
p1400
I205
sS'Love Letters'
p1401
I1403
sS"A Sentimental Education: The Story of a Young Man (World's Classics)"
p1402
I1404
sS"Chaucer's Canterbury Tales"
p1403
I1405
sS'Old Man and the Sea'
p1404
I1406
sS'Parzival: The Quest of the Grail Knight'
p1405
I1407
sS'Suppliant Women: Suppliant Women, Electra, Heracles (Loeb Classical Library): Suppliant Women, Electra, Heracles, Trojan Women'
p1406
I1408
sS'On The Road'
p1407
I1409
sS"Edward Lear's Nonsense Verse"
p1408
I1609
sS'The Curious Incident of the Dog in the Night-time'
p1409
I1411
sS'In the Land of White Death: An Epic Story of Survival in the Siberian Arctic'
p1410
I1412
sS'The First Assistant: A Continuing Tale from Behind the Hollywood Curtain'
p1411
I1413
sS'Stranger Than Fiction'
p1412
I1414
sS'Fast Food Nation: The Dark Side of the All-American Meal'
p1413
I1415
sS'The Warren Buffett CEO: Secrets from the Berkshire Hathaway Managers'
p1414
I1416
sS'Advanced Mathematical Economics'
p1415
I1417
sS"Children's Songs: Guitar Chord Songbook"
p1416
I1973
sS'The Sea'
p1417
I305
sS'Dashiell Hammett Une VI'
p1418
I1420
sS'Twelve Steps For Overeaters: An Interpretation Of The Twelve Steps Of Overeaters Anonymous'
p1419
I1421
sS'First Love & Look for My Obituary: Two Novellas by Elena Garro'
p1420
I1422
sS'French Ways and Their Meaning'
p1421
I1423
sS'Eric Meyer on CSS: Mastering the Language of Web Design with Cascading Style Sheets'
p1422
I1488
sS'LA Guerra De LA Mercadotecnia (Marketing Warfare)'
p1423
I355
sS'Sir Gawain and the Green Knight'
p1424
I358
sS"Down at Theresa's: Chicago Blues: The Photographs of Marc PoKempner"
p1425
I1427
sS'Thucydides: An Introduction for the Common Reader'
p1426
I1428
sS'The Sixteen Pleasures'
p1427
I1429
sS"Loving and Dying: A Reading of Plato's Phaedo, Symposium, and Phaedrus"
p1428
I1430
sS'Storage (Chic Simple) (Chic Simple Components)'
p1429
I1431
sS'The Year of the Death of Ricardo Reis'
p1430
I1432
sS'Hardy Boys Boxed Set 1-6'
p1431
I1434
sS'The Bacchae and Other Plays'
p1432
I1435
sS"Don DeLillo's White Noise (Bloom's Modern Critical Interpretations)"
p1433
I1869
sS'The Life of Graham Greene: Volume II: 1939-1955'
p1434
I443
sS'Democracy Without Citizens: Media and the Decay of American Politics'
p1435
I449
sS'Artesia: Adventures in the Known World'
p1436
I1438
sS'Steering a New Course: Transportation, Energy, and the Environment'
p1437
I1978
sS'The Long Tail:  Why The Future Is Selling Less Of More'
p1438
I1440
sS'Incredible Chord Finder: Easy-to-Use Guide to Over 1,100 Guitar Chords'
p1439
I1441
sS'Picture Chord Encyclopedia: Photos and Diagrams for 2,600 Guitar Chords!'
p1440
I1442
sS'Help Yourself Get Everything Done'
p1441
I1443
sS"The Omnivore's Dilemma: A Natural History of Four Meals"
p1442
I497
sS'Essence and Alchemy: A Book of Perfume'
p1443
I1929
sS'The Annotated Pride & Prejudice'
p1444
I1445
sS"Stylin' with CSS: A Designer's Guide"
p1445
I1618
sS'Trends in Mathematical Physics: Proceedings of the Conference on Trends in Mathematical Physics, October 14-17, 1998, University of Tennessee, Knoxville'
p1446
I1446
sS'Lo mejor de Londres (Lonely Planet Best Of)'
p1447
I1447
sS"Mahatma Gandhi and His Myths: Civil Disobedience, Nonviolence, and Satyagraha in the Real World (Plus Why It's Gandhi, Not Ghandi)"
p1448
I1448
sS'Control and Subversion: Gender Relations  in Tajikistan'
p1449
I534
sS"Investing Without Losing: The Beginner's Guide to Real Estate Tax Lien and Tax Deed Auctions"
p1450
I1450
sS'The Three-Martini Playdate: A Practical Guide to Happy Parenting'
p1451
I1451
sS'A Colorful Symphony: Full Score'
p1452
I1452
sS'Euripides II: The Cyclops/Heracles/Iphigenia in Tauris/Helen'
p1453
I1453
sS'Antigone'
p1454
I1454
sS'The Lira Da Braccio'
p1455
I1455
sS'For the Good of the Earth and Sun: Teaching Poetry'
p1456
I1456
sS'Iphigenia in Aulis'
p1457
I1457
sS'A Journal of the Plague Year'
p1458
I572
sS'Aeneid: Hero, War, Humanity'
p1459
I1459
sS'The Jane Austen Book Club'
p1460
I1461
sS'The Structure of Old Norse "Drottkvaett" Poetry'
p1461
I1462
sS'Erasmus and the Age of Reformation'
p1462
I1463
sS'Wild at Heart Field Manual: A Personal Guide to Discover the Secret of Your Masculine Soul'
p1463
I1464
sS'Some of the Funniest Things Happen in the Most Unlikely and Unexpected Places'
p1464
I604
sS'Guitar Chords for Beginners'
p1465
I1466
sS"Rhetoric, Comedy, and the Violence of Language in Aristophanes' Clouds"
p1466
I1467
sS'Aspects of the Novel'
p1467
I1468
sS'Drina Dances in Exile (Drina, #3)'
p1468
I1469
sS'The Evidence-Based Social Work Skills Book'
p1469
I1470
sS'55,000+ Baby Names'
p1470
I1471
sS'Wild Things: The Material Culture of Everyday Life'
p1471
I1472
sS"The World's First Love: Mary, Mother of God"
p1472
I1473
sS'Secrets of the Snow: Visual Clues to Avalanche and Ski Conditions'
p1473
I655
sS'The Complete Nonsense of Edward Lear'
p1474
I1475
sS'Sun Tzu and the Art of Business: Six Strategic Principles for Managers'
p1475
I1476
sS'Sherlock Holmes: The Lost Cases'
p1476
I1477
sS'The Collapse of Complex Societies'
p1477
I1478
sS'Hiroshima Mon Amour'
p1478
I1479
sS"The Tragedy of Pudd'nhead Wilson"
p1479
I1480
sS'Trade Like Warren Buffett'
p1480
I1481
sS'Rails Recipes'
p1481
I1482
sS'The Rescue (Kidnapped, #3)'
p1482
I1483
sS'Grief, Dying, & Death'
p1483
I1484
sS'The Secret Family: Twenty-Four Hours Inside the Mysterious World of Our Minds and Bodies'
p1484
I1485
sS'The Bucaneers'
p1485
I1486
sS'The Birth of Tragedy and Other Writings (History of Philosophy)'
p1486
I1487
sS'Vegas Heat (Vegas, #2)'
p1487
I1460
sS'Language, Sexuality, Narrative: The Oresteia'
p1488
I1625
sS'The History of Sexuality, Volume 3: The Care of the Self'
p1489
I1490
sS'The Inner Game of Tennis: The Classic Guide to the Mental Side of Peak Performance'
p1490
I1491
sS'Journey Without Maps'
p1491
I1492
sS'ebay Timesaving Techniques for Dummies'
p1492
I1493
sS"Cliffs Notes on Aristophanes' Lysistrata, The Birds, The Clouds, The Frogs"
p1493
I1494
sS'China Court: The Hours of a Country House'
p1494
I1495
sS'Bleach, Volume 15'
p1495
I1496
sS'Bleach, Volume 14'
p1496
I1497
sS'Bleach, Volume 12'
p1497
I788
sS'Amazons'
p1498
I1499
sS'The Modern Falconer: Training, Hawking & Breeding'
p1499
I1500
sS"Ruby Ann's Down Home Trailer Park Holiday Cookbook"
p1500
I1501
sS'Augustine: Ancient Thought Baptized'
p1501
I921
sS'The Portable Henry James'
p1502
I1503
sS'Moby Dick (Complete And Unabridged)'
p1503
I812
sS'Sex, Drugs & Economics: An Unconventional Introduction to Economics'
p1504
I1505
sS'Book of Sketches'
p1505
I1506
sS'Personal Finance For Dummies'
p1506
I843
sS'A Brief History of Time'
p1507
I1508
sS'Bridge to Terabithia Study Guide'
p1508
I1509
sS'Marketing Warfare'
p1509
I1510
sS'Decadent'
p1510
I1511
sS'From Russia With Love/Moonraker'
p1511
I1512
sS'Staying Clean: Living Without Drugs'
p1512
I1513
sS"Euripides' Bacchae, Focus Classical Library (Focus Classical Library)"
p1513
I1161
sS'Hesiod II: The Shield. Catalogue of Women. Other Fragments. (Loeb Classical Library, #503)'
p1514
I1514
sS'The Articulate Executive in Action: How the Best Leaders Get Things Done'
p1515
I1515
sS'The Intentional Stance'
p1516
I1516
sS'Hyperion Cantos: Hyperion / The Fall of Hyperion'
p1517
I1517
sS'The Fountainhead'
p1518
I1518
sS'Execution: The Discipline Of Getting Things Done'
p1519
I1519
sS'What Every Investor Needs to Know about Accounting Fraud'
p1520
I1520
sS'The Power and the Glory'
p1521
I929
sS'A Circle of Quiet (Crosswicks Journals #1)'
p1522
I1522
sS'The Canterbury Tales: Volume III'
p1523
I942
sS'The Bible Lessons of John Quincy Adams for His Son'
p1524
I1524
sS'Who Needs Greek? Contests in the Cultural History of Hellenism'
p1525
I1525
sS'The Languages of Aristophanes: Aspects of Linguistic Variation in Classical Attic Greek'
p1526
I1526
sS'My First Love and Other Disasters'
p1527
I1527
sS'Secret of the Peaceful Warrior'
p1528
I1528
sS'Murder by Moonlight & Other Mysteries (New Adventures of Sherlock Holmes 19-24)'
p1529
I1529
sS'The Story of Mr Sommer'
p1530
I739
sS'Los Cinco Lenguajes Del Amor/the Five Languages of Love'
p1531
I1989
sS'Camp Cooking: 100 Years The National Museum of Forest Service History'
p1532
I1532
sS'Phaedrus/Apology/Crito/Symposium'
p1533
I1533
sS"The Unity of Plato's Gorgias: Rhetoric, Justice, and the Philosophic Life"
p1534
I1534
sS"Bookclub in a Box Discusses Khaled Hosseini's Novel The Kite Runner"
p1535
I1535
sS'The Enchanted April (1922)'
p1536
I1536
sS'Dragonball'
p1537
I1012
sS'Vice (V, #8)'
p1538
I1020
sS'Hippolytus'
p1539
I1539
sS'How to Succeed with Men'
p1540
I1540
sS'The J.K. Rowling Encyclopedia'
p1541
I1541
sS'Self'
p1542
I1542
sS'No Excuses: Antonio Sabato Jr. Workout For Life'
p1543
I1053
sS'From Beirut to Jerusalem'
p1544
I1059
sS'Old Dry Frye'
p1545
I1545
sS"Pojo's Unofficial Absolute Dragonball Z: Gt Episode Reviews"
p1546
I1068
sS'Aglaia: The Poetry of Alcman, Sappho, Pindar, Bacchylides, and Corinna'
p1547
I1548
sS'God Created The Integers'
p1548
I1549
sS"Objective IELTS Intermediate Student's Book"
p1549
I1550
sS'Compelling Evidence (Paul Madriani, #1)'
p1550
I1551
sS'Adjusting Sights'
p1551
I1635
sS'Emergence from Chaos to Order'
p1552
I1104
sS'Tom Wolfe Carves Dragons'
p1553
I1554
sS'The Warren Buffett Way'
p1554
I1555
sS"The Essential J.R.R. Tolkien Sourcebook: A Fan's Guide to Middle-Earth and Beyond"
p1555
I1556
sS"Dickens' Great Expectations (Cliffs Notes)"
p1556
I1557
sS'Odyssey'
p1557
I1558
sS'Symposium/Phaedrus'
p1558
I1559
sS'The Human Rights Committee and the Right of Individual Communication: Law and Practice'
p1559
I1560
sS'The Prince of the City: Giuliani, New York, and the Genius of American Life'
p1560
I1561
sS'The Years of Rice and Salt'
p1561
I1562
sS'Nikola Tesla: A Spark of Genius'
p1562
I1563
sS'Louisa May Alcott: A Biography: With an Introduction to the New Edition'
p1563
I1564
sS'Salt in His Shoes: Michael Jordan in Pursuit of a Dream'
p1564
I1565
sS'Miss Happiness and Miss Flower'
p1565
I1566
sS'Primal Heat (Includes: Breeds, #10; Devlin Dynasty, #1; Moon Lust, #1)'
p1566
I1157
sS"The Everything Kid's Cookbook: From Mac'n Cheese to Double Chocolate Chip Cookies-All You Need to Have Some Finger Lickin' Fun"
p1567
I1568
sS'Brainstorms: Philosophical Essays on Mind and Psychology'
p1568
I1569
sS'A Challenge to the Critics: Scholarly Evidences of the Book of Mormon'
p1569
I1570
sS'Managing Debt For Dummies'
p1570
I1571
sS'The Minds of Boys: Saving Our Sons from Falling Behind in School and Life'
p1571
I1180
sS'Midwest Eclogue'
p1572
I1573
sS'The Tower'
p1573
I1574
sS'J. K. Rowling: A Biography'
p1574
I1575
sS'Herding Dogs: Progressive Training'
p1575
I1576
sS'Rooms with a View: Two Decades of Outstanding American Interior Design from the Kips Bay...'
p1576
I1220
sS'Winner Take All (John Rain, #3)'
p1577
I1578
sS'Against the Day'
p1578
I1996
sS"Grace's Letter to Lincoln"
p1579
I1232
sS'Sport (Harriet the Spy Adventures)'
p1580
I1234
sS'The Woman Chaser'
p1581
I1581
sS'Thai Massage'
p1582
I1582
sS'Stranger Than Fiction: An Independent Investigation of the True Culprits Behid 9-11'
p1583
I1583
sS'You Only Live Twice (James Bond, #12)'
p1584
I1268
sS'The Lord of the Rings Hardcover Box Set (The Lord of the Rings, #1-3)'
p1585
I1585
sS'Lysis/Phaedrus/Symposium: Plato on Homosexuality (Great Books in Philosophy)'
p1586
I1586
sS'The Longest Journey'
p1587
I1587
sS"Literature, Disaster, and the Enigma of Power: A Reading of 'Moby-Dick'"
p1588
I1588
sS'Riding High'
p1589
I1589
sS'The Good Earth (Cliffs Notes)'
p1590
I1590
sS'Trump: Surviving at the Top'
p1591
I1591
sS'Looking for Mo'
p1592
I1592
sS'Euripides and the Poetics of Sorrow: Art, Gender, and Commemoration in Alcestis, Hippolytus, and Hecuba'
p1593
I1593
sS"Foucault's Virginity: Ancient Erotic Fiction & the History of Sexuality (Stanford Memorial Lecture)"
p1594
I1594
sS'Catching Alice'
p1595
I1595
sS'The 36-Hour Day: A Family Guide to Caring for Persons with Alzheimer Disease, Related Dementing Illnesses, and Memory Loss in Later Life'
p1596
I1596
sS'Cultural Diversity Fieldbook: Fresh Visions and Breakthrough Strategies for Revitalizing the Workplace'
p1597
I1597
sS"Kids' Crafts: Stamp It!: 50 Amazing Projects to Make"
p1598
I1598
sS'In Web Design for Libraries'
p1599
I1336
sS'Fundamental and Applied Aspects of Modern Physics'
p1600
I1600
sS'Sliding Into Home'
p1601
I1353
sS'Diez Cuentos de Eva Luna Con Guia de Comprension y Repaso de Gramatica'
p1602
I1602
sS"People's History of the United States: 1492 to Present"
p1603
I1603
sS'Adventures of Huckleberry Finn'
p1604
I1604
sS'eBay: Top 100 Simplified Tips & Tricks'
p1605
I1605
sS'A General History of the Pyrates'
p1606
I472
sS'A Bend in the Road'
p1607
I1389
sS'Anansi Boys (American Gods, #2)'
p1608
I1608
sS'Hecuba: Introduction, Text, and Commentary'
p1609
I1410
sS'Best of Blink-182'
p1610
I1610
sS'The Secret House: The Extraordinary Science of an Ordinary Day'
p1611
I1611
sS'Anne of Avonlea'
p1612
I1612
sS"Don't Sweat the Small Stuff for Men: Simple Ways to Minimize Stress in a Competitive World"
p1613
I1614
sS'Fit for Developing Software: Framework for Integrated Tests'
p1614
I1615
sS'Deborah Butterfield'
p1615
I1616
sS'Prolegomena to Homer, 1795'
p1616
I1617
sS'The Lovely Bones'
p1617
I1295
sS'My Secret Garden'
p1618
I1619
sS'The Green Toenails Gang (Olivia Sharp: Agent for Secrets)'
p1619
I1621
sS"Glacier's Historic Hotels & Chalets: View with a Room"
p1620
I1622
sS'Heretics of Dune (Dune Chronicles #5)'
p1621
I1623
sS'Enthusiasm and Divine Madness'
p1622
I1624
sS'The Horn of the Unicorn: A Mosaic of the Life of Archbishop Marcel Lefebvre'
p1623
I1489
sS'The Confusion (The Baroque Cycle, #2)'
p1624
I1626
sS"Vicksburg's Long Shadow: The Civil War Legacy of Race and Remembrance"
p1625
I1627
sS'The Power of One (The Power of One, #1)'
p1626
I1628
sS'The Innocents Abroad'
p1627
I1424
sS'Willem de Kooning: Late Paintings'
p1628
I1630
sS'Rose in Bloom'
p1629
I1631
sS"Plato's Rhapsody and Homer's Music: The Poetics of the Panathenaic Festival in Classical Athens"
p1630
I1632
sS'CSS Cookbook'
p1631
I1633
sS'Portrait of a Lady'
p1632
I1651
sS'Collected Tales, Sketches, Speeches and Essays 2: 1891-1910'
p1633
I1552
sS'The River'
p1634
I1636
sS'The Men Who Stare at Goats'
p1635
I1637
sS"Into a Paris Quartier: Reine Margot's Chapel and Other Haunts of St. Germain"
p1636
I1638
sS'How to Cook Everything: Easy Weekend Cooking'
p1637
I1639
sS'Storage Networking Essentials: A Complete Guide to Understanding & Implementing Sans'
p1638
I1640
sS'Roadside Guide to Indian Ruins & Rock Art of the Southwest'
p1639
I2003
sS'Perfume Dreams: Reflections on the Vietnamese Diaspora'
p1640
I1642
sS'For the New Intellectual: The Philosophy of Ayn Rand'
p1641
I1643
sS'Nickel and Dimed: On (Not) Getting by in America'
p1642
I1644
sS"Hatchet (Brian's Saga, #1)"
p1643
I1645
sS'Moonraker (James Bond #3)'
p1644
I1646
sS'Gita on the Green'
p1645
I1647
sS'Chandler: Later Novels and Other Writings'
p1646
I1648
sS'The Way We Die Now'
p1647
I2004
sS'Georgia of the Jungle'
p1648
I1650
sS'In Search of Moby Dick: Quest for the White Whale'
p1649
I1634
sS'Shibumi and the Kitemaker'
p1650
I1652
sS'Purpose Driven Life - For Commuters: What on Earth Am I Here For?'
p1651
I1653
sS'Thy Will Be Done: The Conquest of the Amazon : Nelson Rockefeller and Evangelism in the Age of Oil'
p1652
I1654
sS"Gentleman's Guide to Grooming and Style"
p1653
I1655
sS'Escape From Pompeii'
p1654
I1656
sS'Bleach, Volume 01'
p1655
I1657
sS'Emergence: The Connected Lives of Ants, Brains, Cities, and Software'
p1656
I1658
sS"The Secret Garden Cookbook: Recipes Inspired by Frances Hodgson Burnett's THE SECRET GARDEN"
p1657
I1659
sS"The Heroes of Shakespeare's Tragedies"
p1658
I1660
sS'A Clean Kill in Tokyo (John Rain, #1)'
p1659
I1661
sS'Hard Rain'
p1660
I1662
sS'The Emergence of Everything: How the World Became Complex'
p1661
I1664
sS'Lectures on Don Quixote'
p1662
I1665
sS'My Inventions'
p1663
I1666
sS'City of the Beasts (Eagle and Jaguar, #1)'
p1664
I1667
sS'The Long Tail: Why the Future of Business is Selling Less of More'
p1665
I1668
sS'If You Lived 100 Years Ago'
p1666
I1669
sS'The Lost Journals of Nikola Tesla: HAARP - Chemtrails and the Secret of Alternative 4'
p1667
I1670
sS'Worlds Beyond Dune Box'
p1668
I1671
sS'A Mouth Like Yours'
p1669
I1672
sS'Louisa May Alcott (Biography (a & E))'
p1670
I1673
sS'Tolstoy: Anna Karenina'
p1671
I1674
sS'Left-Hand Guitar Chord Chart'
p1672
I1675
sS'Dancing Shoes (Shoes, #9)'
p1673
I1676
sS'The Letters of John and Abigail Adams'
p1674
I1677
sS'Drina Dances In New York (Drina, #6)'
p1675
I1678
sS'A Modest Proposal and Other Satirical Works'
p1676
I1679
sS'A Wrinkle in Time: A Guide for Using "A Wrinkle in Time" in the Classroom'
p1677
I1680
sS"Liar's Poker"
p1678
I1681
sS"Cliffs Notes on Hemingway's The Old Man and the Sea"
p1679
I1682
sS'The Tenth Man: The Great Joke (Which Made Lazarus Laugh)'
p1680
I1683
sS'Charlotte Sometimes'
p1681
I1684
sS'The AutoCAD 3D Book'
p1682
I1685
sS'Ghosts (The New York Trilogy, #2)'
p1683
I1686
sS'Elizabeth and Her German Garden'
p1684
I1687
sS'A Home at the End of the World'
p1685
I1688
sS'Willem de Kooning: Paintings 1960-1980'
p1686
I1689
sS'Moby Dick (Graphic Classics)'
p1687
I1690
sS'An Edward Lear Alphabet'
p1688
I1691
sS'Moby Dick (Spark Notes Literature Guide)'
p1689
I1692
sS'How Invention Begins: Echoes of Old Voices in the Rise of New Machines'
p1690
I1693
sS'Emergence'
p1691
I1694
sS'All Families are Psychotic'
p1692
I1695
sS'Risotto: 30 Simply Delicious Vegetarian Recipes from an Italian Kitchen'
p1693
I1696
sS'The Power of One: The Solo Play for Playwrights, Actors, and Directors'
p1694
I1697
sS'Miami'
p1695
I1698
sS'Celtic and Old Norse Designs'
p1696
I1377
sS'The Execution of Sherlock Holmes: And Other New Adventures of the Great Detective (Sherlock Holmes, #3)'
p1697
I1700
sS"The War of Don Emmanuel's Nether Parts"
p1698
I1701
sS'The First Stage Guitar Chord Chart: Learn How to Play the Most Commonly Played Guitar Chords!'
p1699
I1702
sS"Dave's Way"
p1700
I1703
sS'Haunted Places in America: A Guide to Spooked and Spooky Public Places in the United States'
p1701
I1704
sS'The Nature of Space and Time'
p1702
I1705
sS'The Fantastic Inventions of Nikola Tesla'
p1703
I1706
sS'The Bible According to Mark Twain'
p1704
I1707
sS'Zen and the Art of Motorcycle Maintenance: An Inquiry Into Values'
p1705
I1708
sS"I Ain't Scared of You: Bernie Mac on How Life Is"
p1706
I1709
sS'The Time Machine'
p1707
I1710
sS'Graphic Design: A History'
p1708
I1711
sS'The Prostitute in the Family Tree'
p1709
I1712
sS'Blink.'
p1710
I327
sS'David Copperfield'
p1711
I1714
sS'Once Again for Thucydides'
p1712
I1715
sS'The Complete Poetry and Prose of Geoffrey Chaucer'
p1713
I1716
sS'Hypercapitalism: New Media, Language, and Social Perceptions of Value'
p1714
I1717
sS'Communication, Technology and Cultural Change'
p1715
I284
sS'A Changeling for All Seasons'
p1716
I1719
sS'The Long Goodbye'
p1717
I1720
sS'Black Holes, Wormholes and Time Machines'
p1718
I1721
sS'History of Graphic Design 3e IM'
p1719
I777
sS"Frommer's Maui 2005"
p1720
I1722
sS"No Ordinary Moments: A Peaceful Warrior's Guide to Daily Life"
p1721
I1723
sS'Brokeback Mountain'
p1722
I1724
sS'Noise'
p1723
I1725
sS'Babrius and Phaedrus (Loeb Classical Library #436)'
p1724
I1726
sS'Relationships for Dummies'
p1725
I1727
sS"Four Comedies: Lysistrata / The Frogs / The Birds / Ladies' Day"
p1726
I1728
sS'De Kooning: An American Master'
p1727
I1729
sS"Across the River: Walter & Oliver's Amazing Adventure"
p1728
I1730
sS'Earlier Writings (Library of Christian Classics)'
p1729
I1731
sS'The Complete Stories'
p1730
I22
sS'The Great Gilly Hopkins'
p1731
I1733
sS'World History in Brief, Volume II (Chapters 14-33)'
p1732
I1734
sS'Open City (Issue #12)'
p1733
I1735
sS'Statesman'
p1734
I1736
sS'The Mediterranean Pantry: Creating and Using Condiments and Seasonings'
p1735
I1737
sS'Aglaia Konrad: Elasticity'
p1736
I1738
sS'The Love Artist'
p1737
I1739
sS'A Prayerbook for Spiritual Friends'
p1738
I1740
sS'Trek: David Carson, Recent Werk'
p1739
I1741
sS'Democracy in America'
p1740
I1742
sS'J.K.Lasser Pro Real Estate Investment Trusts: New Strategies for Portfolio Management'
p1741
I1743
sS"Kierkegaard's Relations to Hegel Reconsidered"
p1742
I2016
sS'The 21 Irrefutable Laws Of Leadership, Workbook'
p1743
I1745
sS"Corelli's Mandolin - Unabridged"
p1744
I116
sS'Dragonball Z: An Unauthorized Guide'
p1745
I1747
sS'Flaubert: A Biography'
p1746
I1748
sS'Web Bloopers: 60 Common Web Design Mistakes And How To Avoid Them (Morgan Kaufmann Series In Interactive Technologies)'
p1747
I1749
sS'Black Beauty'
p1748
I132
sS'Oedipus Tyrannus: Tragic Heroism and the Limits of Knowledge'
p1749
I1751
sS"Taunton's Home Storage Idea Book"
p1750
I1752
sS'Political Philosophy and Rhetoric: A Study of the Origins of American Party Politics'
p1751
I1753
sS'The Adventures of Huckleberry Finn'
p1752
I1754
sS'The Complete Verse and Other Nonsense'
p1753
I1755
sS'The Owl and the Pussycat'
p1754
I1756
sS'Why Is Sex Fun? The Evolution of Human Sexuality (Science Masters)'
p1755
I1757
sS'The Old Way of Seeing: How Architecture Lost Its Magic - And How to Get It Back'
p1756
I1758
sS'The Emergence of Sociological Theory'
p1757
I1759
sS'Phaedrus (Large Print)'
p1758
I1760
sS'Alex & Penny Ballooning over Italy'
p1759
I1761
sS'The Power of One: Daisy Bates and the Little Rock Nine'
p1760
I1762
sS"Auggie Wren's Christmas Story"
p1761
I1763
sS'Cratylus'
p1762
I1764
sS'Time for the Stars'
p1763
I1765
sS'Atlas Shrugged & The Fountainhead'
p1764
I1766
sS'Hatchet: A Guide for Using "Hatchet" in the Classroom'
p1765
I1768
sS'Beyond Silence and Denial'
p1766
I1769
sS'The Importance of What We Care about: Philosophical Essays'
p1767
I1770
sS'The Ayn Rand Lexicon: Objectivism from A to Z (Ayn Rand Library)'
p1768
I1771
sS'The Portable Chaucer'
p1769
I1772
sS'Aristophanes 2: Wasps/Lysistrata/Frogs/The Sexual Congress'
p1770
I1773
sS'Willem De Kooning: Reflections in the Studio'
p1771
I1774
sS"Sun Tzu's the Art of War Plus Warrior Marketing: Strategy for Market Positioning"
p1772
I1775
sS'Rumer Godden'
p1773
I1776
sS'Sex For Dummies'
p1774
I1777
sS'Short Epics'
p1775
I1778
sS'Singers, Heroes, and Gods in the Odyssey: Life in a Modern Matriarchy'
p1776
I1779
sS'Aristophanes 1: The Acharnians/Peace/Celebrating Ladies/Wealth'
p1777
I297
sS'Moby Dick (Great Illustrated Classics)'
p1778
I299
sS'Whipping Star'
p1779
I1782
sS"Essays on Ayn Rand's the Fountainhead"
p1780
I315
sS"Hamlet's Mill: An Essay Investigating  the Origins of Human Knowledge & Its Transmission Through Myth"
p1781
I1784
sS'The Black Mass of Brother Springer'
p1782
I1785
sS'Hard Rain (Code Red #16)'
p1783
I1786
sS'Otis Redding: Try a Little Tenderness'
p1784
I1787
sS'Obra Completa Narrativa'
p1785
I341
sS'Bridge to Terabithia'
p1786
I1789
sS'The Longest Journey (Bantam Classic)'
p1787
I1790
sS'The Language of Heroes'
p1788
I352
sS"Plato's Phaedrus: The Philosophy of Love"
p1789
I1553
sS'Naomi Klein y el fin de las marcas (Intelectuales)'
p1790
I1793
sS"Herman Melville's Moby-Dick: A Routledge Study Guide and Sourcebook"
p1791
I1794
sS'The Guitar Three-Chord Songbook: Play 50 Rock Hits with Only 3 Easy Chords'
p1792
I1795
sS'Trojan Women/Iphigenia Among the Taurians/Ion'
p1793
I1796
sS'How to Restore Your Motorcycle'
p1794
I1797
sS'The Bridge over the Drina'
p1795
I1798
sS'The Ambassadors'
p1796
I407
sS'Rhetoric and Reality in Plato\'s "Phaedrus"'
p1797
I259
sS'Praise of Folly'
p1798
I1801
sS'The Tipping Point: How Little Things Can Make a Big Difference'
p1799
I1802
sS"Cliffsnotes on Chaucer's the Canterbury Tales (CliffsNotes)"
p1800
I1433
sS'Boys of Summer'
p1801
I1804
sS'Freud'
p1802
I1663
sS'Guns, Germs and Steel: The Fates of Human Societies'
p1803
I1806
sS'Harry Potter and the Goblet of Fire (Harry Potter, #4)'
p1804
I1807
sS'Four Plays: Medea / Hippolytus / Heracles / Bacchae'
p1805
I1808
sS"Listening to the Cicadas: A Study of Plato's Phaedrus"
p1806
I1809
sS'Dreamer of Dune: The Biography of Frank Herbert'
p1807
I1810
sS'The Curious Incident of the Dog in the Night-Time'
p1808
I1811
sS'Minds, Brains and Science'
p1809
I1812
sS"Gentleman's GD.to Etiquette"
p1810
I1813
sS'Chuva Forte'
p1811
I1814
sS'Sweet Dreams: Philosophical Obstacles to a Science of Consciousness'
p1812
I1815
sS'Guitar Picture Chords in Color'
p1813
I522
sS'In a Sunburned Country'
p1814
I1817
sS'The Leadership Pipeline: How to Build the Leadership-Powered Company'
p1815
I1818
sS'Anthem'
p1816
I1819
sS'Collected Papers in Greek and Georgian Textual Criticism'
p1817
I1820
sS'City as Comedy'
p1818
I1821
sS'Don Quixote'
p1819
I255
sS'A Wrinkle in Time: A Reading Guide (Scholastic Bookfiles)'
p1820
I1823
sS'Pompeii: Public and Private Life'
p1821
I1824
sS"Green Shadows, White Whale: A Novel of Ray Bradbury's Adventures Making Moby Dick with John Huston in Ireland"
p1822
I1825
sS'The Illustrated Alchemist: A Fable about Following Your Dream'
p1823
I1826
sS'The Eleventh Hour: A Curious Mystery'
p1824
I1827
sS'Birds Without Wings - Unabridged'
p1825
I1828
sS'The Ultimate Guitar Chord Big Book: Over 100,000 Chords!'
p1826
I1829
sS'Theatre, a Way of Seeing: A Way of Seeing'
p1827
I1830
sS'Sun Tzu Was a Sissy: Conquer Your Enemies, Promote Your Friends, and Wage the Real Art of War'
p1828
I1831
sS'On Love: Lysis/Symposium/Phaedrus/Alcibiades/Selections from Republic & Laws'
p1829
I1832
sS'The Canterbury Tales in Modern Verse'
p1830
I1833
sS'The Mask of Comedy: Class, Gender, and Resistance'
p1831
I1834
sS'The Hours'
p1832
I1835
sS'The Modern Prince: Charles J. Haughey and the Quest for Power'
p1833
I1836
sS'Small Vices (Spenser, #24)'
p1834
I1837
sS'Secret Garden'
p1835
I1838
sS'Original Sin: Origins, Developments, Contemporary Meanings'
p1836
I680
sS'Drina Goes on Tour (Drina, #10)'
p1837
I1840
sS"A Wrinkle in Time by Madeleine L'Engle: Study Guide"
p1838
I1841
sS'Adams-Jefferson Letters'
p1839
I1842
sS'Complete Stories, 1892-1898'
p1840
I1843
sS'Benzin: Young Swiss Graphic Design'
p1841
I705
sS'Creative Sparks: An Index of 150+ Concepts, Images and Exercises to Ignite Your Design Ingenuity'
p1842
I1845
sS'Simple Handmade Storage: 23 Step-By-Step Weekend Projects'
p1843
I1846
sS'On, Off (Carmine Delmonico, #1)'
p1844
I1847
sS'Great Short Works of Herman Melville'
p1845
I1848
sS'Richest Man In Babylon For Today'
p1846
I1849
sS'The Fifth Mountain'
p1847
I1850
sS"A Don't Sweat the Small Stuff Treasury: A Special Selection for Mothers"
p1848
I1851
sS"Geoffrey Chaucer's The Pardoner's Tale"
p1849
I754
sS'Death of an Expert Witness (Adam Dalgliesh #6)'
p1850
I1853
sS'History in the Making: An Absorbing Look at How American History Has Changed in the Telling over the Last 200 Years'
p1851
I1854
sS"Stephen Hawking's Universe"
p1852
I1855
sS"The Hit Man's Dilemma: Or Business, Personal and Impersonal"
p1853
I1856
sS'Our Man in Havana'
p1854
I769
sS'Robinson Crusoe'
p1855
I781
sS'Women of Troy'
p1856
I1859
sS'Theocritus: Select Poems: Select Poems'
p1857
I1860
sS"The Art of War: Sun Tzu's Classis in Plain English with Sun Pin's: The Art of Warfare"
p1858
I1861
sS'The Mini Rough Guide to London'
p1859
I1871
sS'The Articulate Executive: Learn to Look, ACT, and Sound Like a Leader'
p1860
I1863
sS'Euripides: Helen, Phoenician Women, Orestes'
p1861
I1864
sS'Howards End'
p1862
I1865
sS'The Red Hot Cookbook: Create a Culinary Inferno with Flaming Good Recipes from Around the World'
p1863
I1866
sS'Tai Chi Chuan: Aplicaciones Marciales:  Estilo Yang Avanzado De Tai Chi Chuan'
p1864
I1867
sS'The Long Shadow (The Morland Dynasty, #6)'
p1865
I1868
sS'American Notes for General Circulation'
p1866
I1001
sS'American Government; Continuity and Change'
p1867
I1870
sS'Trump: The Best Real Estate Advice I Ever Received: 100 Top Experts Share Their Strategies'
p1868
I608
sS'Fields of Gold'
p1869
I882
sS'Aristophanes 1: Clouds/Wasps/Birds'
p1870
I1873
sS'The Wonder of Boys: What Parents, Mentors and Educators Can Do to Shape Boys into Exceptional Men'
p1871
I1874
sS"Don't Make Me Think: A Common Sense Approach to Web Usability"
p1872
I892
sS'The House of God'
p1873
I1876
sS'Open City 6: The Only Woman He Ever Left'
p1874
I1877
sS'The Fall of the Amazing Zalindas  (Sherlock Holmes and the Baker Street Irregulars #1)'
p1875
I1878
sS"A Don't Sweat the Small Stuff Treasury: A Special Collection for the Office"
p1876
I1879
sS"The Tragedy of Pudd'nhead Wilson/Those Extraordinary Twins"
p1877
I1880
sS'The Oedipus Plays of Sophocles: Oedipus the King; Oedipus at Colonus; Antigone'
p1878
I1881
sS"The River (Brian's Saga, #2)"
p1879
I1882
sS"Sophocles' Tragic World: Divinity, Nature, Society"
p1880
I1883
sS'The Whaleship Essex: The True Story of Moby Dick'
p1881
I1884
sS'Disney: The First 100 Years'
p1882
I1885
sS'Generation X: Tales for an Accelerated Culture'
p1883
I1886
sS"The Cod's Tale"
p1884
I1887
sS'Privileged Witness (Witness Series, #3)'
p1885
I1888
sS'Gap Creek'
p1886
I955
sS'Love & Transformation: An Ovid Reader'
p1887
I1890
sS'Cod: A Biography of the Fish that Changed the World'
p1888
I1891
sS'Public Places-Urban Spaces: The Dimensions of Urban Design'
p1889
I1892
sS'Seven Habits of Highly Effective People'
p1890
I973
sS'El Cuaderno De Noah'
p1891
I974
sS"Public Places: My Life in the Theater, with Peter O'Toole and Beyond"
p1892
I1895
sS'The Richest Man in Babylon: The Success Secrets of the Ancients'
p1893
I1896
sS'Rudy! An Investigative Biography Of Rudolph Giuliani'
p1894
I1897
sS'Children of Heracles. Hippolytus. Andromache. Hecuba'
p1895
I1898
sS'Moby Dick: Library Edition'
p1896
I1899
sS'The Three Theban Plays: Antigone / Oedipus the King / Oedipus at Colonus'
p1897
I1900
sS'A Storm Without Rain: A Novel in Time'
p1898
I1901
sS'Jazz Guitar Chord Solos'
p1899
I1902
sS'Snow Crash: The Official Strategy Guide'
p1900
I1903
sS'Parmenides/Philebus/Symposium/Phaedrus/Alcibiades 1-2/Hipparchus/Amatores (Platonis Opera, #2)'
p1901
I1904
sS"Death and the King's Horseman"
p1902
I1905
sS'The Curious Incident of the Dog In the Night-time'
p1903
I1906
sS'Complete Works of William Shakespeare'
p1904
I1718
sS"The Creative Myth and the Cosmic Hero: Text and Context in Ernest Becker's the Denial of Death"
p1905
I1907
sS"Don't Despair on Thursdays!: The Children's Grief-Management Book"
p1906
I1908
sS'The Simple Art of Murder'
p1907
I1909
sS'The Mouse and the Motorcycle (Read-Aloud Edition)'
p1908
I1910
sS"Liar's Poker: A Harry Garnish Mystery"
p1909
I1911
sS'Beyond the Red Notebook'
p1910
I1340
sS'The Power Broker: Robert Moses and the Fall of New York'
p1911
I1913
sS'Memorial del Convento'
p1912
I1914
sS'Enchanted April: Acting Edition'
p1913
I1915
sS'Gorgias/Timaeus'
p1914
I1916
sS'Of Mice and Men'
p1915
I1917
sS'The Long-Distance Relationship Survival Guide: Secrets and Strategies from Successful Couples Who Have Gone the Distance'
p1916
I1449
sS'Country Living Stylish Storage: Simple Ways to Contain Your Clutter'
p1917
I1135
sS'The Lord of the Rings: Weapons and Warfare'
p1918
I1919
sS'Euripides: Medea'
p1919
I1141
sS'Moby Dick: or The White Whale (Oxford Illustrated Classics)'
p1920
I1921
sS"Jane Austen's Letters"
p1921
I1922
sS'Walk Fast, Talk Loud and Smile: How to Succeed in Sales and Have Fun Doing It'
p1922
I1923
sS'Orient Express'
p1923
I1924
sS'Alcestis'
p1924
I1925
sS'Mandie and the Long Goodbye (Mandie Books, 30)'
p1925
I1699
sS"Betty Crocker's Picture Cookbook, Facsimile Edition"
p1926
I1926
sS'Fats That Heal, Fats That Kill'
p1927
I1927
sS"A Don't Sweat the Small Stuff Treasury: A Special Selection for Teachers"
p1928
I1928
sS'The Canterbury Tales'
p1929
I20
sS'Classical Period : Poetics of Drama (Greek Literature, Volume 3)'
p1930
I1930
sS'The Chemistry And Physics Of Intermetallic Materials (Special Topics In Inorganic Chemistry)'
p1931
I1613
sS'The Big Sleep'
p1932
I1932
sS'A Catholic Perspective on the Purpose Driven Life'
p1933
I1933
sS'Der Sturz von Hyperion'
p1934
I1934
sS'Doubting Thomas'
p1935
I1935
sS'What If the Zebras Lost Their Stripes?'
p1936
I2042
sS'The Quiet American'
p1937
I1937
sS'Warrior of the Light'
p1938
I1938
sS'Jazz Guitar Chord Workout'
p1939
I1939
sS'Scholar of Decay (Ravenloft, #14)'
p1940
I1940
sS'The Last Dance: Encountering Death and Dying'
p1941
I501
sS'Quiet Days in Clichy'
p1942
I2043
sS'Kindred Spirit: A Biography of L. M. Montgomery, Creator of Anne of Green Gables'
p1943
I1943
sS'Twelve Steps and Twelve Traditions'
p1944
I1248
sS'Avalanche'
p1945
I1945
sS'The Secret Garden'
p1946
I1946
sS'Protagoras/Philebus/Gorgias'
p1947
I1947
sS'New York Trilogy: New York Underground, Trapped, Love and Sex'
p1948
I1284
sS"Don't Panic: Douglas Adams & The Hitchhiker's Guide to the Galaxy"
p1949
I1949
sS'The Road to Dune (Dune Universe)'
p1950
I1950
sS'The Wish Giver: Three Tales of Coven Tree (Trophy Newbery)'
p1951
I1951
sS'The Gorgias of Plato'
p1952
I1952
sS'Madame Bovary'
p1953
I1953
sS'Dragonball Z: Extreme Glow-in-the-dark Sticker Activity'
p1954
I1954
sS'Ethnic Variations in Dying, Death and Grief: Diversity in Universality'
p1955
I1955
sS'The Bone Collector (Lincoln Rhyme, #1)'
p1956
I1956
sS'Girlfriend in a Coma'
p1957
I1957
sS'Bernie Mac'
p1958
I1339
sS'Perimenopause the Natural Way'
p1959
I1959
sS"Holy Cows and Hog Heaven: The Food Buyer's Guide to Farm Friendly Food"
p1960
I1027
sS"The Hitchhiker's Guide to the Galaxy: Quintessential Phase (Hitchhiker's Guide: Radio Play, #5)"
p1961
I1961
sS'My Life in Dog Years'
p1962
I1352
sS"The Secrets of Frank Herbert's Dune"
p1963
I1543
sS'Sophocles 1: Ajax/Women of Trachis/Electra/Philoctetes'
p1964
I1629
sS"Our Kind of People: Inside America's Black Upper Class"
p1965
I1965
sS'Jane Austen: The Complete Novels'
p1966
I1966
sS'The Winning Investment Habits of Warren Buffett & George Soros'
p1967
I1967
sS'Ballet Shoes for Anna'
p1968
I1968
sS'In an Uncertain World: Tough Choices from Wall Street to Washington'
p1969
I1969
sS'Angels and Demons in Art'
p1970
I1970
sS'Ready for Anything: 52 Productivity Principles for Getting Things Done'
p1971
I1971
sS"Plato's Erotic Dialogues: Symposium/Phaedrus (Ancient Greek Philosophy)"
p1972
I1972
sS'The Chap Manifesto: Revolutionary Etiquette for the Modern Gentleman'
p1973
I1418
sS'Daily Reflections For Highly Effective People : Living The 7 Habits Of Highly Successful People Every Day'
p1974
I1974
sS'The City of God'
p1975
I1975
sS'The Ravishing of Lol Stein'
p1976
I1976
sS'Harriet the Spy, Double Agent (Harriet the Spy Adventures)'
p1977
I1977
sS'Farewell, My Lovely'
p1978
I1439
sS'The Gandhi Quartet'
p1979
I1979
sS'Letterhead and Logo Design 9'
p1980
I1980
sS'La Caida de Hyperion'
p1981
I1981
sS'La Place de la Concorde Suisse'
p1982
I1941
sS'The Good Earth (House of Earth, #1)'
p1983
I1982
sS'The History of Graphic Design'
p1984
I1983
sS'How to Cook Everything: The Basics: Simple Recipes Anyone Can Cook'
p1985
I1984
sS'Fullmetal Alchemist, Vol. 3 (Fullmetal Alchemist, #3)'
p1986
I1985
sS'Teaching English Abroad'
p1987
I1986
sS"Phil Gordon's Little Green Book: Lessons and Teachings in No Limit Texas Hold'em"
p1988
I1987
sS'Henry Miller on Writing'
p1989
I1988
sS'Hyperion and Selected Poems'
p1990
I1531
sS"A Don't Sweat the Small Stuff Treasury: A Special Selection for Fathers"
p1991
I1990
sS'The Hyperion Omnibus: Hyperion / The Fall of Hyperion'
p1992
I1991
sS'Teaching with the Brain in Mind'
p1993
I1992
sS'Think and Grow Rich: Instant Motivator'
p1994
I1993
sS'First Love, Last Rites'
p1995
I1994
sS'The Birds and Other Plays'
p1996
I1995
sS'The Invention of Solitude: A Memoir'
p1997
I331
sS'Huck Finn and Tom Sawyer Among the Indians'
p1998
I1997
sS'Leadership and Self-Deception: Getting Out of the Box'
p1999
I1998
sS'The Effective Corrections Manager: Correctional Supervision for the Future'
p2000
I1999
sS'The Book of Illumination: Kitab al-Tanwir fi Isqat al-Tadbir'
p2001
I2000
sS'Growing Little Women: Capturing Teachable Moments with Your Daughter'
p2002
I2001
sS'John Adams'
p2003
I2002
sS'Ghostly Tales (Portraits of Little Women)'
p2004
I1641
sS'J.R.R. Tolkien 4-Book Boxed Set: The Hobbit and The Lord of the Rings'
p2005
I1649
sS'Eleanor Rigby'
p2006
I2005
sS'The Untouchable'
p2007
I2006
sS'A Walk to Remember'
p2008
I2007
sS'Thucydides Reader: Annotated Passages from Books I-VIII of the Histories'
p2009
I2008
sS'The Lord of the Rings- 3 volumes set (The Lord of the Rings, #1-3)'
p2010
I2009
sS'Writing'
p2011
I2010
sS'Aristophanes: An Author for the Stage'
p2012
I2011
sS'Lucretius on Death and Anxiety: Poetry and Philosophy in de Rerum Natura'
p2013
I2012
sS'Rails Cookbook: Recipes for Rapid Web Development with Ruby'
p2014
I2013
sS'Horace\'s "Carmen Saeculare": Ritual Magic and the Poet`s Art'
p2015
I2014
sS'The Mysteries of Sherlock Holmes (Illustrated Junior Library)'
p2016
I2015
sS'How to Paint Your Motorcycle'
p2017
I1713
sS'Daniel Defoe: Master of Fictions: His Life and Ideas'
p2018
I1744
sS'Personal Finance For Dummie$ For Canadians'
p2019
I2017
sS'How to Draw Dragonball'
p2020
I2018
sS'Cinnamon and Roses (Rose Trilogy, #1)'
p2021
I1780
sS'Kinds Of Minds: The Origins Of Consciousness (SCIENCE MASTERS)'
p2022
I2020
sS'The Wit and Wisdom of Mark Twain'
p2023
I2021
sS'Truth Decay: Defending Christianity Against the Challenges of Postmodernism'
p2024
I2022
sS'The Terror'
p2025
I2023
sS'The Interpreters'
p2026
I2024
sS'London is the Best City in America'
p2027
I2025
sS'American Government: Continuity and Change, Alternate Edition'
p2028
I2026
sS'Keys to Investing in Real Estate'
p2029
I2027
sS'Selected Poems of Herman Melville'
p2030
I2028
sS'On the Beaten Path: An Appalachian Pilgrimage'
p2031
I2029
sS'The Changeling'
p2032
I2030
sS'One Hundred Years of Solitude'
p2033
I2031
sS'The Witches of Worm'
p2034
I2032
sS"Gentleman's Guide To Professional Appearance"
p2035
I2065
sS'Collected Plays: Volume 1: A Dance of the Forests; The Swamp Dwellers; The Strong Breed; The Road; The Bacchae of Euripides: 001 (Includes a Dance of ... Breed/the Road/the Bacchae of Euripides)'
p2036
I1246
sS'Redburn'
p2037
I2035
sS'The Game: Penetrating the Secret Society of Pickup Artists'
p2038
I2036
sS'Tomcat in Love'
p2039
I2037
sS'Cambridge Wizard Student Guide The Curious Incident of the Dog in the Night Time (Cambridge Wizard English Student Guides)'
p2040
I2038
sS'The Iliad'
p2041
I2039
sS'The Virtue of Selfishness: A New Concept of Egoism'
p2042
I2040
sS'The Lost Boy (Dave Pelzer #2)'
p2043
I2041
sS'The Golden Tulip'
p2044
I1936
sS'A Modest Proposal (Literary Casebook Series)'
p2045
I1942
sS'Murder at The Washington Tribune (Capital Crimes, #21)'
p2046
I2044
sS'La Dama y El Unicornio'
p2047
I2045
sS'Cuentos de Eva Luna'
p2048
I2046
sS"Ender's Game (Ender's Saga, #1)"
p2049
I2047
sS"Today's Chicago Blues"
p2050
I2048
sS"Dionysiac Poetics and Euripides' -Bacchae-"
p2051
I2049
sS'Now Zen'
p2052
I2050
sS'Vintage Didion'
p2053
I2051
sS"Men: A User's Guide"
p2054
I2052
sS'In the Garden: Essays in Honor of Frances Hodgson Burnett'
p2055
I2053
sS'Hunters Of Dune (Dune Chronicles, #7)'
p2056
I2054
sS'Quicksilver (The Baroque Cycle, #1)'
p2057
I2055
sS'From Russia With Love (James Bond, #5)'
p2058
I2056
sS'Point Deception (Cape Perdido, #1)'
p2059
I2057
sS'Walk Gently This Good Earth'
p2060
I2058
sS'Homeric Questions'
p2061
I2059
sS"The Kids' Book about Death and Dying"
p2062
I2060
sS"Cliffs Notes on Stevenson's Treasure Island and Kidnapped"
p2063
I2061
sS'Euripides: Iphigenia at Aulis (Companions to Greek & Roman Tragedy)'
p2064
I2071
sS"Real Estate Riches (Rich Dad's Advisors (Audio)) [ABRIDGED] (Rich Dad's Advisors (Audio))"
p2065
I2063
sS'HTML, XHTML, and CSS (Visual Quickstart Guide)'
p2066
I2064
sS'Collected Stories, 1911-1937'
p2067
I2033
sS"Cleon, Knights, and Aristophanes' Politics"
p2068
I2066
sS'Microserfs'
p2069
I2067
sS'Vance Packard & American Social Criticism'
p2070
I2068
sS'Taxonomic Monograph  of the Genus Aglaia (Meliaceae)'
p2071
I2069
sS"Guns, Germs, and Steel (SparkNotes B&N Reader's Companion)"
p2072
I2070
sS'The Untouchables'
p2073
I2062
sS"The Leader's Handbook: Making Things Happen, Getting Things Done"
p2074
I2072
s.