(dp1
S'Holy Cow!'
p2
S'3.24'
p3
sS'Red Dog'
p4
S'3.76'
p5
sS'Nineveh and Its Remains, Volume 1'
p6
S'5.00'
p7
sS'Aristophanes and Athens: An Introduction to the Plays'
p8
S'3.91'
p9
sS'Hello, Lied the Agent: And Other Bullshit You Hear as a Hollywood TV Writer'
p10
S'3.38'
p11
sS'Life of Pi'
p12
S'3.88'
p13
sS'Head First HTML with CSS & XHTML'
p14
S'4.13'
p15
sS'Men Are from Mars, Women Are from Venus: Secrets of Passion/Audio Cassette'
p16
S'4.00'
p17
sS"An Artist's Way Of Seeing"
p18
S'4.31'
p19
sS'A Wrinkle in Time: LitPlan Teacher Pack'
p20
S'3.38'
p21
sS'City Eclogue'
p22
S'4.22'
p23
sS'Small Gardens: How to Get the Most Impact from the Least Space'
p24
S'3.67'
p25
sS'Sex in Middlesex: Popular Mores in a Massachusetts County, 1649-1699'
p26
S'3.62'
p27
sS"Breakfast at Tiffany's: A Short Novel and Three Stories"
p28
S'3.89'
p29
sS'The Bridge on the Drina'
p30
S'4.33'
p31
sS'The No-Salt, Lowest-Sodium Cookbook: Hundreds of Favorite Recipes Created to Combat Congestive Heart Failure and Dangerous Hypertension'
p32
S'3.77'
p33
sS'A People and a Nation: A History of the United States, Dolphin Edition - Complete'
p34
S'3.00'
p35
sS'A Wrinkle in Time: Student Packet'
p36
S'4.17'
p37
sS'Kahlil Gibran: His Life and World'
p38
S'4.18'
p39
sS"Madeleine L'Engle: Author of a Wrinkle in Time (People in Focus)"
p40
S'4.28'
p41
sS'Akin to Anne: Tales of Other Orphans'
p42
S'3.64'
p43
sS'Warren Buffett:: Master of the Market'
p44
S'3.71'
p45
sS'A Taste for Death (Adam Dalgliesh #7)'
p46
S'4.01'
p47
sS'The Advanced Guitar Case Chord Book: Compact Reference Library'
p48
S'3.00'
p49
sS'The Languages of Native North America'
p50
S'4.46'
p51
sS"I'm a Stranger Here Myself: Notes on Returning to America after Twenty Years Away"
p52
S'3.89'
p53
sS'The Essential Cook: Everything You Really Need to Know about Foods and Cooking Except the Recipes'
p54
S'4.45'
p55
sS'Clouds/Wasps/Peace'
p56
S'4.10'
p57
sS'Way of the Peaceful Warrior: A Book That Changes Lives'
p58
S'4.13'
p59
sS'From Java to Ruby'
p60
S'3.17'
p61
sS'Red Hot Chili Peppers'
p62
S'4.00'
p63
sS'The Book of Life: Ascension and the Divine World Order'
p64
S'4.65'
p65
sS'The Dosadi Experiment (ConSentiency Universe, #2)'
p66
S'3.79'
p67
sS'Peripheral (Post) Modernity: The Syncretist Aesthetics of Borges, Piglia, Kalokyris and Kyriakidis'
p68
S'0.00'
p69
sS'The Path to Buddha: A Tibetan Pilgrimage'
p70
S'4.08'
p71
sS'Transgender Emergence: Therapeutic Guidelines for Working with Gender-Variant People and Their Families'
p72
S'4.24'
p73
sS"Your Baby's First Year for Dummies"
p74
S'3.65'
p75
sS'Together Alone: Personal Relationships in Public Places'
p76
S'3.14'
p77
sS'Molly Hatchet - 5 of the Best'
p78
S'4.00'
p79
sS'Greek Bucolic Poets: Theocritus. Bion. Moschus'
p80
S'4.00'
p81
sS'The Oxford Shakespeare: The Complete Works'
p82
S'4.62'
p83
sS'The Fountainhead: An American Novel'
p84
S'3.00'
p85
sS'John Adams and the Spirit of Liberty'
p86
S'4.44'
p87
sS'Olympos (Ilium, #2)'
p88
S'3.93'
p89
sS'Memory of Fire (The World Gates, #1)'
p90
S'3.63'
p91
sS'Classics: A Discipline and Profession in Crisis?'
p92
S'2.00'
p93
sS"Not Your Mother's Slow Cooker Cookbook"
p94
S'3.78'
p95
sS'Pride and Prejudice'
p96
S'4.24'
p97
sS'Lovely in Her Bones (Elizabeth MacPherson, #2)'
p98
S'3.79'
p99
sS'The Three Ways of Getting Things Done: Hierarchy, Heterarchy and Responsible Autonomy in Organizations'
p100
S'4.20'
p101
sS'Introducing Mind & Brain'
p102
S'3.55'
p103
sS'Gorgias'
p104
S'3.90'
p105
sS'The Letters of J.R.R. Tolkien'
p106
S'4.15'
p107
sS"Moonraker's Bride"
p108
S'4.30'
p109
sS'Getting Things Done: The Art of Stress-Free Productivity'
p110
S'3.98'
p111
sS'The Art of War by Sun Tzu - Special Edition'
p112
S'3.95'
p113
sS'Wedding Wishes and Woes (The Story Girl #6)'
p114
S'4.17'
p115
sS'Art Invention House'
p116
S'3.62'
p117
sS'The Ghost Stories of Edith Wharton'
p118
S'3.88'
p119
sS'Meditation, Compassion & Lovingkindness: An Approach to Vipassana Practice'
p120
S'3.00'
p121
sS'Wire'
p122
S'5.00'
p123
sS'The Alchemist'
p124
S'3.81'
p125
sS'Off the Main Sequence: The Other Science Fiction Stories of Robert A. Heinlein'
p126
S'4.03'
p127
sS'No Room for Francie'
p128
S'4.00'
p129
sS'Oliver Twist'
p130
S'3.84'
p131
sS"The Facilitator's Book of Questions: Tools for Looking Together at Student and Teacher Work"
p132
S'3.96'
p133
sS'The Music of Chance'
p134
S'3.89'
p135
sS'Ever Wonder Why? and Other Controversial Essays'
p136
S'4.26'
p137
sS'Ovid\'s "Metamorphoses"'
p138
S'4.03'
p139
sS'Logo Design Workbook: A Hands-On Guide to Creating Logos'
p140
S'3.86'
p141
sS'The Hunters'
p142
S'3.47'
p143
sS'Ziggy the Zebra'
p144
S'3.67'
p145
sS'The World is Flat'
p146
S'3.66'
p147
sS"Chaucer's Canterbury Tales (Selected): An Interlinear Translation"
p148
S'3.83'
p149
sS'Batman: Holy Terror'
p150
S'3.49'
p151
sS'The Language of New Media'
p152
S'3.79'
p153
sS"The Dolls' House"
p154
S'3.98'
p155
sS'Practice! Practice!: A Latin Via Ovid Workbook'
p156
S'4.00'
p157
sS'Caesar (Masters of Rome, #5)'
p158
S'4.35'
p159
sS'Ulysses: The Amazing Adventures of'
p160
S'4.10'
p161
sS'Salmon of Doubt: Hitchhiking the Galaxy One Last Time'
p162
S'3.92'
p163
sS'Reading Families'
p164
S'4.00'
p165
sS'Powers Unlimited One: A Sourcebook for Heroes Unlimited (Heroes Unlimited, #1)'
p166
S'4.30'
p167
sS'Skeptic in the House of God'
p168
S'3.86'
p169
sS'The Automatic Millionaire Workbook: A Personalized Plan to Live and Finish Rich. . . Automatically'
p170
S'3.68'
p171
sS'Three Nights in August: Strategy, Heartbreak, and Joy Inside the Mind of a Manager'
p172
S'3.86'
p173
sS'First Comes Love: All About the Birds and the Bees--and Alligators, Possums, and People, Too'
p174
S'3.77'
p175
sS'How to Meet Beautiful Women'
p176
S'5.00'
p177
sS"The Diamond Age: or, A Young Lady's Illustrated Primer"
p178
S'4.19'
p179
sS'Tom Hunter: Living in Hell and Other Stories'
p180
S'3.55'
p181
sS'Money to Burn'
p182
S'3.70'
p183
sS'Guitar Chord Guru: The Chord Book - Your Guide for Success!'
p184
S'4.11'
p185
sS'The Zebra Wall'
p186
S'3.45'
p187
sS'The Language of New Media Design: Theory and Practice'
p188
S'3.50'
p189
sS'Aeschylus: Seven Plays (Complete Greek Tragedies, #1)'
p190
S'4.24'
p191
sS'A Tomb for Anatole: Poetry'
p192
S'4.47'
p193
sS'The Five Love Languages'
p194
S'4.22'
p195
sS'The Bacchae of Euripides'
p196
S'3.85'
p197
sS'An Iliad'
p198
S'3.60'
p199
sS'The Second John McPhee Reader (John McPhee Reader, #2)'
p200
S'4.34'
p201
sS'Lance Armstrong: A Biography'
p202
S'3.45'
p203
sS'The Ecclesiazusae (or Women in Council)'
p204
S'3.76'
p205
sS'On Bullshit'
p206
S'3.54'
p207
sS"The Compleat Gentleman: The Modern Man's Guide to Chivalry"
p208
S'3.53'
p209
sS'Comoediae 1: Acharenses/Equites/Nubes/Vespae/Pax/Aves'
p210
S'4.33'
p211
sS'Gabriel Garcia Marquez'
p212
S'3.78'
p213
sS'Three Plays: The Wasps / The Poet and the Women / The Frogs'
p214
S'3.95'
p215
sS'Dragonball Z: How To Draw Ii'
p216
S'4.28'
p217
sS'Simply Sicilian: Family Recipes'
p218
S'0.00'
p219
sS'Historia del cerco de Lisboa'
p220
S'3.80'
p221
sS'Into the Wild'
p222
S'3.94'
p223
sS'Leadership: Theory and Practice'
p224
S'3.77'
p225
sS'The Purpose-Driven Life'
p226
S'3.89'
p227
sS'Agile Web Development with Rails: A Pragmatic Guide'
p228
S'3.90'
p229
sS'120 Studies for Right Hand Development'
p230
S'4.43'
p231
sS'The Tenants'
p232
S'3.69'
p233
sS'Drina Dances in Madeira (Drina, #8)'
p234
S'4.04'
p235
sS'Blessing the Bridge: What Animals Teach Us About Death, Dying, and Beyond'
p236
S'4.26'
p237
sS'Hunting the Hunter (On the Run, #6)'
p238
S'4.21'
p239
sS'Life Is a Road, the Soul Is a Motorcycle'
p240
S'3.69'
p241
sS'A Tear and a Smile'
p242
S'4.05'
p243
sS'The Judge (Paul Madriani, #4)'
p244
S'4.03'
p245
sS'The Politically Incorrect Guide to American History'
p246
S'4.02'
p247
sS'The Salmon of Doubt: Hitchhiking the Galaxy One Last Time'
p248
S'3.92'
p249
sS'To Kill a Mockingbird'
p250
S'4.25'
p251
sS'Out to Eat London 2001 (Lonely Planet)'
p252
S'0.00'
p253
sS"101 Reasons to Own the World's Greatest Investment: Warren Buffett's Berkshire Hathaway"
p254
S'3.52'
p255
sS'Ovid: The Art of Love and Other Poems (Loeb Classical Library No. 232)'
p256
S'4.01'
p257
sS'Birth Marks: The Tragedy of Primogeniture in Pierre Corneille, Thomas Corneille, and Jean Racine'
p258
S'4.00'
p259
sS'Power and Struggle'
p260
S'4.23'
p261
sS'Elektra'
p262
S'3.93'
p263
sS'Nickel and Dimed: On (Not) Getting By in America'
p264
S'3.60'
p265
sS'Grand Valley Dani: Peaceful Warriors'
p266
S'3.28'
p267
sS'Beating the Odds'
p268
S'3.50'
p269
sS'The Power of One Christlike Life'
p270
S'4.23'
p271
sS'Harry Potter Schoolbooks Box Set: Two Classic Books from the Library of Hogwarts School of Witchcraft and Wizardry'
p272
S'4.40'
p273
sS"Pindar's Mythmaking: The Fourth Pythian Ode"
p274
S'4.33'
p275
sS'Cockfighter'
p276
S'4.09'
p277
sS"Drina's Dancing Year (Drina, #2)"
p278
S'4.07'
p279
sS'The Fables of Phaedrus'
p280
S'3.46'
p281
sS'Sideswipe'
p282
S'4.04'
p283
sS'The Egypt Game (Game, #1)'
p284
S'3.81'
p285
sS'The Long Goodbye. Based on the Novel by Raymond Chandler'
p286
S'4.23'
p287
sS'Helen'
p288
S'3.65'
p289
sS"God's Grace"
p290
S'3.57'
p291
sS'Four Complete Novels'
p292
S'4.02'
p293
sS'The Power of a City at Prayer: What Happens When Churches Unite'
p294
S'4.00'
p295
sS'Tristia. Ex Ponto'
p296
S'4.11'
p297
sS'Agamemnon (Oresteia, #1)'
p298
S'3.82'
p299
sS'Histories of Sexuality: Antiquity to Sexual Revolution'
p300
S'3.60'
p301
sS'Nursing Diagnosis Reference Manual'
p302
S'4.00'
p303
sS'A Lonely Resurrection (John Rain, #2)'
p304
S'4.09'
p305
sS'Insights on Death & Dying'
p306
S'2.67'
p307
sS'Great Expectations: Authoritative Text, Backgrounds, Contexts, Criticism (Critical Editions)'
p308
S'3.74'
p309
sS'Deception Point'
p310
S'3.66'
p311
sS'Economic Literacy: Basic Economics with an Attitude'
p312
S'3.43'
p313
sS'The Graham Greene Film Reader'
p314
S'4.21'
p315
sS'Competing for Customers and Capital'
p316
S'2.00'
p317
sS'World History in Brief: Major Patterns of Change and Continuity, Volume II: Since 1450'
p318
S'3.64'
p319
sS"Bryson's Dictionary of Troublesome Words: A Writer's Guide to Getting It Right"
p320
S'3.86'
p321
sS'Sand and Foam'
p322
S'4.09'
p323
sS'Changeling (Changeling, #1)'
p324
S'3.59'
p325
sS'If You Were There in 1776'
p326
S'3.76'
p327
sS'Stover at Yale'
p328
S'3.72'
p329
sS'The Syriac Church and Fathers'
p330
S'3.67'
p331
sS'Practical Subversion'
p332
S'3.71'
p333
sS"Fanaroff and Martin's Neonatal-Perinatal Medicine: Diseases of the Fetus and Infant (Expert Consult - Online and Print) (2-Volume Set)"
p334
S'5.00'
p335
sS'The Unfortunate Tobacconist & Other Mysteries (Sherlock Holmes 1-6)'
p336
S'3.50'
p337
sS'Daniel Deronda Notebooks'
p338
S'2.00'
p339
sS'The World Is Flat: A Brief History Of The Twenty-First Century'
p340
S'3.66'
p341
sS'Ballet Shoes: A Story of Three Children on the Stage (Shoes, #1)'
p342
S'4.06'
p343
sS'The Complete Plays'
p344
S'4.25'
p345
sS"The Color of Love: An Artist's Book of Poetry and Passion"
p346
S'4.00'
p347
sS'Aleppo Tales'
p348
S'4.33'
p349
sS'Molokai (Pacific Classics, No. 4) (Pacific Classics, # 4)'
p350
S'4.25'
p351
sS'Confesiones de un chef = Kitchen Confidential (Punto de Lectura) (Spanish Edition)'
p352
S'4.00'
p353
sS'City of Glass (The New York Trilogy, #1)'
p354
S'3.81'
p355
sS'The Battles of Dune'
p356
S'4.14'
p357
sS"A People's History of the United States"
p358
S'4.07'
p359
sS'Letters of Ayn Rand'
p360
S'3.94'
p361
sS'A Grammar of the Icelandic or Old Norse Tongue'
p362
S'3.00'
p363
sS'Rudy Giuliani: Emperor of the City'
p364
S'3.50'
p365
sS"Dr. Pitcairn's Complete Guide to Natural Health for Dogs & Cats"
p366
S'4.17'
p367
sS'The Art of Love'
p368
S'3.87'
p369
sS'Church is Stranger Than Fiction'
p370
S'3.00'
p371
sS'Sexus (The Rosy Crucifixion, #1)'
p372
S'4.05'
p373
sS'The Racketty-Packetty House'
p374
S'3.98'
p375
sS'Day by Day with Saint Augustine'
p376
S'4.56'
p377
sS'Aristophanes'
p378
S'3.40'
p379
sS'A Million Little Pieces of Feces'
p380
S'3.51'
p381
sS'The Song of Troy'
p382
S'3.99'
p383
sS'Jazz Guitar Chord System'
p384
S'5.00'
p385
sS"Meg's Dearest Wish (Madame Alexander Little Women Journals)"
p386
S'3.76'
p387
sS'Amazons: An Intimate Memoir by the First Woman Ever to Play in the National Hockey League'
p388
S'3.61'
p389
sS'Whitethorn'
p390
S'4.02'
p391
sS'True Believer (Jeremy Marsh & Lexie Darnell, #1)'
p392
S'3.80'
p393
sS'Further Adventures of Huck Finn'
p394
S'3.85'
p395
sS'Genres in Dialogue: Plato and the Construct of Philosophy'
p396
S'4.50'
p397
sS'The Nonsense Verse Of Edward Lear'
p398
S'3.85'
p399
sS'Harry Potter Paperback Boxed Set, Books 1-5 (Harry Potter, #1-5)'
p400
S'4.77'
p401
sS'Hamlet: An Authoritative Text, Intellectual Backgrounds, Extracts from the Sources, Essays in Criticism (Norton Critical Edition)'
p402
S'4.00'
p403
sS"Sophocles' Antigone"
p404
S'3.60'
p405
sS'History of the Peloponnesian War: Bk. 1-2 (Loeb Classical Library)'
p406
S'4.17'
p407
sS'Lost Horizon'
p408
S'3.90'
p409
sS'The Modern Prince and Other Writings'
p410
S'3.91'
p411
sS'The Long Italian Goodbye'
p412
S'3.00'
p413
sS'Splish Splash!: A Book about Rain'
p414
S'3.39'
p415
sS'1000 Record Covers'
p416
S'3.77'
p417
sS"Louisa May Alcott's Christmas Treasury"
p418
S'3.93'
p419
sS'Bleach, Tome 1: The Death and the Strawberry'
p420
S'4.21'
p421
sS"George Eliot and Judaism: An Attempt to Appreciate 'Daniel Deronda'"
p422
S'3.00'
p423
sS'Athena (The Freddie Montgomery Trilogy, #3)'
p424
S'3.65'
p425
sS'Body for Life for Women: 12 Weeks to a Firm, Fit, Fabulous Body at Any Age'
p426
S'3.58'
p427
sS'Idylls'
p428
S'3.77'
p429
sS'Mapping the Big Picture: Integrating Curriculum & Assessment K-12'
p430
S'3.47'
p431
sS'Basic Economics'
p432
S'3.35'
p433
sS'The Forerunner: His Parables and Poems'
p434
S'3.76'
p435
sS'Collected Travel Writings: The Continent'
p436
S'3.70'
p437
sS'Guide to Rock Art of the Utah Region: Sites with Public Access'
p438
S'3.90'
p439
sS"Warren Buffett Speaks: Wit and Wisdom from the World's Greatest Investor"
p440
S'3.87'
p441
sS'Power of One'
p442
S'4.34'
p443
sS'Getting Results with Curriculum Mapping'
p444
S'3.10'
p445
sS'The Pilgrimage: A Contemporary Quest for Ancient Wisdom'
p446
S'3.64'
p447
sS'By the River Piedra I Sat Down and Wept'
p448
S'3.57'
p449
sS"The Forewarned Investor: Don't Get Fooled Again by Corporate Fraud"
p450
S'3.00'
p451
sS"The Phoenician Solar Theology: An Investigation Into the Phoenician Opinion of the Sun Found in Julian's Hymn to King Helios"
p452
S'3.00'
p453
sS"Phil Gordon's Poker Box Set: Phil Gordon's Little Black Book, Phil Gordon's Little Green Book, Phil Gordon's Little Blue Book"
p454
S'4.13'
p455
sS'The Salmon of Doubt'
p456
S'3.92'
p457
sS'Thomas Cole'
p458
S'4.36'
p459
sS'Intertextuality and the Reading of Roman Poetry'
p460
S'3.80'
p461
sS"Anne's World, Maud's World: The Sacred Sites of L.M. Montgomery"
p462
S'3.89'
p463
sS'Rudolph Giuliani'
p464
S'5.00'
p465
sS'The Broker'
p466
S'3.77'
p467
sS'Moby Dick: Or, the White Whale (Oxford Illustrated Classics Series)'
p468
S'3.66'
p469
sS'The Reasons of Love'
p470
S'3.64'
p471
sS'Moon Palace'
p472
S'3.99'
p473
sS'Naked Pictures of Famous People'
p474
S'3.58'
p475
sS'The Locked Room (The New York Trilogy, #3)'
p476
S'3.90'
p477
sS'Alex & Penny in Egypt'
p478
S'0.00'
p479
sS'The Basic Principles of Marketing Warfare'
p480
S'4.00'
p481
sS'King of the Vagabonds (The Baroque Cycle, Vol. 1, Book 2)'
p482
S'4.15'
p483
sS"MAXNotes Literature Guides: Harper Lee's To Kill a Mockingbird"
p484
S'4.00'
p485
sS'Great Expectations'
p486
S'3.74'
p487
sS"Thucydides Book I: A Students' Grammatical Commentary"
p488
S'3.00'
p489
sS'Gates of Fire: An Epic Novel of the Battle of Thermopylae'
p490
S'4.40'
p491
sS'The Enchiridion on Faith Hope and Love (Augustine Series 1)'
p492
S'3.99'
p493
sS'How to Think Like Benjamin Graham and Invest Like Warren Buffett'
p494
S'3.56'
p495
sS'The Gulf War Did Not Take Place'
p496
S'3.61'
p497
sS'Jack Kerouac on the Road'
p498
S'3.64'
p499
sS'Euripides: Bacchae (Duckworth Companions to Greek & Roman Tragedy) (Duckworth Companions to Greek & Roman Tragedy)'
p500
S'3.80'
p501
sS'Zodiac'
p502
S'3.70'
p503
sS'Revolutionary Characters: What Made the Founders Different'
p504
S'3.96'
p505
sS'Lacrimal Gland, Tear Film, and Dry Eye Syndromes: Basic Science and Clinical Relevance'
p506
S'0.00'
p507
sS'The Divine Hours (Volume Two): Prayers for Autumn and Wintertime: A Manual for Prayer'
p508
S'4.34'
p509
sS'The Rise And Fall Of The Third Chimpanzee'
p510
S'4.04'
p511
sS'Ovid IV: Metamorphoses: Volume 2, Books IX-XV (Loeb Classical Library #43)'
p512
S'4.62'
p513
sS'Personal Finance for Canadians for Dummies'
p514
S'3.79'
p515
sS'J.K.Rowling'
p516
S'3.75'
p517
sS'A Tale of Two Cities (SparkNotes Literature Guide)'
p518
S'3.89'
p519
sS'The Stories of Eva Luna'
p520
S'3.95'
p521
sS'Chicago Blues: Portraits and Stories'
p522
S'3.00'
p523
sS'Arts with the Brain in Mind'
p524
S'4.00'
p525
sS'The First Man in Rome (Masters of Rome, #1)'
p526
S'4.08'
p527
sS'Applied Economics: Thinking Beyond Stage One'
p528
S'4.15'
p529
sS'Theban Plays'
p530
S'3.96'
p531
sS'Open City #9: Bewitched'
p532
S'4.00'
p533
sS'A Day in the Life of a Mayor: Featuring New York City Mayor Rudy Giuliani'
p534
S'0.00'
p535
sS'Baby Minds: Brain-Building Games Your Baby Will Love'
p536
S'3.63'
p537
sS'Aeschylus: The Oresteia (A Student Guide: Landmarks of World Literature)'
p538
S'3.90'
p539
sS'Original Sin: A Biblical Theology of the Hebrew Bible'
p540
S'3.72'
p541
sS'Motorcycle Basics Techbook'
p542
S'3.83'
p543
sS'Treasure Island'
p544
S'3.82'
p545
sS'Guns, Germs, and Steel: The Fates of Human Societies'
p546
S'3.99'
p547
sS'The Good Eye'
p548
S'0.00'
p549
sS'In the Name of Jesus: Reflections on Christian Leadership'
p550
S'4.33'
p551
sS'The Oxford Illustrated Jane Austen: 6-Volume Set'
p552
S'4.79'
p553
sS'The Confessions of St. Augustine'
p554
S'3.88'
p555
sS'The Real Warren Buffett: Managing Capital, Leading People'
p556
S'3.92'
p557
sS'Drina Dances in Italy (Drina, #4)'
p558
S'4.09'
p559
sS'Tales from Ovid'
p560
S'4.21'
p561
sS'Endymion (Hyperion Cantos #3)'
p562
S'4.14'
p563
sS"The Clan of the Cave Bear (Earth's Children, #1)"
p564
S'4.01'
p565
sS'Seven-Year Seduction'
p566
S'3.57'
p567
sS'Trump: The Way to the Top: The Best Business Advice I Ever Received'
p568
S'3.43'
p569
sS'The Last Days of Pompeii'
p570
S'3.60'
p571
sS'Jack: A Life Like No Other'
p572
S'3.83'
p573
sS"Searching for Lost City: On the Trail of America's Native Languages"
p574
S'3.86'
p575
sS"The Languages of Tolkien's Middle-Earth"
p576
S'3.97'
p577
sS'Sideswipe: A Hoke Moseley Novel'
p578
S'4.04'
p579
sS'Live Strong: Inspirational Stories from Cancer Survivors-from Diagnosis to Treatment and Beyond'
p580
S'3.97'
p581
sS'The Oresteia: Agamemnon/The Libation Bearers/The Eumenides'
p582
S'3.99'
p583
sS'The Selected Journals Of L.M. Montgomery, Vol. 5: 1935-1942'
p584
S'4.26'
p585
sS'Minds, Brains, and Learning: Understanding the Psychological and Educational Relevance of Neuroscientific Research'
p586
S'4.25'
p587
sS'Five Love Languages Journal: How To Express Heartfelt Commitment To Your Mate'
p588
S'4.22'
p589
sS'Wrinkles in Time'
p590
S'3.93'
p591
sS'Men are From Mars, Women are From Venus Low Price CD'
p592
S'3.51'
p593
sS"On the Watershed: The Natural World of New York's Catskill Mountain Region (Bright Hill Press Word Thursdays Anthology Series) (Bright Hill Press Word Thursdays Anthology Series.)"
p594
S'0.00'
p595
sS'The Bacchae Euripides the Frogs Aristophanes'
p596
S'3.57'
p597
sS'Collapse: How Societies Choose to Fail or Succeed'
p598
S'3.92'
p599
sS"Edith Wharton : Novellas and Other Writings : Madame De Treymes / Ethan Frome / Summer / Old New York / The Mother's Recompense / A Backward Glance"
p600
S'4.18'
p601
sS"Seeing What's Next: Using the Theories of Innovation to Predict Industry Change"
p602
S'3.90'
p603
sS'Temptations'
p604
S'4.09'
p605
sS'The Rough Guide to Walks in London and Southeast England'
p606
S'4.00'
p607
sS"Basic Economics: A Citizen's Guide to the Economy"
p608
S'4.28'
p609
sS"The Hit Man: One Man's Strategy for Growth, Change, and Profit"
p610
S'3.00'
p611
sS'Cold Counsel: Women in Old Norse Literature and Myth (Hardcover)'
p612
S'3.71'
p613
sS'Natural Hormone Replacement: The Safe and Natural Menopause Treaatment Alternative...'
p614
S'4.00'
p615
sS'Damn Right!: Behind the Scenes with Berkshire Hathaway Billionaire Charlie Munger'
p616
S'4.11'
p617
sS'Empire 2.0: A Modest Proposal for a United States of the West (Terra Nova)'
p618
S'4.75'
p619
sS'Sorting Out Your Finances for Dummies'
p620
S'2.62'
p621
sS'Silver Lies (Silver Rush, #1)'
p622
S'3.65'
p623
sS'The Complete Sailor: Learning the Art of Sailing'
p624
S'4.26'
p625
sS'Trump University Real Estate 101: Building Wealth with Real Estate Investments'
p626
S'3.58'
p627
sS'Monkey Business'
p628
S'4.20'
p629
sS"eBay PowerSeller Secrets: Insider Tips from eBay's Most Successful Sellers"
p630
S'3.55'
p631
sS"The America's Test Kitchen Family Cookbook"
p632
S'4.31'
p633
sS'Lincoln at Gettysburg: The Words That Remade America'
p634
S'4.13'
p635
sS'Ambiguous Images: Gender and Rock Art'
p636
S'4.00'
p637
sS'The Physics of Star Trek'
p638
S'3.82'
p639
sS'When Johnny Came Sliding Home: The Post-Civil War Baseball Boom, 1865-1870'
p640
S'4.67'
p641
sS'Fast Food Nation: What the All-American Meal Is Doing to the World'
p642
S'3.73'
p643
sS'Harry Potter and the Chamber of Secrets (Harry Potter, #2)'
p644
S'4.37'
p645
sS'A Million Little Pieces'
p646
S'3.62'
p647
sS'Buddhism: A New Approach'
p648
S'2.00'
p649
sS"Tyler Florence's Real Kitchen: An Indespensible Guide for Anybody Who Likes to Cook"
p650
S'4.05'
p651
sS'The Giver (The Giver, #1)'
p652
S'4.12'
p653
sS"To Kill a Mockingbird (Barron's Book Notes)"
p654
S'4.10'
p655
sS'Chess for Zebras'
p656
S'4.37'
p657
sS'Mientras Nieva Sobre Los Cedros/Snow Falling on Cedars (Spanish Edition)'
p658
S'3.79'
p659
sS'New Junior Cookbook (Better Homes & Gardens Test Kitchen)'
p660
S'3.89'
p661
sS'In Spite of Innocence'
p662
S'4.30'
p663
sS"Freedom's Shadow"
p664
S'3.64'
p665
sS"Huck Finn/Pudd'nhead Wilson/No 44 Mysterious Stranger other Writings"
p666
S'4.00'
p667
sS'Sophocles I: Oedipus The King, Oedipus at Colonus, Antigone (The Complete Greek Tragedies, #8)'
p668
S'3.96'
p669
sS'The Rock Art of Texas Indians'
p670
S'4.11'
p671
sS'Bringing Up Boys'
p672
S'3.93'
p673
sS"Aristophanes' Old-And-New Comedy: Volume I: Six Essays in Perspective"
p674
S'5.00'
p675
sS'Night'
p676
S'4.29'
p677
sS'2012: The Return of Quetzalcoatl'
p678
S'3.41'
p679
sS"A Don't Sweat the Small Stuff Treasury: A Special Collection for Newlyweds"
p680
S'4.00'
p681
sS'Geisha of Gion'
p682
S'3.92'
p683
sS'Tea with Jane Austen'
p684
S'3.89'
p685
sS"Dubin's Lives"
p686
S'3.73'
p687
sS'Falconry  Hawking'
p688
S'4.43'
p689
sS'Wonderful World of Collecting Perfume Bottles: Identification & Value Guide'
p690
S'3.88'
p691
sS'Fullmetal Alchemist, Vol. 1 (Fullmetal Alchemist, #1)'
p692
S'4.49'
p693
sS"The Beginner's Guide to Real Estate Investing"
p694
S'3.68'
p695
sS'Voices from Colonial America: Delaware 1638-1776'
p696
S'0.00'
p697
sS'Designing for Interaction: Creating Smart Applications and Clever Devices'
p698
S'3.90'
p699
sS"Teacher of Holiness: The Holy Spirit in Origen's Commentary on the Epistle to the Romans"
p700
S'0.00'
p701
sS'The Essential Guide to Motorcycle Maintenance'
p702
S'3.88'
p703
sS"J.K. Rowling's Harry Potter Novels: A Reader's Guide"
p704
S'3.58'
p705
sS'True Tales of American Life'
p706
S'3.86'
p707
sS'Brokeback Mountain: Story to Screenplay'
p708
S'4.10'
p709
sS'Springboard 1'
p710
S'0.00'
p711
sS'How to Make Anyone Fall in Love with You'
p712
S'3.62'
p713
sS'Euripides: Trojan Women'
p714
S'4.00'
p715
sS"Sex Lover's Book of Lists"
p716
S'4.00'
p717
sS'Luther and Erasmus: Free Will and Salvation (Library of Christian Classics)'
p718
S'3.79'
p719
sS'The Vision of the Anointed: Self-Congratulation as a Basis for Social Policy'
p720
S'4.31'
p721
sS"A House Like a Lotus (O'Keefe Family, #3)"
p722
S'3.78'
p723
sS'Electronic Structure: Basic Theory and Practical Methods'
p724
S'4.56'
p725
sS"Untouchables: My Family's Triumphant Journey Out of the Caste System in Modern India"
p726
S'3.78'
p727
sS"The Ultimate Hitchhiker's Guide to the Galaxy (Hitchhiker's Guide to the Galaxy #1-5)"
p728
S'4.37'
p729
sS'V.'
p730
S'3.97'
p731
sS'A Brief History of the Western World (with CD-ROM and InfoTrac)'
p732
S'3.73'
p733
sS'Politics of Subversion'
p734
S'3.33'
p735
sS"Captain Corelli's Mandolin"
p736
S'3.94'
p737
sS'Notes from a Small Island'
p738
S'3.91'
p739
sS'Illuminations: Essays and Reflections'
p740
S'4.30'
p741
sS'Cucina Fresca: Italian Food, Simply Prepared'
p742
S'4.21'
p743
sS'Rough Guide Directions: London'
p744
S'3.75'
p745
sS'Scholastic Bookfiles: Bridge To Terabithia By Katherine Paterson'
p746
S'4.33'
p747
sS'Aiding Democracy Abroad: The Learning Curve'
p748
S'3.50'
p749
sS'Tennis Shoes'
p750
S'3.72'
p751
sS'Snow Falling On Cedars'
p752
S'3.79'
p753
sS'Leaps of Faith: Science, Miracles & the Search for Supernatural Consolation'
p754
S'3.89'
p755
sS'Salmon Doubts'
p756
S'3.27'
p757
sS'The History of Sexuality, Volume 2: The Use of Pleasure'
p758
S'4.08'
p759
sS'Protagoras and Logos: A Study in Greek Philosophy and Rhetoric'
p760
S'3.92'
p761
sS'The History (Great Minds)'
p762
S'3.96'
p763
sS"Corporate Vices: What's Gone Wrong with Business?"
p764
S'2.50'
p765
sS'Three Comedies: The Birds/The Clouds/The Wasps'
p766
S'3.75'
p767
sS'Rooms with a View: Two Decades of Outstanding American Interior Design from Kips Bay Decorator Show Houses'
p768
S'4.50'
p769
sS'God Emperor of Dune (Dune Chronicles, #4)'
p770
S'3.81'
p771
sS'Armageddon Averted: The Soviet Collapse, 1970-2000'
p772
S'3.70'
p773
sS'Public Enemies (On The Run, #5)'
p774
S'4.18'
p775
sS'The Secret Garden: Dawn to Dusk in the Astonishing Hidden World of the Garden'
p776
S'4.11'
p777
sS'Phaedrus'
p778
S'3.91'
p779
sS'The History of Love'
p780
S'3.91'
p781
sS'Great Expectations (MAXNotes Literature Guides)'
p782
S'3.00'
p783
sS'Read My Lips: Sexual Subversion and the End of Gender'
p784
S'3.91'
p785
sS'Escape from Fire Mountain'
p786
S'3.71'
p787
sS'Cirque Du Soleil: The Spark: Igniting the Creative Fire That Lives Within Us All'
p788
S'3.76'
p789
sS"How to Ride a Motorcycle: A Rider's Guide to Strategy, Safety, and Skill Development"
p790
S'3.55'
p791
sS'The Sun Also Rises: A Novel of the Twenties'
p792
S'3.95'
p793
sS'Results That Matter: Improving Communities by Engaging Citizens, Measuring Performance, and Getting Things Done'
p794
S'4.00'
p795
sS'What Maisie Knew'
p796
S'3.43'
p797
sS'Oedipus the King (Enriched Classics)'
p798
S'3.67'
p799
sS'Online Investing Hacks: 100 Industrial-Strength Tips & Tools'
p800
S'3.08'
p801
sS'Against the Wind'
p802
S'3.64'
p803
sS'The Art of Structural Design: A Swiss Legacy'
p804
S'4.00'
p805
sS'Assembly of Women (Literary Classics)'
p806
S'3.76'
p807
sS'Hooking Up'
p808
S'3.30'
p809
sS'LOGO Lounge: 2,000 International Identities by Leading Designers'
p810
S'3.98'
p811
sS'1776'
p812
S'4.06'
p813
sS'A Short History of Decay'
p814
S'4.29'
p815
sS'Sailing from Byzantium: How a Lost Empire Shaped the World'
p816
S'3.85'
p817
sS'The Rough Guide to London'
p818
S'3.93'
p819
sS'Martin Chuzzlewit'
p820
S'3.82'
p821
sS"The Biggest Loser Cookbook: More Than 125 Healthy, Delicious Recipes Adapted from NBC's Hit Show"
p822
S'3.51'
p823
sS'Is Your World Flat?: Experiencing Emotional Awareness in an Upwards-Moving Cycle'
p824
S'0.00'
p825
sS'The John McPhee Reader (John McPhee Reader, #1)'
p826
S'4.43'
p827
sS"Aftifices of Eternity: Horace's Fourth Book of Odes"
p828
S'4.67'
p829
sS'Her Pilgrim Soul'
p830
S'4.12'
p831
sS"Broker to Broker: Management Lessons from America's Most Successful Real Estate Companies"
p832
S'3.43'
p833
sS'Angelfish'
p834
S'0.00'
p835
sS'A Conflict Of Visions: Ideological Origins of Political Struggles'
p836
S'4.32'
p837
sS'West with the Night'
p838
S'4.18'
p839
sS'Four Comedies: Lysistrata/The Congresswomen/The Acharnians/The Frogs'
p840
S'3.78'
p841
sS'Undue Influence (Paul Madriani, #3)'
p842
S'4.00'
p843
sS'High Exposure: An Enduring Passion for Everest and Unforgiving Places'
p844
S'3.86'
p845
sS'Innocent Blood'
p846
S'3.72'
p847
sS'MDX Solutions: With Microsoft SQL Server Analysis Services 2005 and Hyperion Essbase'
p848
S'3.78'
p849
sS'The Book of Evidence'
p850
S'3.74'
p851
sS"It's Not About the Bike: My Journey Back to Life"
p852
S'3.72'
p853
sS'Gorgias (Clarendon)'
p854
S'3.90'
p855
sS'Fullmetal Alchemist, Vol. 2 (Fullmetal Alchemist, #2)'
p856
S'4.53'
p857
sS'The Rhetoric Of Imitation: Genre And Poetic Memory In Virgil And Other Latin Poets'
p858
S'4.40'
p859
sS'How to Draw Action Dragonball Z (Dragonball Z)'
p860
S'4.22'
p861
sS'The Persian War (Translations from Greek & Roman Authors)'
p862
S'4.03'
p863
sS'Tandia'
p864
S'4.00'
p865
sS'The Feeling Good Handbook'
p866
S'3.98'
p867
sS"Fire at Eden's Gate: Tom McCall and the Oregon Story"
p868
S'4.34'
p869
sS'The Long Dark Tea-Time of the Soul (Dirk Gently, #2)'
p870
S'4.05'
p871
sS'Heat and Dust'
p872
S'3.55'
p873
sS'The Westing Game'
p874
S'4.03'
p875
sS'Frogs/Assemblywomen/Wealth (Loeb Classical Library 180)'
p876
S'4.14'
p877
sS'Aliens: Original Sin'
p878
S'3.61'
p879
sS'Fences and Windows: Dispatches from the Front Lines of the Globalization Debate'
p880
S'3.63'
p881
sS'Moonraker (James Bond, #3)'
p882
S'3.70'
p883
sS'Hey Nostradamus!'
p884
S'3.72'
p885
sS'The Motorcycle Diaries: Notes on a Latin American Journey'
p886
S'3.79'
p887
sS'The Lord of the Rings: The Art of The Fellowship of the Ring'
p888
S'4.59'
p889
sS"Erasmus on His Times: A Shortened Version of the 'Adages' of Erasmus"
p890
S'4.00'
p891
sS'Unpainted to the Last: "Moby Dick" and Twentieth-century American Art'
p892
S'4.33'
p893
sS'Twelve Sharp (Stephanie Plum, #12)'
p894
S'4.13'
p895
sS'A People and a Nation: A History of the United States'
p896
S'3.47'
p897
sS'Desert Heat (Joanna Brady, #1)'
p898
S'3.99'
p899
sS'The Richest Man in Babylon: 2the Success Secrets of the Ancients'
p900
S'4.22'
p901
sS'The Mother Tongue: English and How It Got That Way'
p902
S'3.95'
p903
sS'Homeric Responses'
p904
S'4.40'
p905
sS'Thucydides: Book I'
p906
S'0.00'
p907
sS'Heidi'
p908
S'4.40'
p909
sS'Original Sin (Adam Dalgliesh #9)'
p910
S'3.89'
p911
sS'When the World Was Steady'
p912
S'3.19'
p913
sS'David Carson 2ndsight'
p914
S'4.07'
p915
sS'A Fairy Tale Created Original Sin'
p916
S'3.00'
p917
sS"Heat: An Amateur's Adventures as Kitchen Slave, Line Cook, Pasta-Maker, and Apprentice to a Butcher in Tuscany"
p918
S'3.89'
p919
sS'Neither Here nor There: Travels in Europe'
p920
S'3.88'
p921
sS"Golding's Lord of the Flies (Cliffs Notes)"
p922
S'3.79'
p923
sS'Truth and Beauty'
p924
S'3.93'
p925
sS'Death and Dying: Life and Living [With Infotrac]'
p926
S'3.77'
p927
sS"Paul Auster (Bloom's Modern Critical Views)"
p928
S'3.75'
p929
sS'On Christian Teaching'
p930
S'3.99'
p931
sS'A Full House: An Austin Family Christmas (Austin Family, #9)'
p932
S'3.99'
p933
sS'Lance Armstrong: The Race of His Life'
p934
S'3.75'
p935
sS'The Broken Wings'
p936
S'3.94'
p937
sS'Angels, Demons & Gods of the New Millenium: Musings on Modern Magick'
p938
S'4.07'
p939
sS'Advanced Global Illumination, Second Edition'
p940
S'4.43'
p941
sS'The Gettysburg Address'
p942
S'4.53'
p943
sS'My Nestorian Adventure in China: A Popular Account of the Holm-Nestorian Expedition to Sian-Fu and Its Results'
p944
S'0.00'
p945
sS'Commodities For Dummies'
p946
S'3.41'
p947
sS'A World of Heroes: Selections from Homer, Herodotus and Sophocles'
p948
S'4.33'
p949
sS"CliffsComplete Shakespeare's Hamlet (Cliffs Complete)"
p950
S'4.04'
p951
sS'Good Earth'
p952
S'3.97'
p953
sS'Hank the Cowdog and Monkey Business (Hank the Cowdog, #14)'
p954
S'4.08'
p955
sS'Monkey Business: True Story of the Scopes Trial'
p956
S'3.17'
p957
sS'Seeing'
p958
S'3.75'
p959
sS'Reading Greek Tragedy'
p960
S'4.00'
p961
sS'Jesus the Son of Man'
p962
S'3.98'
p963
sS'Friday Night Lights: A Town, a Team, And a Dream'
p964
S'4.11'
p965
sS'Gates Of Fire'
p966
S'4.40'
p967
sS'The Fate of Empire, 1776-2000 (A History of Britain, #3)'
p968
S'4.07'
p969
sS'Cuentos de Eva Luna - Bolsillo'
p970
S'3.95'
p971
sS'HTML Utopia'
p972
S'3.27'
p973
sS'Modern Latin America'
p974
S'3.54'
p975
sS"Caesar's Women (Masters of Rome, #4)"
p976
S'4.22'
p977
sS'Breast Health the Natural Way'
p978
S'0.00'
p979
sS'Love First: A New Approach to Intervention for Alcoholism and Drug Addiction (A Hazelden Guidebook)'
p980
S'4.29'
p981
sS'Lysistrata'
p982
S'3.84'
p983
sS'Holy Cow! Does God Care about What We Eat?'
p984
S'4.25'
p985
sS'Aristophanes\' "Lysistrata"'
p986
S'3.84'
p987
sS'Millionaire Women Next Door: The Many Journeys of Successful American Businesswomen'
p988
S'3.78'
p989
sS'Joe Pass Guitar Chords'
p990
S'4.50'
p991
sS'Old Norse-Icelandic Literature: A Short Introduction'
p992
S'3.74'
p993
sS'Spectacles of Truth in Classical Greek Philosophy: Theoria in Its Cultural Context'
p994
S'5.00'
p995
sS'The Names'
p996
S'3.65'
p997
sS'The Adventures of Sherlock Holmes (Sherlock Holmes, #3)'
p998
S'4.29'
p999
sS"The Wealthy Barber: Everyone's Commonsense Guide to Becoming Financially Independent"
p1000
S'3.98'
p1001
sS'The Richest Man In Babylon'
p1002
S'4.22'
p1003
sS"The Wealthy Barber: Everyone's Common-Sense Guide to Becoming Financially Independent"
p1004
S'3.98'
p1005
sS"L'Affaire"
p1006
S'2.93'
p1007
sS'Hecuba, Trojan Women, Andromache'
p1008
S'4.23'
p1009
sS'Maui Handbook: Including Molokai and Lanai'
p1010
S'4.00'
p1011
sS'A Shadow in Summer (Long Price Quartet, #1)'
p1012
S'3.58'
p1013
sS'The Bon Appetit Cookbook'
p1014
S'4.05'
p1015
sS'Ballet Shoes (CD)'
p1016
S'4.06'
p1017
sS'The Nightingale Question: Five Poets from Saxony'
p1018
S'0.00'
p1019
sS'The Little Black Book of Martinis'
p1020
S'4.00'
p1021
sS'Do It Tomorrow and Other Secrets of Time Management'
p1022
S'3.88'
p1023
sS'Lord of the Flies'
p1024
S'3.64'
p1025
sS'Euripidean Polemic: The Trojan Women and the Function of Tragedy'
p1026
S'3.00'
p1027
sS'Moby Dick (Troll Illustrated Classics)'
p1028
S'3.64'
p1029
sS'Unauthorized Harry Potter Book Seven News: "Half-Blood Prince" Analysis and Speculation'
p1030
S'3.73'
p1031
sS'Electra and Other Plays'
p1032
S'4.12'
p1033
sS'Ruby Quickly: Ruby and Rails for the Real World'
p1034
S'2.33'
p1035
sS'Indian Givers: How the Indians of the Americas Transformed the World'
p1036
S'4.09'
p1037
sS"Bill Bryson's African Diary"
p1038
S'3.39'
p1039
sS'Tenth Man Down'
p1040
S'3.87'
p1041
sS'The Amazing Adventures of the Escapist: Volume 1'
p1042
S'3.44'
p1043
sS'Version Control with Subversion'
p1044
S'3.57'
p1045
sS'The Praise of Folly'
p1046
S'3.88'
p1047
sS'The Healthy College Cookbook: Quick. Cheap. Easy.'
p1048
S'3.72'
p1049
sS'Dalit: The Black Untouchables of India'
p1050
S'4.00'
p1051
sS'Herman Melville:  Moby Dick, Billy Budd and Other Writings'
p1052
S'4.11'
p1053
sS'The Origins of Rhetoric in Ancient Greece'
p1054
S'3.25'
p1055
sS'La Caseta Magica (the Phantom Tollbooth)'
p1056
S'4.22'
p1057
sS'Into Thin Air: A Personal Account of the Mount Everest Disaster'
p1058
S'4.11'
p1059
sS"America (The Book): A Citizen's Guide to Democracy Inaction"
p1060
S'4.02'
p1061
sS'The Double-Bass (Bloomsbury Classics)'
p1062
S'3.75'
p1063
sS'Slouching Towards Bethlehem'
p1064
S'4.24'
p1065
sS"Augustine's Laws"
p1066
S'4.11'
p1067
sS'Another Bullshit Night in Suck City'
p1068
S'3.77'
p1069
sS'The Journals of Louisa May Alcott'
p1070
S'4.21'
p1071
sS'Bullets, Badges, and Bullshit'
p1072
S'0.00'
p1073
sS'Minor Works: On Colours/On Things Heard/Physiognomics/On Plants/On Marvellous Things Heard/Mechanical Problems/On Indivisible Lines/The...Gorgias'
p1074
S'4.50'
p1075
sS'Odalisque (The Baroque Cycle, Vol. 1, Book 3)'
p1076
S'4.18'
p1077
sS'The New York Trilogy'
p1078
S'3.92'
p1079
sS'Coming into the Country'
p1080
S'4.21'
p1081
sS'Greek Literature in the Roman Period and in Late Antiquity'
p1082
S'5.00'
p1083
sS'Big Sur and the Oranges of Hieronymus Bosch'
p1084
S'4.00'
p1085
sS"23 Days in July: Inside the Tour de France and Lance Armstrong's Record-Breaking Victory"
p1086
S'3.66'
p1087
sS'The Power of One: One Person, One Rule, One Month'
p1088
S'4.00'
p1089
sS'The Wedding Clause'
p1090
S'3.55'
p1091
sS'From the Good Earth: A Celebration of Growing Food Around the World'
p1092
S'4.21'
p1093
sS'The Riverside Shakespeare'
p1094
S'4.54'
p1095
sS'Falling Angels'
p1096
S'3.55'
p1097
sS'The Time of the Assassins:  a Study of Rimbaud'
p1098
S'3.95'
p1099
sS'Prescription for Natural Cures'
p1100
S'4.22'
p1101
sS'Black Swan/White Crow'
p1102
S'4.12'
p1103
sS'Recovering Subversion: FEMINIST POLITICS BEYOND THE LAW'
p1104
S'4.31'
p1105
sS'Roman Fever (and Other Stories)'
p1106
S'4.08'
p1107
sS'Gates of Fire'
p1108
S'4.15'
p1109
sS'A Long Shadow (Inspector Ian Rutledge, #8)'
p1110
S'4.09'
p1111
sS'Stranger in a Strange Land'
p1112
S'3.90'
p1113
sS'Drina Dances Again (Drina, #5)'
p1114
S'4.06'
p1115
sS"Cliffs Notes on Cervantes' Don Quixote"
p1116
S'3.38'
p1117
sS"Matthew Flinders' Cat"
p1118
S'3.78'
p1119
sS'The Natural Way to Draw'
p1120
S'3.88'
p1121
sS'Swiss Design 2002: Netzwerke / Ra(c)Seaux / Networks'
p1122
S'2.00'
p1123
sS'The House of Mirth'
p1124
S'3.94'
p1125
sS"Morgan's Run"
p1126
S'3.92'
p1127
sS'Six Weeks to a Simpler Lifesty'
p1128
S'3.83'
p1129
sS'The Random House Book of 20th Century French Poetry'
p1130
S'4.53'
p1131
sS'Gorgias: Encomium of Helen'
p1132
S'3.57'
p1133
sS'Euripides III: Hecuba/Andromache/The Trojan Women/Ion (Complete Greek Tragedies, #7)'
p1134
S'3.94'
p1135
sS'The Peaceful Warrior: The Diary of Deborahs Armor Bearer, Israel, 1200 B.C.'
p1136
S'3.67'
p1137
sS'Five Great Science Fiction Novels'
p1138
S'4.16'
p1139
sS'Grief Lessons: Four Plays by Euripides'
p1140
S'4.38'
p1141
sS'Ballet Shoes'
p1142
S'4.06'
p1143
sS'Out to Eat London 2002 (Lonely Planet Out to Eat)'
p1144
S'0.00'
p1145
sS"CliffsNotes on Euripides' Medea and Electra"
p1146
S'4.20'
p1147
sS'The Colossus of Maroussi'
p1148
S'3.97'
p1149
sS'Knit India Through Literature, Volume II: The East'
p1150
S'0.00'
p1151
sS'Harry Potter and the Order of the Phoenix (Harry Potter, #5)'
p1152
S'4.46'
p1153
sS'The Kite Runner'
p1154
S'4.25'
p1155
sS'Huck Finn & Tom Sawyer among the Indians & Other Unfinished Stories (Mark Twain Library)'
p1156
S'3.88'
p1157
sS'The Shaolin Way: 10 Modern Secrets of Survival from a Shaolin Grandmaster'
p1158
S'3.25'
p1159
sS'Dune Trilogy Box Set (Dune Chronicles, #1-3)'
p1160
S'4.35'
p1161
sS'Harry Potter et la Chambre des Secrets (Harry Potter, #2)'
p1162
S'4.37'
p1163
sS'Scents (Chic Simple)'
p1164
S'0.00'
p1165
sS'Daily Inspiration for the Purpose Driven Life'
p1166
S'4.39'
p1167
sS'The Grass Crown (Masters of Rome, #2)'
p1168
S'4.28'
p1169
sS'Pragmatic Version Control: Using Subversion (The Pragmatic Starter Kit Series)'
p1170
S'3.54'
p1171
sS'Sex, Drugs, and Cocoa Puffs: A Low Culture Manifesto'
p1172
S'3.75'
p1173
sS'Simply Italian: 100 Easy-To-Make, Zesty, Satisfying Favorites'
p1174
S'5.00'
p1175
sS'The Big Book of Logos 3'
p1176
S'4.10'
p1177
sS'The Amazing Adventures Of Bathman!'
p1178
S'3.74'
p1179
sS'The Language of News Media'
p1180
S'4.00'
p1181
sS'Augustine Came to Kent'
p1182
S'3.51'
p1183
sS'Girl with a Pearl Earring'
p1184
S'3.84'
p1185
sS'Storage Network Performance Analysis'
p1186
S'3.91'
p1187
sS'The Fountainheads: Wright, Rand, the FBI and Hollywood'
p1188
S'4.50'
p1189
sS'Unleashing the Ideavirus: Stop Marketing AT People! Turn Your Ideas into Epidemics by Helping Your Customers Do the Marketing thing for You.'
p1190
S'3.91'
p1191
sS'La Chute de John R.'
p1192
S'3.93'
p1193
sS'The Peloponnesian War: A New Translation, Backgrounds, Interpretations'
p1194
S'3.86'
p1195
sS'Nexus (The Rosy Crucifixion, #3)'
p1196
S'4.09'
p1197
sS'Theocritus and the Archaeology of Greek Poetry'
p1198
S'5.00'
p1199
sS'Swiss Graphic Design'
p1200
S'3.68'
p1201
sS'A Tale of Two Cities, Spotlight Edition'
p1202
S'3.81'
p1203
sS'The Good Earth'
p1204
S'3.97'
p1205
sS'The Runaways'
p1206
S'3.46'
p1207
sS'Breaking Open the Head: A Psychedelic Journey Into the Heart of Contemporary Shamanism'
p1208
S'4.05'
p1209
sS'Conversations with Bernard Malamud (Literary Conversations)'
p1210
S'4.00'
p1211
sS'Hello Reader: Make Your Way For Tooth Decay (Level 3)'
p1212
S'3.61'
p1213
sS"I Wish I Had Known That!: World's Greatest Money & Time Saving Baby Secrets Revealed!"
p1214
S'3.50'
p1215
sS"Euripides' Bacchae"
p1216
S'3.69'
p1217
sS'The Subterraneans'
p1218
S'3.68'
p1219
sS'Getting Pregnant the Natural Way: The 6-Step Natural Fertility Program Integrating Nutrition, Herbal Therapy, Movement Therapy, Massage, and Mind-Body Techniques'
p1220
S'4.50'
p1221
sS'Happiness, Death, and the Remainder of Life'
p1222
S'3.70'
p1223
sS'Shadows in the Starlight (Changeling Detective, #2)'
p1224
S'3.66'
p1225
sS'Thucydides'
p1226
S'4.35'
p1227
sS'The Invention of Tradition'
p1228
S'3.95'
p1229
sS'Kindred Spirits'
p1230
S'3.40'
p1231
sS'Music at the Aragonese Court of Naples'
p1232
S'4.00'
p1233
sS'Winterdance: The Fine Madness of Running the Iditarod'
p1234
S'4.24'
p1235
sS'The Phaedrus Of Plato'
p1236
S'3.91'
p1237
sS'And a Hard Rain Fell'
p1238
S'4.10'
p1239
sS'Typee, Omoo, Mardi'
p1240
S'3.62'
p1241
sS'Wilfrid Gordon McDonald Partridge'
p1242
S'4.41'
p1243
sS'The Metamorphoses of Ovid'
p1244
S'4.03'
p1245
sS'Prologue (Geoffrey Chaucer   The Canterbury Tales)'
p1246
S'3.55'
p1247
sS'The Iliad/The Odyssey'
p1248
S'4.02'
p1249
sS'Novels, 1896-1899'
p1250
S'4.29'
p1251
sS"Ruby Ann's Down Home Trailer Park Cookbook"
p1252
S'3.98'
p1253
sS'History of the Peloponnesian War, Bk. 7-8 (Loeb Classical Library)'
p1254
S'4.24'
p1255
sS'Shadows and Wind: A View of Modern Vietnam'
p1256
S'3.58'
p1257
sS"Always Enough: God's Miraculous Provision Among the Poorest Children on Earth"
p1258
S'4.46'
p1259
sS'Burning'
p1260
S'2.77'
p1261
sS'The Long Secret'
p1262
S'3.78'
p1263
sS'In An Uncertain World: Tough Choices From Wall Street To Washington'
p1264
S'3.73'
p1265
sS'50,001 Best Baby Names'
p1266
S'3.48'
p1267
sS'Thomas Cole (Famous Artists Series)'
p1268
S'3.57'
p1269
sS'A Short History of Nearly Everything (Illustrated ed.)'
p1270
S'4.19'
p1271
sS"My Boys Can Swim!: The Official Guy's Guide to Pregnancy"
p1272
S'3.52'
p1273
sS'Christina Cooks: Everything You Always Wanted to Know About Whole Foods But Were Afraid to Ask'
p1274
S'4.10'
p1275
sS'Seven Days of Solitude: A Guidebook for a Personal Retreat'
p1276
S'3.33'
p1277
sS'Elbow Room: The Varieties of Free Will Worth Wanting'
p1278
S'3.91'
p1279
sS'A Was Once an Apple Pie'
p1280
S'3.34'
p1281
sS"The Hitchhiker's Guide to the Galaxy (Hitchhiker's Guide, #1)"
p1282
S'4.20'
p1283
sS'Dos Logos'
p1284
S'3.98'
p1285
sS'Buddhism Plain and Simple'
p1286
S'4.10'
p1287
sS'The Confessions (Christian Classics)'
p1288
S'3.88'
p1289
sS'Anthem (Paperback)'
p1290
S'3.62'
p1291
sS'Out-of-This-World Astronomy: 50 Amazing Activities  Projects'
p1292
S'3.50'
p1293
sS'The Guitar Chord Wheel Book: Over 22,000 Chords!'
p1294
S'3.83'
p1295
sS'Euripides I: Alcestis/The Medea/The Heracleidae/Hippolytus'
p1296
S'4.07'
p1297
sS'Kare First Love, Vol. 9 (Kare First Love, #9)'
p1298
S'4.07'
p1299
sS'Aeschylus II: The Suppliant Maidens, The Persians, Seven against Thebes, and Prometheus Bound (The Complete Greek Tragedies)'
p1300
S'4.05'
p1301
sS'The Lord of the Rings: Complete Visual Companion'
p1302
S'4.50'
p1303
sS'Maximum Accessibility: Making Your Web Site More Usable for Everyone: Making Your Web Site More Usable for Everyone'
p1304
S'3.80'
p1305
sS'Mars and Venus Book of Days: 365 Inspriations to Enrich Your Relationships'
p1306
S'3.51'
p1307
sS'In Praise of Folly'
p1308
S'3.88'
p1309
sS'Trinity (Works of Saint Augustine)'
p1310
S'4.31'
p1311
sS'The Old Man and the Sea'
p1312
S'3.72'
p1313
sS'Flight: 100 Years of Aviation'
p1314
S'4.36'
p1315
sS'Bacchae (Plays of Euripides)'
p1316
S'3.85'
p1317
sS"A Historical Commentary on Thucydides: A Companion to Rex Warner's Penguin Translation"
p1318
S'3.50'
p1319
sS'The History of Sexuality, Volume 1: An Introduction'
p1320
S'4.04'
p1321
sS'Burning Man: Art in the Desert'
p1322
S'3.91'
p1323
sS'7 Habits of Highly Effective People: Powerful Lessons in Personal Change'
p1324
S'4.03'
p1325
sS'The Things They Carried'
p1326
S'4.12'
p1327
sS'Encyclopedia of Thai Massage'
p1328
S'4.22'
p1329
sS'Runaway Time'
p1330
S'3.89'
p1331
sS'Fullmetal Alchemist, Vol. 9 (Fullmetal Alchemist, #9)'
p1332
S'4.58'
p1333
sS'100 Years of Lynchings'
p1334
S'4.63'
p1335
sS'Huck Finn\'s "Hidden" Lessons: Teaching and Learning Across the Color Line'
p1336
S'0.00'
p1337
sS"Dr No / Moonraker / Thunderball / From Russia with Love / On Her Majesty's Secret Service / Goldfinger"
p1338
S'4.00'
p1339
sS"Michelin's Charming Places to Stay in France 2003: 1000 Hotels & Guesthouses for Less Than 80 Euros"
p1340
S'3.20'
p1341
sS'Oedipus Rex  (The Theban Plays, #1)'
p1342
S'3.67'
p1343
sS'The Foods of Greece'
p1344
S'4.55'
p1345
sS'Children of Dune (Dune Chronicles #3)'
p1346
S'3.90'
p1347
sS'Three Weeks With My Brother'
p1348
S'4.01'
p1349
sS'Aeschylus I: Oresteia (Agamemnon, The Libation Bearers, The Eumenides)'
p1350
S'3.99'
p1351
sS'Memoirs Of A Geisha'
p1352
S'4.08'
p1353
sS'Los Logos: A Selected LOGO Collection'
p1354
S'3.94'
p1355
sS'The Trojan Women'
p1356
S'3.86'
p1357
sS'The Frogs'
p1358
S'3.81'
p1359
sS'Alcestis/Medea/Heracleidae/Hippolytus/Cyclops/Heracles/Iphigenia in Tauris/Helen/Hecuba/Andromache/The Trojan Women (Complete Greek Tragedies, #3)'
p1360
S'4.42'
p1361
sS'Robert Johnson (Signature Licks)'
p1362
S'4.00'
p1363
sS'An Original Sin'
p1364
S'3.73'
p1365
sS'New Media Language'
p1366
S'3.00'
p1367
sS'Schiffbruch mit Tiger'
p1368
S'3.88'
p1369
sS'A Little Princess'
p1370
S'4.20'
p1371
sS'The Dark Horse'
p1372
S'3.90'
p1373
sS'Real Boys: Rescuing Our Sons from the Myths of Boyhood'
p1374
S'3.81'
p1375
sS'Blink'
p1376
S'4.17'
p1377
sS'Robert Johnson - King of the Delta Blues: Guitar Transcriptions and Detailed Lessons for 29 Songs'
p1378
S'5.00'
p1379
sS'Kepler'
p1380
S'3.69'
p1381
sS'Secrets of Angels and Demons'
p1382
S'3.38'
p1383
sS'One Last Kill (John Rain, #4)'
p1384
S'4.20'
p1385
sS'Modos de ensayo: De Borges a Piglia'
p1386
S'4.00'
p1387
sS'The Warren Buffett Portfolio: Mastering the Power of the Focus Investment Strategy'
p1388
S'4.07'
p1389
sS'Ortlos: Architecture of the Net.Works'
p1390
S'4.33'
p1391
sS'The Five People You Meet in Heaven'
p1392
S'3.90'
p1393
sS'Willem de Kooning: The Life of an Artist'
p1394
S'2.00'
p1395
sS'The Moon is a Harsh Mistress'
p1396
S'4.17'
p1397
sS'To Kill a Mockingbird (To Kill A Mockingbird #1)'
p1398
S'4.25'
p1399
sS'Harriet Spies Again'
p1400
S'3.79'
p1401
sS"Cliffs Notes on Shakespeare's Hamlet"
p1402
S'3.83'
p1403
sS"Thursday's Children"
p1404
S'4.26'
p1405
sS'The Best of the Achaeans: Concepts of the Hero in Archaic Greek Poetry'
p1406
S'4.16'
p1407
sS'The Richest Man in Babylon'
p1408
S'4.22'
p1409
sS'Marketing Warfare!'
p1410
S'4.09'
p1411
sS'Antigone (Greek and Latin Classics)'
p1412
S'3.60'
p1413
sS'Flip-Flop Girl'
p1414
S'3.43'
p1415
sS'The Storm'
p1416
S'2.91'
p1417
sS'Computational Physics: The Proceedings of the Second International Conference on Computational Physics (ICCP-2): September 13-17, 1993, Beijing, China'
p1418
S'0.00'
p1419
sS'Historiae, Vol. 2 (Classical Texts Series)'
p1420
S'3.87'
p1421
sS'The Bad Guys Won!'
p1422
S'4.00'
p1423
sS"Moloka'i"
p1424
S'4.15'
p1425
sS'Women of Troy/Hecuba/Helen: Three Plays'
p1426
S'4.15'
p1427
sS'Surgery: Basic Science and Clinical Evidence'
p1428
S'3.25'
p1429
sS'Guitar Chord Songbook: Classic Rock'
p1430
S'4.50'
p1431
sS'Lots and Lots of Zebra Stripes'
p1432
S'3.44'
p1433
sS'The Lost Continent: Travels in Small-Town America'
p1434
S'3.83'
p1435
sS'Tesla Papers'
p1436
S'4.13'
p1437
sS'The Intellectual Revolution: Selections from Euripides, Thucydides and Plato'
p1438
S'4.00'
p1439
sS"The Tutor's First Love"
p1440
S'4.07'
p1441
sS"Tim O'Brien: A Critical Companion"
p1442
S'4.00'
p1443
sS'Hippolytos'
p1444
S'3.80'
p1445
sS'Novels, 1901-1902'
p1446
S'4.67'
p1447
sS'Love Artist (Harlequin Romance #2860)'
p1448
S'4.00'
p1449
sS'The Art of War'
p1450
S'3.95'
p1451
sS'Instant Songwriting with the Piano'
p1452
S'0.00'
p1453
sS'Breaking Open the Head: A Psychedelic Journey from Cynicism to Shamanism'
p1454
S'4.05'
p1455
sS'Selected Writings from Protagoras/Republic/Phaedrus/Gorgias'
p1456
S'4.50'
p1457
sS'The Birth of Tragedy'
p1458
S'3.97'
p1459
sS'The Praise of Folly and Other Writings'
p1460
S'3.88'
p1461
sS'Harry Potter and the Prisoner of Azkaban (Harry Potter, #3)'
p1462
S'4.52'
p1463
sS'The Crying of Lot 49'
p1464
S'3.71'
p1465
sS'Loving Graham Greene: A Novel'
p1466
S'2.92'
p1467
sS"The Clan of the Cave Bear, Part 1 of 2 (Earth's Children, #1)"
p1468
S'4.42'
p1469
sS'Poetic Interplay: Catullus and Horace'
p1470
S'3.50'
p1471
sS'Annals of the Former World'
p1472
S'4.33'
p1473
sS'Islands, Mounds, And Atoms: Patterns And Processes In Crystal Growth Far From Equilibrium'
p1474
S'0.00'
p1475
sS'No Fluff, Just Stuff Anthology'
p1476
S'3.48'
p1477
sS"Thucydides: Man's Place in History"
p1478
S'0.00'
p1479
sS'Augustine: A Very Short Introduction'
p1480
S'3.79'
p1481
sS'Earth is Flat" and Other Great Mistakes'
p1482
S'2.80'
p1483
sS'Moby Dick'
p1484
S'3.46'
p1485
sS'Born To Be Wild'
p1486
S'3.74'
p1487
sS'The Santaroga Barrier'
p1488
S'3.63'
p1489
sS'The Power of an Hour: Business and Life Mastery in One Hour a Week'
p1490
S'3.22'
p1491
sS'Iron Ties'
p1492
S'3.90'
p1493
sS'A Field Guide to Rock Art Symbols of the Greater Southwest'
p1494
S'4.20'
p1495
sS'Movie Shoes (Shoes, #6)'
p1496
S'3.99'
p1497
sS'A Tale of Two Cities'
p1498
S'3.81'
p1499
sS'The Puritan Tradition in Revolutionary, Federalist, and Whig Political Theory: A Rhetoric of Origins'
p1500
S'0.00'
p1501
sS'Melville and the politics of identity: From *King Lear* to *Moby-Dick*'
p1502
S'4.00'
p1503
sS'Orestes and Other Plays'
p1504
S'4.06'
p1505
sS'Guitar Case Chord Book (Guitar)'
p1506
S'4.33'
p1507
sS'The Other Side of Nowhere: Jazz, Improvisation, and Communities in Dialogue'
p1508
S'4.33'
p1509
sS'The World Is Flat: A Brief History of the Twenty-first Century'
p1510
S'3.66'
p1511
sS'The Complete Anne of Green Gables Boxed Set (Anne of Green Gables, #1-8)'
p1512
S'4.42'
p1513
sS'Ethnography: A Way of Seeing'
p1514
S'3.38'
p1515
sS'Heretics of Dune (Dune Chronicles, #5)'
p1516
S'3.83'
p1517
sS'Practice of the Wild'
p1518
S'4.18'
p1519
sS'A Wrinkle in Time: Teacher Guide'
p1520
S'4.00'
p1521
sS'The Complete Works'
p1522
S'4.48'
p1523
sS'Necessity, Volition, and Love'
p1524
S'4.06'
p1525
sS'Selected Stories'
p1526
S'4.00'
p1527
sS'The 48 Laws of Power'
p1528
S'4.17'
p1529
sS'UFOs Over California: A True History of Extraterrestrial Encounters in the Golden State'
p1530
S'4.27'
p1531
sS"Ruby's Low-Fat Soul Food Cookbook"
p1532
S'4.50'
p1533
sS'Dictionary of Bullshit'
p1534
S'3.14'
p1535
sS'Great Short Works'
p1536
S'4.30'
p1537
sS'Leadership'
p1538
S'3.70'
p1539
sS'English-Cayuga/Cayuga-English Dictionary'
p1540
S'0.00'
p1541
sS"Warren Buffett: An Illustrated Biography of the World's Most Successful Investor"
p1542
S'3.66'
p1543
sS'A Nation of Victims: The Decay of the American Character'
p1544
S'3.74'
p1545
sS'The Book of Salt'
p1546
S'3.48'
p1547
sS'Eros and Ritual in Ancient Literature: Singing of Atalanta, Daphnis and Orpheus'
p1548
S'0.00'
p1549
sS'Greek Literature in the Byzantine Period: Greek Literature'
p1550
S'5.00'
p1551
sS'Den of Thieves'
p1552
S'4.13'
p1553
sS'Poetry and Myth in Ancient Pastoral: Essays on Theocritus and Virgil'
p1554
S'4.33'
p1555
sS"Jon Krakauer's Adventure on Mt. Everest"
p1556
S'4.03'
p1557
sS'Shibumi'
p1558
S'4.23'
p1559
sS"A. Lincoln'S Gettysburg Addres"
p1560
S'3.00'
p1561
sS'Object-Oriented Programming in C++'
p1562
S'3.93'
p1563
sS'The Eclogues of Virgil: A Translation'
p1564
S'3.89'
p1565
sS"There's Always Enough: The Miraculous Move of God in Mozambique"
p1566
S'4.46'
p1567
sS'Motorcycle Camping Made Easy'
p1568
S'3.52'
p1569
sS'Women in Old Norse Society: A Portrait'
p1570
S'3.87'
p1571
sS'Growing Up Untouchable in India: A Dalit Autobiography'
p1572
S'3.45'
p1573
sS'Poetry for Young People: Edward Lear'
p1574
S'3.80'
p1575
sS'How to Cook Everything Simple Recipes for Great Food'
p1576
S'4.02'
p1577
sS'CSS Pocket Reference'
p1578
S'3.89'
p1579
sS"Love: A User's Guide"
p1580
S'3.25'
p1581
sS'Rich Dad Poor Dad Classics - Boxed Set'
p1582
S'3.93'
p1583
sS"Thomas Pynchon (Bloom's Modern Critical Views)"
p1584
S'3.44'
p1585
sS"Motorcycle Owner's Manual"
p1586
S'3.61'
p1587
sS'Holy Man: Father Damien of Molokai'
p1588
S'3.83'
p1589
sS'Cryptonomicon'
p1590
S'4.25'
p1591
sS'Random Harvest'
p1592
S'4.07'
p1593
sS"Through Otis' Eyes: Lessons from a Guide Dog Puppy"
p1594
S'4.54'
p1595
sS"Aristophanes' Male and Female Revolutions: A Reading of Aristophanes' Knights and Assemblywomen"
p1596
S'3.00'
p1597
sS'Gecko Gathering PB'
p1598
S'0.00'
p1599
sS'Chandler: Stories and Early Novels'
p1600
S'4.49'
p1601
sS'Greek Literature in the Classical Period: The Prose of Historiography and Oratory'
p1602
S'5.00'
p1603
sS'Children Are from Heaven: How to Have Strong, Confident Children'
p1604
S'3.85'
p1605
sS'London: City Guide (Lonely Planet City Guide)'
p1606
S'4.01'
p1607
sS'Dear John'
p1608
S'4.01'
p1609
sS'The Amazing Adventures of Kavalier & Clay'
p1610
S'4.17'
p1611
sS'A History of the United States and Its People'
p1612
S'4.31'
p1613
sS'Archaic Period (Greek Literature, Volume 2)'
p1614
S'5.00'
p1615
sS'Treasure Island (Great Illustrated Classics)'
p1616
S'4.00'
p1617
sS'To Sail Beyond the Sunset'
p1618
S'3.87'
p1619
sS'Little Known Evidences of the Book of Mormon'
p1620
S'3.72'
p1621
sS'The Crossing'
p1622
S'3.57'
p1623
sS'Humanity Dick: A Biography of Richard Martin, M. P., 1754-1834'
p1624
S'4.00'
p1625
sS"Mrs. Sharp's Traditions: Reviving Victorian Family Celebrations of Comfort & Joy"
p1626
S'4.06'
p1627
sS'In the Country of Last Things'
p1628
S'3.90'
p1629
sS'The Worm Ouroboros'
p1630
S'3.70'
p1631
sS'Critical Mass'
p1632
S'3.86'
p1633
sS'1000 Families'
p1634
S'4.13'
p1635
sS'Behind a Mask: The Unknown Thrillers of Louisa May Alcott'
p1636
S'3.75'
p1637
sS'Plays 1: Medea/The Phoenician Women/Bacchae'
p1638
S'3.71'
p1639
sS'E. M. Forster: A Life'
p1640
S'4.13'
p1641
sS"The Passion of Ayn Rand's Critics: The Case Against the Brandens"
p1642
S'4.21'
p1643
sS"Norman Hall's Corrections Officer Exam Preparation Book"
p1644
S'2.33'
p1645
sS'The Life Of Dashiell Hammett'
p1646
S'3.82'
p1647
sS'Life After God'
p1648
S'3.82'
p1649
sS'Lonely Planet Londres'
p1650
S'4.01'
p1651
sS'Cities of Salt'
p1652
S'4.07'
p1653
sS'The Earliest Life of Christ Ever Complied from the Four Gospels: Being the Diatessaron of Tatian (Gorgias Reprint)'
p1654
S'4.29'
p1655
sS'Veronika Decides to Die'
p1656
S'3.69'
p1657
sS'The Book of Probes'
p1658
S'4.16'
p1659
sS'Swiss Federal Design Grants 2006'
p1660
S'0.00'
p1661
sS'Message in a Bottle'
p1662
S'3.94'
p1663
sS'The Eyes of Heisenberg'
p1664
S'3.42'
p1665
sS'The Leadership Challenge'
p1666
S'4.04'
p1667
sS"Aisthetische Reduktionen: Analysen Zu Patrick Suskinds 'Der Kontraba', 'Das Parfum' Und 'Rossini'"
p1668
S'0.00'
p1669
sS"Flaubert's Parrot"
p1670
S'3.67'
p1671
sS'Moby-Dick'
p1672
S'3.46'
p1673
sS'How to Cook: And Everything Else You Need to Know in the Kitchen'
p1674
S'0.00'
p1675
sS'The Poetical Works of Christopher Smart: Volume VI: A Poetical Translation of the Fables of Phaedrus'
p1676
S'3.50'
p1677
sS'Paul Auster and Postmodern Quest: On the Road to Nowhere'
p1678
S'3.00'
p1679
sS'Simply Italian: Easy Recipes That Are Quick to Prepare, Low in Calories, and Kind to Your Budget'
p1680
S'4.00'
p1681
sS'Comedy Quotes from the Movies: Over 4,000 Bits of Humorous Dialogue from All Film Genres, Topically Arranged and Indexed'
p1682
S'0.00'
p1683
sS'Monkey Business: Are Yor Controlling Events or Are Events Controlling You?'
p1684
S'4.22'
p1685
sS'Thai Massage: A Traditional Medical Technique'
p1686
S'4.00'
p1687
sS'Harry Potter and the Half-Blood Prince (Harry Potter, #6)'
p1688
S'4.53'
p1689
sS'Grand Theft Auto: Vice City Official Strategy Guide for PC'
p1690
S'4.10'
p1691
sS'Houses of God: Religious Architecture for a New Millennium'
p1692
S'3.33'
p1693
sS'The Norton Shakespeare'
p1694
S'4.58'
p1695
sS'A Severed Wasp'
p1696
S'3.97'
p1697
sS'Burning Bright'
p1698
S'3.34'
p1699
sS'Going After Cacciato'
p1700
S'3.90'
p1701
sS'The Taste of Home Cookbook'
p1702
S'4.25'
p1703
sS'Antigone (Translations from Greek Drama)'
p1704
S'3.60'
p1705
sS'The Death of Ivan Ilych And Other Stories'
p1706
S'4.08'
p1707
sS'James Bond and Moonraker'
p1708
S'3.53'
p1709
sS'Consciousness Explained'
p1710
S'3.89'
p1711
sS'Gap Creek: A Novel'
p1712
S'3.71'
p1713
sS'No Price Too High: A Pentecostal Preacher Becomes Catholic - The Inspirational Story of Alex Jones as Told to Diane Hanson'
p1714
S'4.33'
p1715
sS'Americans in Paris: Great Short Stories of the City of Light'
p1716
S'3.00'
p1717
sS'Bakkhai'
p1718
S'3.85'
p1719
sS'Guts: The True Stories behind Hatchet and the Brian Books'
p1720
S'3.87'
p1721
sS'Euripides: Ten Plays'
p1722
S'4.15'
p1723
sS"The Real Estate Investor's Tax Guide"
p1724
S'0.00'
p1725
sS"The Official Crazy Bones Collector's Guide"
p1726
S'3.67'
p1727
sS"Trading with the Enemy: Seduction and Betrayal on Jim Cramer's Wall Street"
p1728
S'3.67'
p1729
sS'The Best 50 Martinis'
p1730
S'3.00'
p1731
sS'The Works Of H. G. Wells:  Complete & Unabridged'
p1732
S'4.12'
p1733
sS'Augustine of Hippo: A Biography'
p1734
S'4.26'
p1735
sS"The Science of Sherlock Holmes: From Baskerville Hall to the Valley of Fear, the Real Forensics Behind the Great Detective's Greatest Cases"
p1736
S'4.21'
p1737
sS'Latin (Vergil)'
p1738
S'0.00'
p1739
sS'The Sun Also Rises'
p1740
S'3.83'
p1741
sS'Along the Juniata: Thomas Cole and the Dissemination of American Landscape Imagery'
p1742
S'2.50'
p1743
sS'Guitar Chord Bible (Music Bibles)'
p1744
S'4.23'
p1745
sS'Boogaloo on 2nd Avenue'
p1746
S'3.14'
p1747
sS'Bishop Lists: Formation of Apostolic Succession of Bishops in Ecclesiastical Crises'
p1748
S'0.00'
p1749
sS'The Annotated Huckleberry Finn'
p1750
S'3.80'
p1751
sS'Earth Odyssey: Around the World in Search of Our Environmental Future'
p1752
S'4.21'
p1753
sS'The Rough Guide to London Restaurants 2004 6'
p1754
S'3.93'
p1755
sS"Lincoln's Gettysburg Address in Translation"
p1756
S'4.53'
p1757
sS'One Body, One Life: Six Weeks to the New You'
p1758
S'3.56'
p1759
sS'Natural Disasters [with Online Learning Center Access Code]'
p1760
S'3.51'
p1761
sS'The Next 100 Years: Predictions to the Nations and the Church of the 21st Century'
p1762
S'3.75'
p1763
sS'The No-Salt Cookbook: Reduce or Eliminate Salt Without Sacrificing Flavor'
p1764
S'3.39'
p1765
sS'The Invisible Child'
p1766
S'4.23'
p1767
sS'Introducing Mind and Brain (Introducing...)'
p1768
S'3.55'
p1769
sS'The Compleat Works of Wllm Shkspr (abridged)'
p1770
S'4.47'
p1771
sS'Blood From Blood (John Rain, #2)'
p1772
S'4.09'
p1773
sS'Simply Beautiful Beaded Jewelry'
p1774
S'3.66'
p1775
sS'An Art of Desire: Reading Paul Auster'
p1776
S'3.75'
p1777
sS'E.M. Forster'
p1778
S'3.61'
p1779
sS'Blessed Is He Who Has Brought Adam from Sheol'
p1780
S'0.00'
p1781
sS'The Notebooks of Lazarus Long'
p1782
S'4.06'
p1783
sS"The Kid's Cookbook: A Great Book for Kids Who Love to Cook"
p1784
S'4.19'
p1785
sS'Avalanche: Heretical Reflections on the Dark and the Light'
p1786
S'3.96'
p1787
sS'Las razones del amor/ The Reasons Of Love: El Sentido de Nuestras Vidas / The Sense of Our Lives'
p1788
S'3.64'
p1789
sS'How to Build a Real Estate Empire: Wisdom from the Best in the Business'
p1790
S'3.35'
p1791
sS'The Angle of Repose: Four American Photographers in Egypt'
p1792
S'4.12'
p1793
sS"A People's History of the United States: The Civil War to the Present"
p1794
S'4.07'
p1795
sS'On the Road'
p1796
S'3.64'
p1797
sS"9/11 Descent Into Tyranny: The New World Order's Dark Plans to Turn Earth Into a Prison Planet"
p1798
S'3.65'
p1799
sS'Angle of Repose, Part 1 of 2'
p1800
S'4.12'
p1801
sS'Prometheus Bound and Other Plays'
p1802
S'4.09'
p1803
sS"Solomon's Song (The Potato Factory, #3)"
p1804
S'3.97'
p1805
sS'Sophocles I: Oedipus the King, Oedipus at Colonus, Antigone (Complete Greek Tragedies)'
p1806
S'3.96'
p1807
sS'Little Women (Little Women, #1)'
p1808
S'4.03'
p1809
sS'The 100 Most Notable Cornellians'
p1810
S'4.00'
p1811
sS'First Love and Other Sorrows: Stories'
p1812
S'4.00'
p1813
sS'A Tramp Abroad'
p1814
S'3.86'
p1815
sS'America: A Concise History, Volume 2: Since 1865'
p1816
S'3.74'
p1817
sS'Wisdom from the Five People You Meet in Heaven'
p1818
S'3.80'
p1819
sS'Sir Gawain and the Green Knight (Myths & Legends Audio)'
p1820
S'3.68'
p1821
sS'Charles Willeford Omnibus: Pick Up/Burnt Orange Heresy/Cockfighter'
p1822
S'4.33'
p1823
sS'The Fellowship of the Ring (The Lord of the Rings, #1)'
p1824
S'4.33'
p1825
sS'Thucydides, Book 6 Commentary'
p1826
S'4.50'
p1827
sS'Investing in REITs: Real Estate Investment Trusts'
p1828
S'3.53'
p1829
sS'Medea - Literary Touchstone Classic'
p1830
S'3.83'
p1831
sS'Building Literacy with Love: A Guide for Teachers and Caregivers of Children Birth Through Age 5'
p1832
S'3.30'
p1833
sS'In The Blink Of An Eye: How Vision Sparked The Big Bang Of Evolution'
p1834
S'3.96'
p1835
sS'The Bostonians'
p1836
S'3.59'
p1837
sS'Unnatural Causes (Adam Dalgliesh #3)'
p1838
S'3.95'
p1839
sS'Cyclops. Alcestis. Medea'
p1840
S'4.20'
p1841
sS'London'
p1842
S'4.01'
p1843
sS'The City of God against the Pagans (Texts in the History of Political Thought)'
p1844
S'3.87'
p1845
sS'The Fixer'
p1846
S'3.95'
p1847
sS'Memoirs of a Geisha'
p1848
S'4.08'
p1849
sS'Bread Givers'
p1850
S'3.68'
p1851
sS'Complete Home Storge'
p1852
S'3.10'
p1853
sS'Democracy'
p1854
S'3.82'
p1855
sS'Memoirs of a Midget'
p1856
S'3.62'
p1857
sS'Natural Health, Natural Medicine'
p1858
S'4.11'
p1859
sS'A Winter Haunting'
p1860
S'3.57'
p1861
sS'Harriet The Spy'
p1862
S'3.96'
p1863
sS'The Headless Cupid (Stanley Family, #1)'
p1864
S'3.85'
p1865
sS'The Harry Potter Collection (Harry Potter, #1-6)'
p1866
S'4.73'
p1867
sS'The Compact Rock Guitar Chord Reference'
p1868
S'0.00'
p1869
sS'El Siglo del Espiritu Santo'
p1870
S'3.83'
p1871
sS'Spectator Politics: Metatheatre and Performance in Aristophanes'
p1872
S'3.50'
p1873
sS'Medea'
p1874
S'3.83'
p1875
sS'Tom Wolfes Treasury of Patterns: 90 Patterns for Dog Carvers'
p1876
S'3.50'
p1877
sS'Mice, Morals, & Monkey Business'
p1878
S'3.41'
p1879
sS'Daily Inspiration for the Purpose Driven Life: Scriptures and Reflections from the 40 Days of Purpose'
p1880
S'4.39'
p1881
sS'The Potato Factory'
p1882
S'4.07'
p1883
sS'Great Discoveries & Amazing Adventures: The Stories of Hidden Marvels and Lost Treasures'
p1884
S'4.00'
p1885
sS'Interface'
p1886
S'3.65'
p1887
sS'Slow Learner: Early Stories'
p1888
S'3.49'
p1889
sS'New Technology in Language Learning: Proceedings of the 1989 Man and the Media Symposium'
p1890
S'0.00'
p1891
sS'The Semi-Complete Guide to Sort of Being a Gentleman'
p1892
S'4.50'
p1893
sS'CSS Mastery: Advanced Web Standards Solutions'
p1894
S'4.12'
p1895
sS"Einstein's Heroes: Imagining the World Through the Language of Mathematics"
p1896
S'3.74'
p1897
sS'Thai Massage Manual: Natural Therapy for Flexibility, Relaxation, and Energy Balance'
p1898
S'4.11'
p1899
sS'The Autobiography of Mark Twain'
p1900
S'4.09'
p1901
sS'Pure and Simple: The Extraordinary Teachings of a Thai Buddhist Laywoman'
p1902
S'4.27'
p1903
sS'Guitar Case Chord Book in Full Color - Compact Music Guides Series'
p1904
S'4.00'
p1905
sS'The Handbook Of Sailing'
p1906
S'3.95'
p1907
sS"Maverick's: The Story of Big-Wave Surfing"
p1908
S'4.19'
p1909
sS'J.K. Rowling'
p1910
S'4.16'
p1911
sS'Den of Thieves (Ad&d 2nd Edition)'
p1912
S'3.33'
p1913
sS'Lincoln on Leadership: Executive Strategies for Tough Times by Donald T. Phillips, Phillips'
p1914
S'4.10'
p1915
sS'Richest Man in Babylon - The Success Secrets of the Ancients'
p1916
S'4.22'
p1917
sS"J. K. Lasser's Pick Stocks Like Warren Buffett"
p1918
S'3.33'
p1919
sS'Long Goodbye'
p1920
S'4.16'
p1921
sS'The Baby Name Wizard: A Magical Method for Finding the Perfect Name for Your Baby'
p1922
S'4.11'
p1923
sS'The Burnt Orange Heresy (Vintage Crime/Black Lizard)'
p1924
S'3.93'
p1925
sS'Illuminations: Visions for Change, Growth, and Self-Acceptance'
p1926
S'4.30'
p1927
sS'Oedipus Rex (Greek and Latin Classics)'
p1928
S'3.67'
p1929
sS'Fire in the Gates'
p1930
S'4.50'
p1931
sS'Emotional Design: Why We Love (or Hate) Everyday Things'
p1932
S'3.90'
p1933
sS"Real Estate Riches: How to Become Rich Using Your Banker's Money"
p1934
S'4.00'
p1935
sS'The Letters of Gustave Flaubert, 1857-1880'
p1936
S'4.55'
p1937
sS'Dune (Dune Chronicles, #1)'
p1938
S'4.19'
p1939
sS'The Lord of the Rings (The Lord of the Rings, #1-3)'
p1940
S'4.47'
p1941
sS'Getting Things Done When You Are Not in Charge'
p1942
S'3.45'
p1943
sS'The Archaeology of Rock-Art'
p1944
S'4.27'
p1945
sS'Conversations with Lincoln'
p1946
S'3.50'
p1947
sS'Iliad'
p1948
S'3.82'
p1949
sS'Guitar Chord Encyclopedia: 36 Chords in Each Key'
p1950
S'3.42'
p1951
sS'Freakonomics: A Rogue Economist Explores the Hidden Side of Everything'
p1952
S'3.93'
p1953
sS'Listen for It: A Task-Based Listening Course'
p1954
S'4.60'
p1955
sS'Smart Mobs: The Next Social Revolution'
p1956
S'3.82'
p1957
sS'The History of Sexuality, Volume 1: The Will to Knowledge'
p1958
S'4.04'
p1959
sS'Hard Freeze (Joe Kurtz, #2)'
p1960
S'3.83'
p1961
sS'Understanding Sun Tzu on the Art of War'
p1962
S'3.95'
p1963
sS'The Enchanted April'
p1964
S'3.98'
p1965
sS'A Treasury of Kahlil Gibran'
p1966
S'4.43'
p1967
sS'Dave Thomas (Overcoming Adversity)'
p1968
S'3.60'
p1969
sS'Holy Cow! Not Another Mad Snappy Answers to Stupid Questions'
p1970
S'4.00'
p1971
sS'Jack Kerouac: The Road Is Life'
p1972
S'3.67'
p1973
sS"The Innovator's Solution: Creating and Sustaining Successful Growth"
p1974
S'4.03'
p1975
sS'Shadows on the Wind'
p1976
S'2.50'
p1977
sS'The Trojan Women and Other Plays'
p1978
S'3.81'
p1979
sS'Sandpaper Sisters'
p1980
S'4.00'
p1981
sS"The Devil's Broker: Seeking Gold, God, and Glory in Fourteenth- Century Italy"
p1982
S'3.90'
p1983
sS'Angeles & Demonios'
p1984
S'3.85'
p1985
sS'Charles Dickens'
p1986
S'3.80'
p1987
sS'Cameron Townsend: Good News in Every Language (Christian Heroes: Then & Now)'
p1988
S'3.94'
p1989
sS'The Poems of Herman Melville'
p1990
S'3.97'
p1991
sS"Why Zebras Don't Get Ulcers"
p1992
S'4.13'
p1993
sS'Sun Tzu For Success: How to Use the Art of War to Master Challenges and Accomplish the Important Goals in Your Life'
p1994
S'3.77'
p1995
sS'The Highland Scots of North Carolina, 1732-1776'
p1996
S'3.88'
p1997
sS'The Confessions (Works of Saint Augustine 1)'
p1998
S'3.88'
p1999
sS'Love Your Handwriting (Creating Keepsakes)'
p2000
S'3.57'
p2001
sS"The Insider's Guide to 52 Homes in 52 Weeks: Acquire Your Real Estate Fortune Today"
p2002
S'3.86'
p2003
sS'Powderguide: Managing Avalanche Risk'
p2004
S'0.00'
p2005
sS"The Collapse of the Common Good: How America's Lawsuit Culture Undermines Our Freedom"
p2006
S'3.81'
p2007
sS'Mid-Course Correction: Toward a Sustainable Enterprise: The Interface Model'
p2008
S'3.81'
p2009
sS'The Church of Solitude'
p2010
S'3.40'
p2011
sS"The Ultimate Time Machine: A Remote Viewer's Perception of Time & Predictions for the New Millennium"
p2012
S'3.43'
p2013
sS'Little Women (SparkNotes Literature Guide)'
p2014
S'4.03'
p2015
sS'Trump Strategies for Real Estate: Billionaire Lessons for the Small Investor'
p2016
S'4.02'
p2017
sS'The Control of Nature'
p2018
S'4.24'
p2019
sS'Telling Tales on Caesar: Roman Stories from Phaedrus'
p2020
S'3.00'
p2021
sS'Tooth Decay & Cavities'
p2022
S'3.67'
p2023
sS'Blink: The Power of Thinking Without Thinking'
p2024
S'3.89'
p2025
sS'The Untouchables: Subordination, Poverty and the State in Modern India (Contemporary South Asia, #4)'
p2026
S'3.00'
p2027
sS"A Midsummer Night's Dream"
p2028
S'3.94'
p2029
sS'Portrait of the Blue Lady: The Character of Melancholy'
p2030
S'4.00'
p2031
sS'Sailing for Dummies'
p2032
S'3.82'
p2033
sS'The Life of Geoffrey Chaucer: A Critical Biography'
p2034
S'3.52'
p2035
sS'The Last Gentleman (Modern Library)'
p2036
S'3.91'
p2037
sS'Creating Database-Backed Library Web Pages: Using Open Source Tools'
p2038
S'2.00'
p2039
sS'Inventing the Flat Earth: Columbus and Modern Historians'
p2040
S'4.15'
p2041
sS'Phaedrus (Classical Greek Texts)'
p2042
S'3.91'
p2043
sS'Doing Things with Things: The Design and Use of Everyday Objects'
p2044
S'3.00'
p2045
sS'The Essential Euripides'
p2046
S'4.83'
p2047
sS'Amores & Metamorphoses: Selections'
p2048
S'4.22'
p2049
sS'Sherlock Holmes and the Kiss of Death'
p2050
S'2.25'
p2051
sS'Night of the Living Dead'
p2052
S'4.05'
p2053
sS'History of the Peloponnesian War: Bk. 5-6 (Loeb Classical Library)'
p2054
S'4.25'
p2055
sS'Myths of the Underworld Journey: Plato, Aristophanes, and the "Orphic" Gold Tablets'
p2056
S'3.33'
p2057
sS'What to Sell on ebay and Where to Get It: The Definitive Guide to Product Sourcing for eBay and Beyond'
p2058
S'3.53'
p2059
sS'The Complete Short Stories'
p2060
S'4.13'
p2061
sS'The Machine in Ward Eleven'
p2062
S'3.55'
p2063
sS'Everyday Pasta'
p2064
S'4.08'
p2065
sS'Preliterate Period (Greek Literature, Volume 1)'
p2066
S'5.00'
p2067
sS'Aristophanes and His Theatre of the Absurd'
p2068
S'3.43'
p2069
sS'Stephen Hawking: A Life in Science'
p2070
S'3.79'
p2071
sS"The Clan of the Cave Bear, Part 2 of 2 (Earth's Children, #1)"
p2072
S'4.59'
p2073
sS'Stuffed Owl'
p2074
S'3.81'
p2075
sS'Masterwork Studies Series: 100 Years of Solitude'
p2076
S'3.99'
p2077
sS'From a Sabine Jar: Reading Horace, Odes 1.9'
p2078
S'4.00'
p2079
sS'Eclogues and Georgics'
p2080
S'3.84'
p2081
sS'ABCs of Avalanche Safety'
p2082
S'4.33'
p2083
sS'Music with the Brain in Mind'
p2084
S'3.93'
p2085
sS'Wizard: The Life and Times of Nikola Tesla: Biography of a Genius'
p2086
S'3.77'
p2087
sS'Amazing Rain Forest (Discovering the Rain Forest)'
p2088
S'4.33'
p2089
sS'Where Angels Fear to Tread'
p2090
S'3.60'
p2091
sS'The Dharma Bums'
p2092
S'3.94'
p2093
sS"Twain's Huckleberry Finn (Cliffs Notes)"
p2094
S'3.55'
p2095
sS'Wonderous Mushroom: Sacred Mushrooms In Mexico And Mesoamerica.'
p2096
S'4.21'
p2097
sS'Fairy Doll'
p2098
S'4.18'
p2099
sS"The Complete Idiot's Guide to Cashing in On Your Inventions"
p2100
S'3.89'
p2101
sS'Job: A Comedy of Justice'
p2102
S'3.77'
p2103
sS'Bulletproofing NetWare: Solving the 175 Most Common Problems Before They Happen'
p2104
S'0.00'
p2105
sS'Tono-Bungay'
p2106
S'3.44'
p2107
sS'Collected Poems'
p2108
S'3.61'
p2109
sS'Buffett: The Making of an American Capitalist'
p2110
S'4.23'
p2111
sS'Classic Chicago Blues Harp #2'
p2112
S'5.00'
p2113
sS'The Bookclub-in-a-Box Discussion Guide to the book: The Curious Incident of the Dog in the Night-Time'
p2114
S'4.00'
p2115
sS'Birds/Lysistrata/Women at the Thesmophoria (Loeb Classical Library 179)'
p2116
S'4.13'
p2117
sS'A Book of Common Prayer'
p2118
S'3.80'
p2119
sS'History of the Progressive Party, 1912-1916'
p2120
S'0.00'
p2121
sS'Hebrew Illuminations'
p2122
S'3.56'
p2123
sS'eBay Business All-in-One Desk Reference for Dummies'
p2124
S'3.71'
p2125
sS'Libra'
p2126
S'3.97'
p2127
sS'Bookclub-In-A-Box Discusses the Novel the Hours by Michael Cunningham'
p2128
S'5.00'
p2129
sS'On Genesis/A Refutation of the Manichees/The Unfinished Literal Meaning of Genesis (Works of St Augustine 1)'
p2130
S'4.00'
p2131
sS'The Notebook'
p2132
S'4.06'
p2133
sS'The CSS Anthology'
p2134
S'3.83'
p2135
sS'Lord of the Flies (SparkNotes Literature Guides)'
p2136
S'3.36'
p2137
sS'Simply Bruschetta: Garlic Toast the Italian Way'
p2138
S'4.00'
p2139
sS"The Millionaire Next Door: The Surprising Secrets of America's Wealthy"
p2140
S'3.99'
p2141
sS'Time Enough for Love'
p2142
S'3.96'
p2143
sS"Cliffs Notes on Melville's Moby Dick"
p2144
S'3.75'
p2145
sS'Sylvia'
p2146
S'3.96'
p2147
sS'Lysis/Symposium/Gorgias (Loeb Classical Library, #166)'
p2148
S'4.33'
p2149
sS"Brian's Hunt (Brian's Saga, #5)"
p2150
S'4.03'
p2151
sS'The White Album'
p2152
S'4.20'
p2153
sS'The Fall of Hyperion (Hyperion Cantos, #2)'
p2154
S'4.17'
p2155
sS'Euripides: Hippolytus'
p2156
S'3.33'
p2157
sS"Madeleine L'Engle Herself: Reflections on a Writing Life"
p2158
S'4.26'
p2159
sS'Freddy and the Men from Mars'
p2160
S'4.19'
p2161
sS"Observing the User Experience: A Practitioner's Guide to User Research"
p2162
S'3.91'
p2163
sS'The Known World'
p2164
S'3.82'
p2165
sS'Clouds'
p2166
S'3.76'
p2167
sS'So You Think You Know Jane Austen?'
p2168
S'3.68'
p2169
sS'The Coming Economic Collapse: How You Can Thrive When Oil Costs $200 a Barrel'
p2170
S'3.33'
p2171
sS'Designed to Sell: Turn-Of-The-Century American Posters in the Virginia Museum of Fine Arts'
p2172
S'5.00'
p2173
sS'Blink-182: Tales from Beneath Your Mom'
p2174
S'4.42'
p2175
sS'El Capitan: Historic Feats and Radical Routes'
p2176
S'3.83'
p2177
sS'Three Plays by Aristophanes: Lysistrata/Women at the Thesmophoria/Assemblywomen'
p2178
S'3.91'
p2179
sS'The Lion and the Jewel'
p2180
S'3.81'
p2181
sS'Make the Most of Your Windows PC: Easy to Follow Step-By-Step Directions'
p2182
S'0.00'
p2183
sS'Robinson Crusoe (Scholastic Junior Classics)'
p2184
S'3.57'
p2185
sS"The Hitchhiker's Guide to the Galaxy (Hitchhiker's Guide to the Galaxy, #1)"
p2186
S'4.20'
p2187
sS'The Patriarch: The Rise and Fall of the Bingham Dynasty'
p2188
S'3.35'
p2189
sS'Science and Sensibility: The Elegant Logic of the Universe'
p2190
S'3.71'
p2191
sS"The Hitchhiker's Guide to the Galaxy: The Primary Phase (Hitchhiker's Guide: Radio Play, #1)"
p2192
S'4.54'
p2193
sS'A Million Little Pieces of Close to Home: A Close to Home Collection'
p2194
S'4.00'
p2195
sS'The Complete Sherlock Holmes, Vol 2'
p2196
S'4.45'
p2197
sS'Doctor No (James Bond, #6)'
p2198
S'3.76'
p2199
sS'A Prayer for the City'
p2200
S'4.14'
p2201
sS'How to Cook Everything: Holiday Cooking'
p2202
S'3.54'
p2203
sS'Enoch and Daniel: A Form Critical and Sociological Study of the Historical Apocalypses'
p2204
S'0.00'
p2205
sS'The Woodsman and His Hatchet: Eighty Years on Back Country Survival'
p2206
S'3.38'
p2207
sS'Long Way Round: Chasing Shadows Across the World'
p2208
S'3.92'
p2209
sS"Jim Cramer's Mad Money: Watch TV, Get Rich"
p2210
S'3.46'
p2211
sS'The Art of Hunger: Essays, Prefaces, Interviews, The Red Notebook'
p2212
S'3.85'
p2213
sS'Emily of New Moon (Emily, #1)'
p2214
S'4.09'
p2215
sS'The World Treasury of Physics, Astronomy & Mathematics from Albert Einstein to Stephen W. Hawking & from Annie Dillard to John Updike'
p2216
S'4.07'
p2217
sS'Aristophanes: Peace'
p2218
S'3.43'
p2219
sS'The Story of Salt'
p2220
S'4.07'
p2221
sS"The Ethnographer's Eye: Ways of Seeing in Anthropology"
p2222
S'3.57'
p2223
sS"The Phantom Tollbooth: A Children's Play in Two Acts"
p2224
S'4.09'
p2225
sS'The Complete Adventures and Memoirs of Sherlock Holmes'
p2226
S'4.36'
p2227
sS'Advanced Placement Economics: Microeconomics: Student Activities'
p2228
S'4.30'
p2229
sS"The Refining Fire: Herakles and Other Heroes in T.S. Eliot's Works"
p2230
S'0.00'
p2231
sS"Tim O'Brien"
p2232
S'4.20'
p2233
sS'Northern Lights'
p2234
S'3.29'
p2235
sS'Theatre: A Way of Seeing (with InfoTrac)'
p2236
S'4.19'
p2237
sS'Timbuktu'
p2238
S'3.66'
p2239
sS'Once Upon a Cool Motorcycle Dude'
p2240
S'4.12'
p2241
sS'The Histories'
p2242
S'3.96'
p2243
sS'Rooms with a View: The Stages of Community in the Modern Theater'
p2244
S'5.00'
p2245
sS'In Cold Blood'
p2246
S'4.05'
p2247
sS'The Jesus Incident (The Pandora Sequence, #1)'
p2248
S'3.70'
p2249
sS'The Wedding (The Notebook, #2)'
p2250
S'3.98'
p2251
sS'Learn to Program'
p2252
S'4.12'
p2253
sS'Hamlet'
p2254
S'4.00'
p2255
sS'Innovation and the General Manager'
p2256
S'3.95'
p2257
sS"The Player's Handbook: The Ultimate Guide on Dating and Relationships"
p2258
S'3.82'
p2259
sS"New Essays on 'The Portrait of a Lady'"
p2260
S'2.00'
p2261
sS'Una semana de invierno'
p2262
S'3.94'
p2263
sS'Metamorphoses'
p2264
S'4.03'
p2265
sS'Preventing Medication Errors and Improving Drug Therapy Outcomes'
p2266
S'3.00'
p2267
sS'Oxford Guides to Chaucer: The Canterbury Tales'
p2268
S'3.99'
p2269
sS'Max and Me and the Time Machine'
p2270
S'3.95'
p2271
sS'Kentucky Heat'
p2272
S'4.19'
p2273
sS'The Third Chimpanzee: The Evolution & Future of the Human Animal'
p2274
S'4.04'
p2275
sS'Play It as It Lays'
p2276
S'3.86'
p2277
sS'Web Production for Writers and Journalists (Media Skills)'
p2278
S'0.00'
p2279
sS'Healing Feelings...from Your Heart'
p2280
S'4.27'
p2281
sS'The Complete Poetical Works: Volume VI'
p2282
S'4.50'
p2283
sS'First Love, Second Chance'
p2284
S'3.83'
p2285
sS'Fountainhead (Cliffs Notes)'
p2286
S'3.62'
p2287
sS'The Portable Jack Kerouac'
p2288
S'4.09'
p2289
sS'Language and Desire in Seneca\'s "Phaedra"'
p2290
S'3.50'
p2291
sS'The Theory of Everything: The Origin and Fate of the Universe'
p2292
S'4.09'
p2293
sS'The Truth Behind the Da Vinci Code: A Challenging Response to the Bestselling Novel'
p2294
S'3.22'
p2295
sS'Her Pilgrim Soul: And Other Stories'
p2296
S'4.12'
p2297
sS"Phaedrus (World's Classics)"
p2298
S'3.91'
p2299
sS"Christopher Davis's Best Year Yet: Hyperion Chapters; Grade 3"
p2300
S'5.00'
p2301
sS'Fifty Ways to Cook Most Everything: 2500 Creative Solutions to the Daily Dilemma of What to Cook'
p2302
S'3.75'
p2303
sS'Men Are from Mars, Women Are from Venus'
p2304
S'3.51'
p2305
sS'Bone Sharps, Cowboys, and Thunder Lizards: Edward Drinker Cope, Othniel Charles Marsh, and the Gilded Age of Paleontology'
p2306
S'3.54'
p2307
sS'American Government: Continuity And Change'
p2308
S'2.83'
p2309
sS"Developing Tactics for Listening Teacher's Book"
p2310
S'4.45'
p2311
sS'Destroy, She Said'
p2312
S'3.71'
p2313
sS"Homer's Text and Language"
p2314
S'4.50'
p2315
sS'Baby Signing For Dummies'
p2316
S'3.60'
p2317
sS"Programming Ruby: The Pragmatic Programmers' Guide"
p2318
S'4.06'
p2319
sS'War and Peace'
p2320
S'4.10'
p2321
sS'The October Horse: A Novel of Caesar and Cleopatra (Masters of Rome, #6)'
p2322
S'4.26'
p2323
sS'Den of Thieves (Cat Royal, #3)'
p2324
S'4.21'
p2325
sS'Aristophanes: Clouds, Acharnians, Lysistrata: A Companion to the Penguin Translation of A.H.Sommerstein'
p2326
S'4.33'
p2327
sS'Time To Be In Earnest: A Fragment Of Autobiography'
p2328
S'3.92'
p2329
sS'Vice & Virtue in Everyday Life: Introductory Readings in Ethics'
p2330
S'3.84'
p2331
sS'Plato I: Euthyphro. Apology. Crito. Phaedo. Phaedrus. (Loeb Classical Library, #36)'
p2332
S'4.31'
p2333
sS'Typographic Design: Form and Communication'
p2334
S'4.07'
p2335
sS'Emergence: Labeled Autistic'
p2336
S'4.08'
p2337
sS'I am Charlotte Simmons'
p2338
S'3.40'
p2339
sS'Little Women'
p2340
S'4.03'
p2341
sS'Ten Colloquies'
p2342
S'3.59'
p2343
sS'Bacchae'
p2344
S'3.85'
p2345
sS'All My Tomorrows (The Orphan Trains Trilogy, #2)'
p2346
S'4.01'
p2347
sS'The Heidi Chronicles'
p2348
S'3.73'
p2349
sS'A Million Little Lies'
p2350
S'3.38'
p2351
sS'Natural Resource Conservation: Management for a Sustainable Future'
p2352
S'3.25'
p2353
sS"The Insider's Guide to Tax-Free Real Estate Investments: Retire Rich Using Your IRA"
p2354
S'2.67'
p2355
sS'Sun Tzu Strategies for Selling: How to Use the Art of War to Build Lifelong Customer Relationships: How to Use the Art of War to Build Lifelong Customer Relationships'
p2356
S'3.47'
p2357
sS"Playing the REITs Game: Asia's New Real Estate Investment Trusts"
p2358
S'2.40'
p2359
sS'The Denial of Death'
p2360
S'4.20'
p2361
sS'Starting an eBay Business for Dummies'
p2362
S'3.50'
p2363
sS"Chasing Lance: The 2005 Tour de France and Lance Armstrong's Ride of a Lifetime"
p2364
S'3.47'
p2365
sS"Pindar's Homer: The Lyric Possession of An Epic Past"
p2366
S'4.62'
p2367
sS'The Fall of Hyperion'
p2368
S'4.17'
p2369
sS'The Journals of Ayn Rand'
p2370
S'3.96'
p2371
sS"Shakespeare Set Free: Teaching Romeo & Juliet, Macbeth & Midsumr Night'"
p2372
S'4.23'
p2373
sS'Radiology for Anaesthesia and Intensive Care'
p2374
S'0.00'
p2375
sS'The Odyssey'
p2376
S'3.72'
p2377
sS'Think and Grow Rich'
p2378
S'4.16'
p2379
sS'The Last Life'
p2380
S'3.55'
p2381
sS'Antigone / Oedipus the King / Electra'
p2382
S'3.93'
p2383
sS'A Wrinkle in Time (A Wrinkle in Time Quintet, #1)'
p2384
S'4.04'
p2385
sS'Euripides IV: Rhesus/The Suppliant Women/Orestes/Iphigenia in Aulis'
p2386
S'4.20'
p2387
sS'The Best of Twain, 8 Vols'
p2388
S'4.08'
p2389
sS'The Beloved: Reflections on the Path of the Heart'
p2390
S'4.18'
p2391
sS'Introducing Stephen Hawking'
p2392
S'3.71'
p2393
sS'The Portrait of a Lady'
p2394
S'3.76'
p2395
sS'Katherine Paterson'
p2396
S'0.00'
p2397
sS"The Complete Idiot's Guide to Getting Things Done"
p2398
S'4.00'
p2399
sS"The Hitchhiker's Guide to Lean: Lessons from the Road"
p2400
S'3.73'
p2401
sS'Learning to Sail: The Annapolis Sailing School Guide for Youlearning to Sail: The Annapolis Sailing School Guide for Young Sailors of All Ages Ng Sailors of All Ages'
p2402
S'4.00'
p2403
sS'Medea and Other Plays'
p2404
S'3.98'
p2405
sS'The Custom of the Country'
p2406
S'4.01'
p2407
sS'Chord Workbook for Guitar Volume One'
p2408
S'4.00'
p2409
sS'Moneyball: The Art of Winning an Unfair Game'
p2410
S'4.24'
p2411
sS'The Changeling (Daughters of England, #15)'
p2412
S'3.95'
p2413
sS'Essential Jazz: The First 100 Years (with CD-ROM)'
p2414
S'4.46'
p2415
sS'Bleach ("Si Shen") (Volume 1)'
p2416
S'4.21'
p2417
sS'Beth Makes a Friend (Portraits of Little Women)'
p2418
S'3.76'
p2419
sS'The Oresteia'
p2420
S'3.99'
p2421
sS"Expanding Tactics for Listening Teacher's Book"
p2422
S'4.80'
p2423
sS'The Cobweb'
p2424
S'3.59'
p2425
sS'Dialogue and Deviance: Male-Male Desire in the Dialogue Genre (Plato to the Middle Ages, Plato to the Enlightenment, Plato to the Postmodern)'
p2426
S'0.00'
p2427
sS"Harry Potter and the Sorcerer's Stone (Harry Potter, #1)"
p2428
S'4.44'
p2429
sS'The Thorn Birds'
p2430
S'4.21'
p2431
sS'Kare First Love, Vol. 10 (Kare First Love, #10)'
p2432
S'4.12'
p2433
sS"Dicing with Di: The Amazing Adventures of Britain's Royal Watchers"
p2434
S'3.50'
p2435
sS'Flash to the Core: An Interactive Sketchbook by Joshua Davis'
p2436
S'4.25'
p2437
sS"Betty Crocker's Diabetes Cookbook: Everyday Meals Easy as 1-2-3"
p2438
S'3.68'
p2439
sS"America's Mayor: The Hidden History of Rudy Giuliani's New York"
p2440
S'3.50'
p2441
sS'Make the Most of Your Digital Photos, Video, & Music'
p2442
S'0.00'
p2443
sS"Melville's Moby Dick: An American Nekyia (Studies in Jungian Psychology by Jungian Analysts)"
p2444
S'3.71'
p2445
sS'Invisible Engines: How Software Platforms Drive Innovation and Transform Industries'
p2446
S'3.72'
p2447
sS'Persuasion'
p2448
S'4.13'
p2449
sS'The Lady and the Unicorn'
p2450
S'3.67'
p2451
sS'Barbarians inside the Gates and Other Controversial Essays'
p2452
S'4.07'
p2453
sS'Men Are from Mars, Women Are from Venus: A Practical Guide for Improving Communication and Getting What You Want in Relationships'
p2454
S'3.51'
p2455
sS'Maybe You Never Cry Again'
p2456
S'4.18'
p2457
sS'Alcoholics Anonymous: The Story of How Many Thousands of Men and Women Have Recovered from Alcoholism'
p2458
S'4.43'
p2459
sS"Murder at Ford's Theatre (Capital Crimes, #19)"
p2460
S'3.67'
p2461
sS'The Vice Guide to Sex and Drugs and Rock and Roll'
p2462
S'4.07'
p2463
sS'Drina Dances in Paris (Drina, #7)'
p2464
S'4.13'
p2465
sS'God, Time, & Stephen Hawking'
p2466
S'4.00'
p2467
sS'Oral and Written Communication: Historical Approaches'
p2468
S'0.00'
p2469
sS'The Confessions of Saint Augustine'
p2470
S'3.88'
p2471
sS'Theocritus: Idylls'
p2472
S'3.77'
p2473
sS"Theatrical Space and Historical Place in Sophocles' Oedipus at Colonus"
p2474
S'4.00'
p2475
sS'Daniel Deronda, V1'
p2476
S'4.24'
p2477
sS'Buddhism Pure and Simple'
p2478
S'4.33'
p2479
sS'On Beyond Zebra!'
p2480
S'4.05'
p2481
sS'Member of the Club: Reflections on Life in a Racially Polarized World'
p2482
S'3.69'
p2483
sS'Body Piercing Saved My Life: Inside the Phenomenon of Christian Rock'
p2484
S'3.62'
p2485
sS'Purpose Driven Life'
p2486
S'3.89'
p2487
sS"Gentleman's Guide to Toasting"
p2488
S'3.00'
p2489
sS'The Exp 48 Laws of Power'
p2490
S'4.17'
p2491
sS'Sophocles Plays 2: Ajax, Women of Trachis, Electra, Philoctetes'
p2492
S'4.12'
p2493
sS'Goodbye Mr. Chips'
p2494
S'3.94'
p2495
sS'Jeff Koons/Andy Warhol: Flowers'
p2496
S'4.25'
p2497
sS'Roman Period (Greek Literature, Volume 6)'
p2498
S'4.00'
p2499
sS'Martini, Straight Up: The Classic American Cocktail'
p2500
S'3.62'
p2501
sS'The Emergence of Life on Earth: A Historical and Scientific Overview'
p2502
S'3.91'
p2503
sS'Peace'
p2504
S'3.64'
p2505
sS'Pompeii: Monuments Past and Present'
p2506
S'4.17'
p2507
sS'Sea of Stones'
p2508
S'0.00'
p2509
sS'Girl With a Pearl Earring'
p2510
S'3.84'
p2511
sS'Chapterhouse: Dune (Dune Chronicles #6)'
p2512
S'3.88'
p2513
sS'First Love'
p2514
S'3.79'
p2515
sS'Flesh and Blood'
p2516
S'4.00'
p2517
sS'Dune Messiah (Dune Chronicles #2)'
p2518
S'3.85'
p2519
sS'Buzz Marketing with Blogs for Dummies'
p2520
S'3.47'
p2521
sS'Texas Heat (Texas, #2)'
p2522
S'4.17'
p2523
sS'The Alpine Path: The Story of My Career'
p2524
S'3.80'
p2525
sS'Is Reality Optional?: And Other Essays'
p2526
S'4.27'
p2527
sS'What Every Fidelity Investor Needs to Know'
p2528
S'4.00'
p2529
sS'Phaedrus-Kommentar'
p2530
S'0.00'
p2531
sS'The Dry Danube: A Hitler Forgery'
p2532
S'3.92'
p2533
sS'Best of London (Lonely Planet Best Of)'
p2534
S'4.25'
p2535
sS'Eating for Life: Your Guide to Great Health, Fat Loss and Increased Energy!'
p2536
S'3.94'
p2537
sS'Killing Yourself To Live'
p2538
S'3.85'
p2539
sS'Chicago Blues Guitar (Guitar Books)'
p2540
S'3.00'
p2541
sS'Fullmetal Alchemist, Vol. 8 (Fullmetal Alchemist, #8)'
p2542
S'4.58'
p2543
sS'Pastoral Prayers in Public Places'
p2544
S'3.50'
p2545
sS'The Trust: The Private and Powerful Family behind the New York Times'
p2546
S'3.92'
p2547
sS'Wild Fire (John Corey, #4)'
p2548
S'3.98'
p2549
sS'100 Bullshit Jobs...And How to Get Them'
p2550
S'3.14'
p2551
sS'Colorado Springs Notes, 1899-1900'
p2552
S'4.07'
p2553
sS"The Poet's Voice: Essays on Poetics and Greek Literature"
p2554
S'4.00'
p2555
sS'We the Living'
p2556
S'3.88'
p2557
sS"Mel Bay's Guide to Guitar Chord Progression"
p2558
S'0.00'
p2559
sS"Douglas Adams's Starship Titanic"
p2560
S'3.56'
p2561
sS'Leadership in Organizations'
p2562
S'3.64'
p2563
sS'The Buccaneers'
p2564
S'3.89'
p2565
sS'Team of Rivals: The Political Genius of Abraham Lincoln'
p2566
S'4.30'
p2567
sS'Death in Holy Orders (Adam Dalgliesh, #11)'
p2568
S'3.90'
p2569
sS'Supreme Power: Hyperion'
p2570
S'3.44'
p2571
sS'Lysistrata (Clarendon)'
p2572
S'3.84'
p2573
sS'The Great Bridge: The Epic Story of the Building of the Brooklyn Bridge'
p2574
S'4.22'
p2575
sS"Warren Buffett Wealth: Principles and Practical Methods Used by the World's Greatest Investor"
p2576
S'4.00'
p2577
sS"Gorgias (World's Classics)"
p2578
S'3.90'
p2579
sS'Theocritus: A Selection: Idylls 1, 3, 4, 6, 7, 10, 11 and 13'
p2580
S'4.08'
p2581
sS'The Five Love Languages of Teenagers'
p2582
S'4.12'
p2583
sS'A History of the World in 6 Glasses'
p2584
S'3.74'
p2585
sS'On Love and Death'
p2586
S'3.59'
p2587
sS'The Heart of the Matter'
p2588
S'3.98'
p2589
sS'A Brief History of the Western World, Volume I: To 1715 (with CD-ROM and InfoTrac)'
p2590
S'3.27'
p2591
sS"Selected Themes from the Motion Picture Harry Potter and the Sorcerer's Stone (Solo, Duet, Trio): Flute"
p2592
S'4.36'
p2593
sS'Later Works'
p2594
S'4.12'
p2595
sS'Twenty Four Hours A Day: Meditations'
p2596
S'4.57'
p2597
sS'Frances Hodgson Burnett: The Unexpected Life of the Author of the Secret Garden'
p2598
S'3.85'
p2599
sS'Greek Tragedies, Vol. 2: Aeschylus: The Libation Bearers; Sophocles: Electra; Euripides: Iphigenia in Tauris, Electra, The Trojan Women'
p2600
S'4.24'
p2601
sS'Bullshit Artist: The 9/11 Leadership Myth'
p2602
S'4.50'
p2603
sS'Black Rednecks & White Liberals'
p2604
S'4.26'
p2605
sS'Winds of Change (The Story Girl #8)'
p2606
S'3.86'
p2607
sS'Shakespeare and the Denial of Death'
p2608
S'4.00'
p2609
sS'The 7 Habits of Highly Effective People'
p2610
S'4.03'
p2611
sS'The Da Vinci Code: Fact or Fiction?'
p2612
S'3.67'
p2613
sS'Assessment in Special Education: A Practical Approach'
p2614
S'3.32'
p2615
sS'Disappearances'
p2616
S'3.25'
p2617
sS"Melville's Short Novels: Authoritative Texts, Contexts, Criticism"
p2618
S'4.00'
p2619
sS'The Story of Holly and Ivy'
p2620
S'4.22'
p2621
sS'Suppliant Maidens/Persians/Prometheus/Seven Against Thebes (Loeb Classical Library 145)'
p2622
S'4.05'
p2623
sS'Love As A Foreign Language #5'
p2624
S'3.83'
p2625
sS'Double Tap (Paul Madriani, #8)'
p2626
S'3.89'
p2627
sS'The Voice of Reason: Essays in Objectivist Thought'
p2628
S'4.11'
p2629
sS'Government in America: People, Politics, and Policy'
p2630
S'3.28'
p2631
sS'Farmer Giles of Ham'
p2632
S'3.82'
p2633
sS'Web-Based Instruction: A Guide for Libraries'
p2634
S'3.75'
p2635
sS'The Millionaire Next Door'
p2636
S'3.99'
p2637
sS'Bulletproof Your PC Network: Solving the 210 Most Common Problems Before They Happen'
p2638
S'0.00'
p2639
sS'Trevanian: Four Complete Novels: The Eiger Sanction / The Loo Sanction / The Main / Shibumi'
p2640
S'4.34'
p2641
sS'A History of God: The 4,000-Year Quest of Judaism, Christianity, and Islam'
p2642
S'3.85'
p2643
sS"Blood Stripes: The Grunt's View of the War in Iraq"
p2644
S'4.00'
p2645
sS'Nickel and Dimed'
p2646
S'3.60'
p2647
sS'The Plastic Film and Foil Web Handling Guide'
p2648
S'4.00'
p2649
sS'New York Nights (Virex Trilogy, #1)'
p2650
S'3.52'
p2651
sS"L'Histoire de Pi"
p2652
S'3.88'
p2653
sS'Hospital Sketches'
p2654
S'3.61'
p2655
sS'Anna Karenina'
p2656
S'4.02'
p2657
sS'Iceland: Land of the Sagas'
p2658
S'3.71'
p2659
sS'Cover Her Face (Adam Dalgliesh #1)'
p2660
S'3.94'
p2661
sS'Walk in the Light & Twenty-Three Tales'
p2662
S'4.13'
p2663
sS"Secrets of the Alchemist Dar (A Treasure's Trove)"
p2664
S'3.72'
p2665
sS'The Oedipus Plays of Sophocles'
p2666
S'3.96'
p2667
sS'Harry Potter Collection (Harry Potter, #1-6)'
p2668
S'4.73'
p2669
sS'Four Plays: The Clouds/The Birds/Lysistrata/The Frogs'
p2670
S'4.06'
p2671
sS'Flat Earth? Round Earth?'
p2672
S'5.00'
p2673
sS'Sailing Smart: Winning Techniques, Tactics, And Strategies'
p2674
S'4.00'
p2675
sS'African Rock Art: Paintings and Engravings on Stone'
p2676
S'5.00'
p2677
sS'The Five Love Languages Faux Leather Bound Journal and Paperback Book Set (Amazon.com Exclusive)'
p2678
S'4.60'
p2679
sS'The Design of Everyday Things'
p2680
S'4.18'
p2681
sS'Ruby Cookbook'
p2682
S'3.76'
p2683
sS'The Future of Freedom: Illiberal Democracy at Home and Abroad'
p2684
S'3.99'
p2685
sS'Personal Bankruptcy Laws for Dummies'
p2686
S'3.38'
p2687
sS'Think and Grow Rich!'
p2688
S'4.16'
p2689
sS'Best of Ruby Quiz Volume One'
p2690
S'3.42'
p2691
sS'Finding Yourself in India'
p2692
S'0.00'
p2693
sS'Oresteia'
p2694
S'3.99'
p2695
sS'Aeschylus 2: The Persians/Seven Against Thebes/The Suppliants/Prometheus Bound'
p2696
S'4.05'
p2697
sS'Fullmetal Alchemist, Vol. 4 (Fullmetal Alchemist, #4)'
p2698
S'4.56'
p2699
sS'Complete Giuliani Studies'
p2700
S'4.00'
p2701
sS'The Little Steamroller'
p2702
S'3.58'
p2703
sS'Raising Smart Kids for Dummies'
p2704
S'3.50'
p2705
sS'Jungle Love'
p2706
S'3.33'
p2707
sS'Untouchable'
p2708
S'3.68'
p2709
sS'Tenth Man'
p2710
S'0.00'
p2711
sS"Applying Sun Tzu's Art Of War In Marketing"
p2712
S'4.00'
p2713
sS'Gorgias, Sophist, and Artist'
p2714
S'3.00'
p2715
sS"Sex, Drugs and DNA: Science's Taboos Confronted"
p2716
S'3.63'
p2717
sS"Virgil's Aeneid: Interpretation and Influence"
p2718
S'4.33'
p2719
sS'New York Trilogy   Whodunit?'
p2720
S'0.00'
p2721
sS"Masterpieces of Illumination: Codices Illustres the World's Most Famous Illuminated Manuscripts 400 to 1600"
p2722
S'4.50'
p2723
sS'Drina Dances in Switzerland (Drina, #9)'
p2724
S'4.03'
p2725
sS'A Little Original Sin: The Life and Work of Jane Bowles'
p2726
S'4.11'
p2727
sS'Art for Public Places: Critical Essays'
p2728
S'0.00'
p2729
sS'Grace Givers: Amazing Stories of Grace in Action'
p2730
S'3.94'
p2731
sS'Execution: The Discipline of Getting Things Done'
p2732
S'3.83'
p2733
sS'Conversations with J.K. Rowling'
p2734
S'3.96'
p2735
sS'Seven Mansions of Color'
p2736
S'3.86'
p2737
sS'An Avalanche of Anoraks'
p2738
S'3.75'
p2739
sS'Purpose Driven Life Journal: What on Earth Am I Here For?'
p2740
S'4.20'
p2741
sS'A Mind To Murder (Adam Dalgliesh, #2)'
p2742
S'3.82'
p2743
sS'Against the Odds: Tales of Achievement'
p2744
S'3.79'
p2745
sS"Brian's Winter"
p2746
S'3.98'
p2747
sS'The Canterbury Tales (original-spelling edition)'
p2748
S'3.48'
p2749
sS'The Great House of God'
p2750
S'4.23'
p2751
sS'Principles of Virology: Molecular Biology, Pathogenesis, and Control'
p2752
S'4.38'
p2753
sS'Short History of Syriac Literature'
p2754
S'3.25'
p2755
sS'Velvet: A Novel of Suspense'
p2756
S'2.20'
p2757
sS'Growing Givers Hearts'
p2758
S'3.66'
p2759
sS'Middlesex'
p2760
S'3.97'
p2761
sS'Eclogues. Georgics. Aeneid: Books 1-6'
p2762
S'4.25'
p2763
sS'First Love: Renewing Your Passion for God'
p2764
S'4.21'
p2765
sS'Galileo, Darwin, and Hawking: The Interplay of Science, Reason, and Religion'
p2766
S'3.62'
p2767
sS'Tim'
p2768
S'3.79'
p2769
sS'The Birds (Methuen Drama)'
p2770
S'2.67'
p2771
sS'The Trust: The Private and Powerful Family Behind The New York Times'
p2772
S'3.92'
p2773
sS'Behind the Couch'
p2774
S'3.78'
p2775
sS'Otis Lee Crenshaw: I Blame Society'
p2776
S'3.94'
p2777
sS'Pat of Silver Bush (Pat, #1)'
p2778
S'3.87'
p2779
sS'The Guitar Chord Deck'
p2780
S'0.00'
p2781
sS'Dating For Dummies'
p2782
S'3.13'
p2783
sS'The Stories of Mary Gordon'
p2784
S'3.95'
p2785
sS'Ft-D Hammett: A Life'
p2786
S'3.82'
p2787
sS'The Collapse of Evolution'
p2788
S'4.07'
p2789
sS'Heaven and Other Poems'
p2790
S'3.87'
p2791
sS'A Killing Rain (Louis Kincaid, #6)'
p2792
S'4.01'
p2793
sS'Cool Names for Babies'
p2794
S'3.40'
p2795
sS'The Madman'
p2796
S'4.11'
p2797
sS'The Story of Inventions'
p2798
S'3.61'
p2799
sS'Love Letters'
p2800
S'3.56'
p2801
sS"A Sentimental Education: The Story of a Young Man (World's Classics)"
p2802
S'3.83'
p2803
sS"Chaucer's Canterbury Tales"
p2804
S'3.48'
p2805
sS'Old Man and the Sea'
p2806
S'3.72'
p2807
sS'Parzival: The Quest of the Grail Knight'
p2808
S'3.18'
p2809
sS'Suppliant Women: Suppliant Women, Electra, Heracles (Loeb Classical Library): Suppliant Women, Electra, Heracles, Trojan Women'
p2810
S'4.46'
p2811
sS'On The Road'
p2812
S'3.64'
p2813
sS"Edward Lear's Nonsense Verse"
p2814
S'3.74'
p2815
sS'The Curious Incident of the Dog in the Night-time'
p2816
S'3.85'
p2817
sS'In the Land of White Death: An Epic Story of Survival in the Siberian Arctic'
p2818
S'3.97'
p2819
sS'The First Assistant: A Continuing Tale from Behind the Hollywood Curtain'
p2820
S'3.64'
p2821
sS'Stranger Than Fiction'
p2822
S'5.00'
p2823
sS'Fast Food Nation: The Dark Side of the All-American Meal'
p2824
S'3.73'
p2825
sS'The Warren Buffett CEO: Secrets from the Berkshire Hathaway Managers'
p2826
S'3.97'
p2827
sS'Advanced Mathematical Economics'
p2828
S'3.67'
p2829
sS"Children's Songs: Guitar Chord Songbook"
p2830
S'0.00'
p2831
sS'The Sea'
p2832
S'3.49'
p2833
sS'Dashiell Hammett Une VI'
p2834
S'3.82'
p2835
sS'Twelve Steps For Overeaters: An Interpretation Of The Twelve Steps Of Overeaters Anonymous'
p2836
S'3.19'
p2837
sS'First Love & Look for My Obituary: Two Novellas by Elena Garro'
p2838
S'3.80'
p2839
sS'French Ways and Their Meaning'
p2840
S'3.70'
p2841
sS'Eric Meyer on CSS: Mastering the Language of Web Design with Cascading Style Sheets'
p2842
S'4.13'
p2843
sS'LA Guerra De LA Mercadotecnia (Marketing Warfare)'
p2844
S'4.09'
p2845
sS'Sir Gawain and the Green Knight'
p2846
S'3.68'
p2847
sS"Down at Theresa's: Chicago Blues: The Photographs of Marc PoKempner"
p2848
S'4.00'
p2849
sS'Thucydides: An Introduction for the Common Reader'
p2850
S'3.79'
p2851
sS'The Sixteen Pleasures'
p2852
S'3.57'
p2853
sS"Loving and Dying: A Reading of Plato's Phaedo, Symposium, and Phaedrus"
p2854
S'4.67'
p2855
sS'Storage (Chic Simple) (Chic Simple Components)'
p2856
S'2.83'
p2857
sS'The Year of the Death of Ricardo Reis'
p2858
S'4.04'
p2859
sS'Hardy Boys Boxed Set 1-6'
p2860
S'4.04'
p2861
sS'The Bacchae and Other Plays'
p2862
S'4.12'
p2863
sS"Don DeLillo's White Noise (Bloom's Modern Critical Interpretations)"
p2864
S'3.65'
p2865
sS'The Life of Graham Greene: Volume II: 1939-1955'
p2866
S'4.11'
p2867
sS'Democracy Without Citizens: Media and the Decay of American Politics'
p2868
S'3.60'
p2869
sS'Artesia: Adventures in the Known World'
p2870
S'4.10'
p2871
sS'Steering a New Course: Transportation, Energy, and the Environment'
p2872
S'0.00'
p2873
sS'The Long Tail:  Why The Future Is Selling Less Of More'
p2874
S'3.83'
p2875
sS'Incredible Chord Finder: Easy-to-Use Guide to Over 1,100 Guitar Chords'
p2876
S'3.77'
p2877
sS'Picture Chord Encyclopedia: Photos and Diagrams for 2,600 Guitar Chords!'
p2878
S'4.39'
p2879
sS'Help Yourself Get Everything Done'
p2880
S'3.83'
p2881
sS"The Omnivore's Dilemma: A Natural History of Four Meals"
p2882
S'4.17'
p2883
sS'Essence and Alchemy: A Book of Perfume'
p2884
S'4.04'
p2885
sS'The Annotated Pride & Prejudice'
p2886
S'4.24'
p2887
sS"Stylin' with CSS: A Designer's Guide"
p2888
S'3.76'
p2889
sS'Trends in Mathematical Physics: Proceedings of the Conference on Trends in Mathematical Physics, October 14-17, 1998, University of Tennessee, Knoxville'
p2890
S'3.00'
p2891
sS'Lo mejor de Londres (Lonely Planet Best Of)'
p2892
S'4.25'
p2893
sS"Mahatma Gandhi and His Myths: Civil Disobedience, Nonviolence, and Satyagraha in the Real World (Plus Why It's Gandhi, Not Ghandi)"
p2894
S'3.62'
p2895
sS'Control and Subversion: Gender Relations  in Tajikistan'
p2896
S'4.33'
p2897
sS"Investing Without Losing: The Beginner's Guide to Real Estate Tax Lien and Tax Deed Auctions"
p2898
S'5.00'
p2899
sS'The Three-Martini Playdate: A Practical Guide to Happy Parenting'
p2900
S'3.72'
p2901
sS'A Colorful Symphony: Full Score'
p2902
S'0.00'
p2903
sS'Euripides II: The Cyclops/Heracles/Iphigenia in Tauris/Helen'
p2904
S'4.30'
p2905
sS'Antigone'
p2906
S'3.60'
p2907
sS'The Lira Da Braccio'
p2908
S'0.00'
p2909
sS'For the Good of the Earth and Sun: Teaching Poetry'
p2910
S'4.19'
p2911
sS'Iphigenia in Aulis'
p2912
S'3.99'
p2913
sS'A Journal of the Plague Year'
p2914
S'3.54'
p2915
sS'Aeneid: Hero, War, Humanity'
p2916
S'4.14'
p2917
sS'The Jane Austen Book Club'
p2918
S'3.06'
p2919
sS'The Structure of Old Norse "Drottkvaett" Poetry'
p2920
S'4.00'
p2921
sS'Erasmus and the Age of Reformation'
p2922
S'3.91'
p2923
sS'Wild at Heart Field Manual: A Personal Guide to Discover the Secret of Your Masculine Soul'
p2924
S'3.99'
p2925
sS'Some of the Funniest Things Happen in the Most Unlikely and Unexpected Places'
p2926
S'0.00'
p2927
sS'Guitar Chords for Beginners'
p2928
S'0.00'
p2929
sS"Rhetoric, Comedy, and the Violence of Language in Aristophanes' Clouds"
p2930
S'4.00'
p2931
sS'Aspects of the Novel'
p2932
S'3.83'
p2933
sS'Drina Dances in Exile (Drina, #3)'
p2934
S'4.12'
p2935
sS'The Evidence-Based Social Work Skills Book'
p2936
S'2.33'
p2937
sS'55,000+ Baby Names'
p2938
S'3.47'
p2939
sS'Wild Things: The Material Culture of Everyday Life'
p2940
S'3.67'
p2941
sS"The World's First Love: Mary, Mother of God"
p2942
S'4.58'
p2943
sS'Secrets of the Snow: Visual Clues to Avalanche and Ski Conditions'
p2944
S'4.50'
p2945
sS'The Complete Nonsense of Edward Lear'
p2946
S'4.03'
p2947
sS'Sun Tzu and the Art of Business: Six Strategic Principles for Managers'
p2948
S'3.78'
p2949
sS'Sherlock Holmes: The Lost Cases'
p2950
S'4.00'
p2951
sS'The Collapse of Complex Societies'
p2952
S'4.14'
p2953
sS'Hiroshima Mon Amour'
p2954
S'3.92'
p2955
sS"The Tragedy of Pudd'nhead Wilson"
p2956
S'3.74'
p2957
sS'Trade Like Warren Buffett'
p2958
S'3.57'
p2959
sS'Rails Recipes'
p2960
S'3.53'
p2961
sS'The Rescue (Kidnapped, #3)'
p2962
S'4.10'
p2963
sS'Grief, Dying, & Death'
p2964
S'4.20'
p2965
sS'The Secret Family: Twenty-Four Hours Inside the Mysterious World of Our Minds and Bodies'
p2966
S'4.13'
p2967
sS'The Bucaneers'
p2968
S'3.89'
p2969
sS'The Birth of Tragedy and Other Writings (History of Philosophy)'
p2970
S'4.00'
p2971
sS'Vegas Heat (Vegas, #2)'
p2972
S'4.20'
p2973
sS'Language, Sexuality, Narrative: The Oresteia'
p2974
S'3.33'
p2975
sS'The History of Sexuality, Volume 3: The Care of the Self'
p2976
S'4.06'
p2977
sS'The Inner Game of Tennis: The Classic Guide to the Mental Side of Peak Performance'
p2978
S'4.22'
p2979
sS'Journey Without Maps'
p2980
S'3.60'
p2981
sS'ebay Timesaving Techniques for Dummies'
p2982
S'3.13'
p2983
sS"Cliffs Notes on Aristophanes' Lysistrata, The Birds, The Clouds, The Frogs"
p2984
S'3.00'
p2985
sS'China Court: The Hours of a Country House'
p2986
S'4.12'
p2987
sS'Bleach, Volume 15'
p2988
S'4.41'
p2989
sS'Bleach, Volume 14'
p2990
S'4.38'
p2991
sS'Bleach, Volume 12'
p2992
S'4.36'
p2993
sS'Amazons'
p2994
S'3.61'
p2995
sS'The Modern Falconer: Training, Hawking & Breeding'
p2996
S'3.00'
p2997
sS"Ruby Ann's Down Home Trailer Park Holiday Cookbook"
p2998
S'3.87'
p2999
sS'Augustine: Ancient Thought Baptized'
p3000
S'4.33'
p3001
sS'The Portable Henry James'
p3002
S'3.79'
p3003
sS'Moby Dick (Complete And Unabridged)'
p3004
S'3.46'
p3005
sS'Sex, Drugs & Economics: An Unconventional Introduction to Economics'
p3006
S'3.53'
p3007
sS'Book of Sketches'
p3008
S'3.78'
p3009
sS'Personal Finance For Dummies'
p3010
S'3.71'
p3011
sS'A Brief History of Time'
p3012
S'4.11'
p3013
sS'Bridge to Terabithia Study Guide'
p3014
S'5.00'
p3015
sS'Marketing Warfare'
p3016
S'4.09'
p3017
sS'Decadent'
p3018
S'2.89'
p3019
sS'From Russia With Love/Moonraker'
p3020
S'3.89'
p3021
sS'Staying Clean: Living Without Drugs'
p3022
S'4.33'
p3023
sS"Euripides' Bacchae, Focus Classical Library (Focus Classical Library)"
p3024
S'3.72'
p3025
sS'Hesiod II: The Shield. Catalogue of Women. Other Fragments. (Loeb Classical Library, #503)'
p3026
S'4.00'
p3027
sS'The Articulate Executive in Action: How the Best Leaders Get Things Done'
p3028
S'4.33'
p3029
sS'The Intentional Stance'
p3030
S'4.00'
p3031
sS'Hyperion Cantos: Hyperion / The Fall of Hyperion'
p3032
S'4.39'
p3033
sS'The Fountainhead'
p3034
S'3.85'
p3035
sS'Execution: The Discipline Of Getting Things Done'
p3036
S'3.83'
p3037
sS'What Every Investor Needs to Know about Accounting Fraud'
p3038
S'3.56'
p3039
sS'The Power and the Glory'
p3040
S'3.99'
p3041
sS'A Circle of Quiet (Crosswicks Journals #1)'
p3042
S'4.22'
p3043
sS'The Canterbury Tales: Volume III'
p3044
S'3.17'
p3045
sS'The Bible Lessons of John Quincy Adams for His Son'
p3046
S'3.71'
p3047
sS'Who Needs Greek? Contests in the Cultural History of Hellenism'
p3048
S'3.38'
p3049
sS'The Languages of Aristophanes: Aspects of Linguistic Variation in Classical Attic Greek'
p3050
S'5.00'
p3051
sS'My First Love and Other Disasters'
p3052
S'3.64'
p3053
sS'Secret of the Peaceful Warrior'
p3054
S'4.13'
p3055
sS'Murder by Moonlight & Other Mysteries (New Adventures of Sherlock Holmes 19-24)'
p3056
S'4.00'
p3057
sS'The Story of Mr Sommer'
p3058
S'3.89'
p3059
sS'Los Cinco Lenguajes Del Amor/the Five Languages of Love'
p3060
S'4.22'
p3061
sS'Camp Cooking: 100 Years The National Museum of Forest Service History'
p3062
S'4.38'
p3063
sS'Phaedrus/Apology/Crito/Symposium'
p3064
S'4.00'
p3065
sS"The Unity of Plato's Gorgias: Rhetoric, Justice, and the Philosophic Life"
p3066
S'5.00'
p3067
sS"Bookclub in a Box Discusses Khaled Hosseini's Novel The Kite Runner"
p3068
S'4.17'
p3069
sS'The Enchanted April (1922)'
p3070
S'3.98'
p3071
sS'Dragonball'
p3072
S'4.61'
p3073
sS'Vice (V, #8)'
p3074
S'3.51'
p3075
sS'Hippolytus'
p3076
S'3.80'
p3077
sS'How to Succeed with Men'
p3078
S'2.92'
p3079
sS'The J.K. Rowling Encyclopedia'
p3080
S'4.29'
p3081
sS'Self'
p3082
S'3.39'
p3083
sS'No Excuses: Antonio Sabato Jr. Workout For Life'
p3084
S'3.44'
p3085
sS'From Beirut to Jerusalem'
p3086
S'4.10'
p3087
sS'Old Dry Frye'
p3088
S'4.16'
p3089
sS"Pojo's Unofficial Absolute Dragonball Z: Gt Episode Reviews"
p3090
S'4.28'
p3091
sS'Aglaia: The Poetry of Alcman, Sappho, Pindar, Bacchylides, and Corinna'
p3092
S'4.75'
p3093
sS'God Created The Integers'
p3094
S'4.06'
p3095
sS"Objective IELTS Intermediate Student's Book"
p3096
S'4.47'
p3097
sS'Compelling Evidence (Paul Madriani, #1)'
p3098
S'3.89'
p3099
sS'Adjusting Sights'
p3100
S'4.05'
p3101
sS'Emergence from Chaos to Order'
p3102
S'3.95'
p3103
sS'Tom Wolfe Carves Dragons'
p3104
S'4.50'
p3105
sS'The Warren Buffett Way'
p3106
S'4.06'
p3107
sS"The Essential J.R.R. Tolkien Sourcebook: A Fan's Guide to Middle-Earth and Beyond"
p3108
S'3.31'
p3109
sS"Dickens' Great Expectations (Cliffs Notes)"
p3110
S'3.62'
p3111
sS'Odyssey'
p3112
S'3.72'
p3113
sS'Symposium/Phaedrus'
p3114
S'3.94'
p3115
sS'The Human Rights Committee and the Right of Individual Communication: Law and Practice'
p3116
S'3.00'
p3117
sS'The Prince of the City: Giuliani, New York, and the Genius of American Life'
p3118
S'3.63'
p3119
sS'The Years of Rice and Salt'
p3120
S'3.71'
p3121
sS'Nikola Tesla: A Spark of Genius'
p3122
S'3.96'
p3123
sS'Louisa May Alcott: A Biography: With an Introduction to the New Edition'
p3124
S'3.88'
p3125
sS'Salt in His Shoes: Michael Jordan in Pursuit of a Dream'
p3126
S'4.18'
p3127
sS'Miss Happiness and Miss Flower'
p3128
S'4.28'
p3129
sS'Primal Heat (Includes: Breeds, #10; Devlin Dynasty, #1; Moon Lust, #1)'
p3130
S'4.10'
p3131
sS"The Everything Kid's Cookbook: From Mac'n Cheese to Double Chocolate Chip Cookies-All You Need to Have Some Finger Lickin' Fun"
p3132
S'3.87'
p3133
sS'Brainstorms: Philosophical Essays on Mind and Psychology'
p3134
S'3.96'
p3135
sS'A Challenge to the Critics: Scholarly Evidences of the Book of Mormon'
p3136
S'4.12'
p3137
sS'Managing Debt For Dummies'
p3138
S'3.85'
p3139
sS'The Minds of Boys: Saving Our Sons from Falling Behind in School and Life'
p3140
S'3.77'
p3141
sS'Midwest Eclogue'
p3142
S'3.78'
p3143
sS'The Tower'
p3144
S'3.37'
p3145
sS'J. K. Rowling: A Biography'
p3146
S'3.37'
p3147
sS'Herding Dogs: Progressive Training'
p3148
S'3.76'
p3149
sS'Rooms with a View: Two Decades of Outstanding American Interior Design from the Kips Bay...'
p3150
S'4.50'
p3151
sS'Winner Take All (John Rain, #3)'
p3152
S'4.16'
p3153
sS'Against the Day'
p3154
S'4.10'
p3155
sS"Grace's Letter to Lincoln"
p3156
S'3.55'
p3157
sS'Sport (Harriet the Spy Adventures)'
p3158
S'3.73'
p3159
sS'The Woman Chaser'
p3160
S'3.94'
p3161
sS'Thai Massage'
p3162
S'3.40'
p3163
sS'Stranger Than Fiction: An Independent Investigation of the True Culprits Behid 9-11'
p3164
S'4.00'
p3165
sS'You Only Live Twice (James Bond, #12)'
p3166
S'3.75'
p3167
sS'The Lord of the Rings Hardcover Box Set (The Lord of the Rings, #1-3)'
p3168
S'4.47'
p3169
sS'Lysis/Phaedrus/Symposium: Plato on Homosexuality (Great Books in Philosophy)'
p3170
S'4.54'
p3171
sS'The Longest Journey'
p3172
S'3.51'
p3173
sS"Literature, Disaster, and the Enigma of Power: A Reading of 'Moby-Dick'"
p3174
S'4.33'
p3175
sS'Riding High'
p3176
S'3.25'
p3177
sS'The Good Earth (Cliffs Notes)'
p3178
S'4.00'
p3179
sS'Trump: Surviving at the Top'
p3180
S'3.39'
p3181
sS'Looking for Mo'
p3182
S'3.69'
p3183
sS'Euripides and the Poetics of Sorrow: Art, Gender, and Commemoration in Alcestis, Hippolytus, and Hecuba'
p3184
S'4.33'
p3185
sS"Foucault's Virginity: Ancient Erotic Fiction & the History of Sexuality (Stanford Memorial Lecture)"
p3186
S'3.73'
p3187
sS'Catching Alice'
p3188
S'3.28'
p3189
sS'The 36-Hour Day: A Family Guide to Caring for Persons with Alzheimer Disease, Related Dementing Illnesses, and Memory Loss in Later Life'
p3190
S'4.23'
p3191
sS'Cultural Diversity Fieldbook: Fresh Visions and Breakthrough Strategies for Revitalizing the Workplace'
p3192
S'0.00'
p3193
sS"Kids' Crafts: Stamp It!: 50 Amazing Projects to Make"
p3194
S'3.00'
p3195
sS'In Web Design for Libraries'
p3196
S'2.67'
p3197
sS'Fundamental and Applied Aspects of Modern Physics'
p3198
S'4.00'
p3199
sS'Sliding Into Home'
p3200
S'3.88'
p3201
sS'Diez Cuentos de Eva Luna Con Guia de Comprension y Repaso de Gramatica'
p3202
S'3.95'
p3203
sS"People's History of the United States: 1492 to Present"
p3204
S'4.07'
p3205
sS'Adventures of Huckleberry Finn'
p3206
S'3.80'
p3207
sS'eBay: Top 100 Simplified Tips & Tricks'
p3208
S'4.11'
p3209
sS'A General History of the Pyrates'
p3210
S'3.71'
p3211
sS'A Bend in the Road'
p3212
S'4.02'
p3213
sS'Anansi Boys (American Gods, #2)'
p3214
S'4.00'
p3215
sS'Hecuba: Introduction, Text, and Commentary'
p3216
S'3.92'
p3217
sS'Best of Blink-182'
p3218
S'4.50'
p3219
sS'The Secret House: The Extraordinary Science of an Ordinary Day'
p3220
S'4.07'
p3221
sS'Anne of Avonlea'
p3222
S'4.21'
p3223
sS"Don't Sweat the Small Stuff for Men: Simple Ways to Minimize Stress in a Competitive World"
p3224
S'3.72'
p3225
sS'Fit for Developing Software: Framework for Integrated Tests'
p3226
S'3.37'
p3227
sS'Deborah Butterfield'
p3228
S'4.60'
p3229
sS'Prolegomena to Homer, 1795'
p3230
S'5.00'
p3231
sS'The Lovely Bones'
p3232
S'3.77'
p3233
sS'My Secret Garden'
p3234
S'3.65'
p3235
sS'The Green Toenails Gang (Olivia Sharp: Agent for Secrets)'
p3236
S'3.85'
p3237
sS"Glacier's Historic Hotels & Chalets: View with a Room"
p3238
S'3.83'
p3239
sS'Heretics of Dune (Dune Chronicles #5)'
p3240
S'3.83'
p3241
sS'Enthusiasm and Divine Madness'
p3242
S'4.47'
p3243
sS'The Horn of the Unicorn: A Mosaic of the Life of Archbishop Marcel Lefebvre'
p3244
S'4.50'
p3245
sS'The Confusion (The Baroque Cycle, #2)'
p3246
S'4.24'
p3247
sS"Vicksburg's Long Shadow: The Civil War Legacy of Race and Remembrance"
p3248
S'3.12'
p3249
sS'The Power of One (The Power of One, #1)'
p3250
S'4.34'
p3251
sS'The Innocents Abroad'
p3252
S'3.86'
p3253
sS'Willem de Kooning: Late Paintings'
p3254
S'5.00'
p3255
sS'Rose in Bloom'
p3256
S'4.03'
p3257
sS"Plato's Rhapsody and Homer's Music: The Poetics of the Panathenaic Festival in Classical Athens"
p3258
S'5.00'
p3259
sS'CSS Cookbook'
p3260
S'3.85'
p3261
sS'Portrait of a Lady'
p3262
S'3.76'
p3263
sS'Collected Tales, Sketches, Speeches and Essays 2: 1891-1910'
p3264
S'4.37'
p3265
sS'The River'
p3266
S'4.01'
p3267
sS'The Men Who Stare at Goats'
p3268
S'3.58'
p3269
sS"Into a Paris Quartier: Reine Margot's Chapel and Other Haunts of St. Germain"
p3270
S'3.48'
p3271
sS'How to Cook Everything: Easy Weekend Cooking'
p3272
S'3.60'
p3273
sS'Storage Networking Essentials: A Complete Guide to Understanding & Implementing Sans'
p3274
S'3.71'
p3275
sS'Roadside Guide to Indian Ruins & Rock Art of the Southwest'
p3276
S'4.12'
p3277
sS'Perfume Dreams: Reflections on the Vietnamese Diaspora'
p3278
S'3.89'
p3279
sS'For the New Intellectual: The Philosophy of Ayn Rand'
p3280
S'3.66'
p3281
sS'Nickel and Dimed: On (Not) Getting by in America'
p3282
S'3.60'
p3283
sS"Hatchet (Brian's Saga, #1)"
p3284
S'3.67'
p3285
sS'Moonraker (James Bond #3)'
p3286
S'3.70'
p3287
sS'Gita on the Green'
p3288
S'3.80'
p3289
sS'Chandler: Later Novels and Other Writings'
p3290
S'4.46'
p3291
sS'The Way We Die Now'
p3292
S'4.06'
p3293
sS'Georgia of the Jungle'
p3294
S'5.00'
p3295
sS'In Search of Moby Dick: Quest for the White Whale'
p3296
S'3.59'
p3297
sS'Shibumi and the Kitemaker'
p3298
S'4.03'
p3299
sS'Purpose Driven Life - For Commuters: What on Earth Am I Here For?'
p3300
S'3.89'
p3301
sS'Thy Will Be Done: The Conquest of the Amazon : Nelson Rockefeller and Evangelism in the Age of Oil'
p3302
S'4.52'
p3303
sS"Gentleman's Guide to Grooming and Style"
p3304
S'4.11'
p3305
sS'Escape From Pompeii'
p3306
S'4.21'
p3307
sS'Bleach, Volume 01'
p3308
S'4.21'
p3309
sS'Emergence: The Connected Lives of Ants, Brains, Cities, and Software'
p3310
S'3.96'
p3311
sS"The Secret Garden Cookbook: Recipes Inspired by Frances Hodgson Burnett's THE SECRET GARDEN"
p3312
S'4.29'
p3313
sS"The Heroes of Shakespeare's Tragedies"
p3314
S'0.00'
p3315
sS'A Clean Kill in Tokyo (John Rain, #1)'
p3316
S'3.93'
p3317
sS'Hard Rain'
p3318
S'3.47'
p3319
sS'The Emergence of Everything: How the World Became Complex'
p3320
S'3.74'
p3321
sS'Lectures on Don Quixote'
p3322
S'3.93'
p3323
sS'My Inventions'
p3324
S'4.01'
p3325
sS'City of the Beasts (Eagle and Jaguar, #1)'
p3326
S'3.69'
p3327
sS'The Long Tail: Why the Future of Business is Selling Less of More'
p3328
S'3.83'
p3329
sS'If You Lived 100 Years Ago'
p3330
S'3.87'
p3331
sS'The Lost Journals of Nikola Tesla: HAARP - Chemtrails and the Secret of Alternative 4'
p3332
S'3.89'
p3333
sS'Worlds Beyond Dune Box'
p3334
S'3.50'
p3335
sS'A Mouth Like Yours'
p3336
S'2.65'
p3337
sS'Louisa May Alcott (Biography (a & E))'
p3338
S'3.00'
p3339
sS'Tolstoy: Anna Karenina'
p3340
S'4.18'
p3341
sS'Left-Hand Guitar Chord Chart'
p3342
S'4.50'
p3343
sS'Dancing Shoes (Shoes, #9)'
p3344
S'4.05'
p3345
sS'The Letters of John and Abigail Adams'
p3346
S'4.20'
p3347
sS'Drina Dances In New York (Drina, #6)'
p3348
S'4.13'
p3349
sS'A Modest Proposal and Other Satirical Works'
p3350
S'4.04'
p3351
sS'A Wrinkle in Time: A Guide for Using "A Wrinkle in Time" in the Classroom'
p3352
S'3.75'
p3353
sS"Liar's Poker"
p3354
S'4.15'
p3355
sS"Cliffs Notes on Hemingway's The Old Man and the Sea"
p3356
S'2.60'
p3357
sS'The Tenth Man: The Great Joke (Which Made Lazarus Laugh)'
p3358
S'4.70'
p3359
sS'Charlotte Sometimes'
p3360
S'4.09'
p3361
sS'The AutoCAD 3D Book'
p3362
S'1.00'
p3363
sS'Ghosts (The New York Trilogy, #2)'
p3364
S'3.67'
p3365
sS'Elizabeth and Her German Garden'
p3366
S'3.84'
p3367
sS'A Home at the End of the World'
p3368
S'3.89'
p3369
sS'Willem de Kooning: Paintings 1960-1980'
p3370
S'4.30'
p3371
sS'Moby Dick (Graphic Classics)'
p3372
S'3.56'
p3373
sS'An Edward Lear Alphabet'
p3374
S'3.35'
p3375
sS'Moby Dick (Spark Notes Literature Guide)'
p3376
S'3.00'
p3377
sS'How Invention Begins: Echoes of Old Voices in the Rise of New Machines'
p3378
S'3.73'
p3379
sS'Emergence'
p3380
S'4.17'
p3381
sS'All Families are Psychotic'
p3382
S'3.69'
p3383
sS'Risotto: 30 Simply Delicious Vegetarian Recipes from an Italian Kitchen'
p3384
S'4.09'
p3385
sS'The Power of One: The Solo Play for Playwrights, Actors, and Directors'
p3386
S'3.30'
p3387
sS'Miami'
p3388
S'3.71'
p3389
sS'Celtic and Old Norse Designs'
p3390
S'3.94'
p3391
sS'The Execution of Sherlock Holmes: And Other New Adventures of the Great Detective (Sherlock Holmes, #3)'
p3392
S'3.72'
p3393
sS"The War of Don Emmanuel's Nether Parts"
p3394
S'4.05'
p3395
sS'The First Stage Guitar Chord Chart: Learn How to Play the Most Commonly Played Guitar Chords!'
p3396
S'3.07'
p3397
sS"Dave's Way"
p3398
S'3.94'
p3399
sS'Haunted Places in America: A Guide to Spooked and Spooky Public Places in the United States'
p3400
S'3.23'
p3401
sS'The Nature of Space and Time'
p3402
S'4.06'
p3403
sS'The Fantastic Inventions of Nikola Tesla'
p3404
S'4.02'
p3405
sS'The Bible According to Mark Twain'
p3406
S'4.17'
p3407
sS'Zen and the Art of Motorcycle Maintenance: An Inquiry Into Values'
p3408
S'3.75'
p3409
sS"I Ain't Scared of You: Bernie Mac on How Life Is"
p3410
S'4.07'
p3411
sS'The Time Machine'
p3412
S'3.86'
p3413
sS'Graphic Design: A History'
p3414
S'3.97'
p3415
sS'The Prostitute in the Family Tree'
p3416
S'3.40'
p3417
sS'Blink.'
p3418
S'3.95'
p3419
sS'David Copperfield'
p3420
S'3.96'
p3421
sS'Once Again for Thucydides'
p3422
S'3.63'
p3423
sS'The Complete Poetry and Prose of Geoffrey Chaucer'
p3424
S'4.46'
p3425
sS'Hypercapitalism: New Media, Language, and Social Perceptions of Value'
p3426
S'4.00'
p3427
sS'Communication, Technology and Cultural Change'
p3428
S'3.83'
p3429
sS'A Changeling for All Seasons'
p3430
S'3.74'
p3431
sS'The Long Goodbye'
p3432
S'4.23'
p3433
sS'Black Holes, Wormholes and Time Machines'
p3434
S'4.27'
p3435
sS'History of Graphic Design 3e IM'
p3436
S'4.14'
p3437
sS"Frommer's Maui 2005"
p3438
S'3.80'
p3439
sS"No Ordinary Moments: A Peaceful Warrior's Guide to Daily Life"
p3440
S'4.07'
p3441
sS'Brokeback Mountain'
p3442
S'3.93'
p3443
sS'Noise'
p3444
S'0.00'
p3445
sS'Babrius and Phaedrus (Loeb Classical Library #436)'
p3446
S'4.13'
p3447
sS'Relationships for Dummies'
p3448
S'3.55'
p3449
sS"Four Comedies: Lysistrata / The Frogs / The Birds / Ladies' Day"
p3450
S'4.04'
p3451
sS'De Kooning: An American Master'
p3452
S'4.09'
p3453
sS"Across the River: Walter & Oliver's Amazing Adventure"
p3454
S'4.00'
p3455
sS'Earlier Writings (Library of Christian Classics)'
p3456
S'3.92'
p3457
sS'The Complete Stories'
p3458
S'4.25'
p3459
sS'The Great Gilly Hopkins'
p3460
S'3.82'
p3461
sS'World History in Brief, Volume II (Chapters 14-33)'
p3462
S'3.64'
p3463
sS'Open City (Issue #12)'
p3464
S'0.00'
p3465
sS'Statesman'
p3466
S'3.82'
p3467
sS'The Mediterranean Pantry: Creating and Using Condiments and Seasonings'
p3468
S'3.88'
p3469
sS'Aglaia Konrad: Elasticity'
p3470
S'4.00'
p3471
sS'The Love Artist'
p3472
S'4.00'
p3473
sS'A Prayerbook for Spiritual Friends'
p3474
S'3.70'
p3475
sS'Trek: David Carson, Recent Werk'
p3476
S'4.23'
p3477
sS'Democracy in America'
p3478
S'3.98'
p3479
sS'J.K.Lasser Pro Real Estate Investment Trusts: New Strategies for Portfolio Management'
p3480
S'0.00'
p3481
sS"Kierkegaard's Relations to Hegel Reconsidered"
p3482
S'4.00'
p3483
sS'The 21 Irrefutable Laws Of Leadership, Workbook'
p3484
S'4.27'
p3485
sS"Corelli's Mandolin - Unabridged"
p3486
S'3.94'
p3487
sS'Dragonball Z: An Unauthorized Guide'
p3488
S'4.10'
p3489
sS'Flaubert: A Biography'
p3490
S'3.89'
p3491
sS'Web Bloopers: 60 Common Web Design Mistakes And How To Avoid Them (Morgan Kaufmann Series In Interactive Technologies)'
p3492
S'4.00'
p3493
sS'Black Beauty'
p3494
S'3.94'
p3495
sS'Oedipus Tyrannus: Tragic Heroism and the Limits of Knowledge'
p3496
S'4.00'
p3497
sS"Taunton's Home Storage Idea Book"
p3498
S'3.53'
p3499
sS'Political Philosophy and Rhetoric: A Study of the Origins of American Party Politics'
p3500
S'3.00'
p3501
sS'The Adventures of Huckleberry Finn'
p3502
S'3.65'
p3503
sS'The Complete Verse and Other Nonsense'
p3504
S'4.17'
p3505
sS'The Owl and the Pussycat'
p3506
S'4.20'
p3507
sS'Why Is Sex Fun? The Evolution of Human Sexuality (Science Masters)'
p3508
S'3.70'
p3509
sS'The Old Way of Seeing: How Architecture Lost Its Magic - And How to Get It Back'
p3510
S'3.96'
p3511
sS'The Emergence of Sociological Theory'
p3512
S'3.56'
p3513
sS'Phaedrus (Large Print)'
p3514
S'3.91'
p3515
sS'Alex & Penny Ballooning over Italy'
p3516
S'3.00'
p3517
sS'The Power of One: Daisy Bates and the Little Rock Nine'
p3518
S'4.43'
p3519
sS"Auggie Wren's Christmas Story"
p3520
S'3.84'
p3521
sS'Cratylus'
p3522
S'3.63'
p3523
sS'Time for the Stars'
p3524
S'3.95'
p3525
sS'Atlas Shrugged & The Fountainhead'
p3526
S'4.08'
p3527
sS'Hatchet: A Guide for Using "Hatchet" in the Classroom'
p3528
S'3.97'
p3529
sS'Beyond Silence and Denial'
p3530
S'3.80'
p3531
sS'The Importance of What We Care about: Philosophical Essays'
p3532
S'4.09'
p3533
sS'The Ayn Rand Lexicon: Objectivism from A to Z (Ayn Rand Library)'
p3534
S'4.08'
p3535
sS'The Portable Chaucer'
p3536
S'3.84'
p3537
sS'Aristophanes 2: Wasps/Lysistrata/Frogs/The Sexual Congress'
p3538
S'3.80'
p3539
sS'Willem De Kooning: Reflections in the Studio'
p3540
S'3.57'
p3541
sS"Sun Tzu's the Art of War Plus Warrior Marketing: Strategy for Market Positioning"
p3542
S'4.50'
p3543
sS'Rumer Godden'
p3544
S'3.78'
p3545
sS'Sex For Dummies'
p3546
S'3.65'
p3547
sS'Short Epics'
p3548
S'4.50'
p3549
sS'Singers, Heroes, and Gods in the Odyssey: Life in a Modern Matriarchy'
p3550
S'5.00'
p3551
sS'Aristophanes 1: The Acharnians/Peace/Celebrating Ladies/Wealth'
p3552
S'4.00'
p3553
sS'Moby Dick (Great Illustrated Classics)'
p3554
S'3.70'
p3555
sS'Whipping Star'
p3556
S'3.65'
p3557
sS"Essays on Ayn Rand's the Fountainhead"
p3558
S'4.11'
p3559
sS"Hamlet's Mill: An Essay Investigating  the Origins of Human Knowledge & Its Transmission Through Myth"
p3560
S'4.27'
p3561
sS'The Black Mass of Brother Springer'
p3562
S'4.01'
p3563
sS'Hard Rain (Code Red #16)'
p3564
S'4.38'
p3565
sS'Otis Redding: Try a Little Tenderness'
p3566
S'3.62'
p3567
sS'Obra Completa Narrativa'
p3568
S'4.88'
p3569
sS'Bridge to Terabithia'
p3570
S'3.97'
p3571
sS'The Longest Journey (Bantam Classic)'
p3572
S'3.51'
p3573
sS'The Language of Heroes'
p3574
S'4.50'
p3575
sS"Plato's Phaedrus: The Philosophy of Love"
p3576
S'4.00'
p3577
sS'Naomi Klein y el fin de las marcas (Intelectuales)'
p3578
S'3.33'
p3579
sS"Herman Melville's Moby-Dick: A Routledge Study Guide and Sourcebook"
p3580
S'3.62'
p3581
sS'The Guitar Three-Chord Songbook: Play 50 Rock Hits with Only 3 Easy Chords'
p3582
S'3.17'
p3583
sS'Trojan Women/Iphigenia Among the Taurians/Ion'
p3584
S'4.05'
p3585
sS'How to Restore Your Motorcycle'
p3586
S'3.76'
p3587
sS'The Bridge over the Drina'
p3588
S'4.33'
p3589
sS'The Ambassadors'
p3590
S'3.65'
p3591
sS'Rhetoric and Reality in Plato\'s "Phaedrus"'
p3592
S'3.50'
p3593
sS'Praise of Folly'
p3594
S'3.88'
p3595
sS'The Tipping Point: How Little Things Can Make a Big Difference'
p3596
S'3.91'
p3597
sS"Cliffsnotes on Chaucer's the Canterbury Tales (CliffsNotes)"
p3598
S'3.32'
p3599
sS'Boys of Summer'
p3600
S'3.79'
p3601
sS'Freud'
p3602
S'4.12'
p3603
sS'Guns, Germs and Steel: The Fates of Human Societies'
p3604
S'3.99'
p3605
sS'Harry Potter and the Goblet of Fire (Harry Potter, #4)'
p3606
S'4.52'
p3607
sS'Four Plays: Medea / Hippolytus / Heracles / Bacchae'
p3608
S'3.95'
p3609
sS"Listening to the Cicadas: A Study of Plato's Phaedrus"
p3610
S'3.50'
p3611
sS'Dreamer of Dune: The Biography of Frank Herbert'
p3612
S'3.95'
p3613
sS'The Curious Incident of the Dog in the Night-Time'
p3614
S'3.85'
p3615
sS'Minds, Brains and Science'
p3616
S'3.76'
p3617
sS"Gentleman's GD.to Etiquette"
p3618
S'2.88'
p3619
sS'Chuva Forte'
p3620
S'4.16'
p3621
sS'Sweet Dreams: Philosophical Obstacles to a Science of Consciousness'
p3622
S'3.73'
p3623
sS'Guitar Picture Chords in Color'
p3624
S'5.00'
p3625
sS'In a Sunburned Country'
p3626
S'4.05'
p3627
sS'The Leadership Pipeline: How to Build the Leadership-Powered Company'
p3628
S'3.89'
p3629
sS'Anthem'
p3630
S'3.62'
p3631
sS'Collected Papers in Greek and Georgian Textual Criticism'
p3632
S'0.00'
p3633
sS'City as Comedy'
p3634
S'3.50'
p3635
sS'Don Quixote'
p3636
S'3.85'
p3637
sS'A Wrinkle in Time: A Reading Guide (Scholastic Bookfiles)'
p3638
S'3.00'
p3639
sS'Pompeii: Public and Private Life'
p3640
S'3.33'
p3641
sS"Green Shadows, White Whale: A Novel of Ray Bradbury's Adventures Making Moby Dick with John Huston in Ireland"
p3642
S'3.80'
p3643
sS'The Illustrated Alchemist: A Fable about Following Your Dream'
p3644
S'3.81'
p3645
sS'The Eleventh Hour: A Curious Mystery'
p3646
S'4.32'
p3647
sS'Birds Without Wings - Unabridged'
p3648
S'4.15'
p3649
sS'The Ultimate Guitar Chord Big Book: Over 100,000 Chords!'
p3650
S'0.00'
p3651
sS'Theatre, a Way of Seeing: A Way of Seeing'
p3652
S'4.19'
p3653
sS'Sun Tzu Was a Sissy: Conquer Your Enemies, Promote Your Friends, and Wage the Real Art of War'
p3654
S'3.28'
p3655
sS'On Love: Lysis/Symposium/Phaedrus/Alcibiades/Selections from Republic & Laws'
p3656
S'4.04'
p3657
sS'The Canterbury Tales in Modern Verse'
p3658
S'3.48'
p3659
sS'The Mask of Comedy: Class, Gender, and Resistance'
p3660
S'3.00'
p3661
sS'The Hours'
p3662
S'3.91'
p3663
sS'The Modern Prince: Charles J. Haughey and the Quest for Power'
p3664
S'3.67'
p3665
sS'Small Vices (Spenser, #24)'
p3666
S'3.97'
p3667
sS'Secret Garden'
p3668
S'4.12'
p3669
sS'Original Sin: Origins, Developments, Contemporary Meanings'
p3670
S'3.67'
p3671
sS'Drina Goes on Tour (Drina, #10)'
p3672
S'4.19'
p3673
sS"A Wrinkle in Time by Madeleine L'Engle: Study Guide"
p3674
S'4.21'
p3675
sS'Adams-Jefferson Letters'
p3676
S'4.25'
p3677
sS'Complete Stories, 1892-1898'
p3678
S'4.20'
p3679
sS'Benzin: Young Swiss Graphic Design'
p3680
S'4.00'
p3681
sS'Creative Sparks: An Index of 150+ Concepts, Images and Exercises to Ignite Your Design Ingenuity'
p3682
S'3.92'
p3683
sS'Simple Handmade Storage: 23 Step-By-Step Weekend Projects'
p3684
S'3.00'
p3685
sS'On, Off (Carmine Delmonico, #1)'
p3686
S'3.48'
p3687
sS'Great Short Works of Herman Melville'
p3688
S'4.03'
p3689
sS'Richest Man In Babylon For Today'
p3690
S'3.84'
p3691
sS'The Fifth Mountain'
p3692
S'3.61'
p3693
sS"A Don't Sweat the Small Stuff Treasury: A Special Selection for Mothers"
p3694
S'3.20'
p3695
sS"Geoffrey Chaucer's The Pardoner's Tale"
p3696
S'4.00'
p3697
sS'Death of an Expert Witness (Adam Dalgliesh #6)'
p3698
S'3.98'
p3699
sS'History in the Making: An Absorbing Look at How American History Has Changed in the Telling over the Last 200 Years'
p3700
S'3.59'
p3701
sS"Stephen Hawking's Universe"
p3702
S'4.00'
p3703
sS"The Hit Man's Dilemma: Or Business, Personal and Impersonal"
p3704
S'4.00'
p3705
sS'Our Man in Havana'
p3706
S'3.94'
p3707
sS'Robinson Crusoe'
p3708
S'3.66'
p3709
sS'Women of Troy'
p3710
S'3.86'
p3711
sS'Theocritus: Select Poems: Select Poems'
p3712
S'3.00'
p3713
sS"The Art of War: Sun Tzu's Classis in Plain English with Sun Pin's: The Art of Warfare"
p3714
S'3.95'
p3715
sS'The Mini Rough Guide to London'
p3716
S'4.00'
p3717
sS'The Articulate Executive: Learn to Look, ACT, and Sound Like a Leader'
p3718
S'3.57'
p3719
sS'Euripides: Helen, Phoenician Women, Orestes'
p3720
S'4.04'
p3721
sS'Howards End'
p3722
S'3.95'
p3723
sS'The Red Hot Cookbook: Create a Culinary Inferno with Flaming Good Recipes from Around the World'
p3724
S'2.50'
p3725
sS'Tai Chi Chuan: Aplicaciones Marciales:  Estilo Yang Avanzado De Tai Chi Chuan'
p3726
S'0.00'
p3727
sS'The Long Shadow (The Morland Dynasty, #6)'
p3728
S'4.12'
p3729
sS'American Notes for General Circulation'
p3730
S'3.56'
p3731
sS'American Government; Continuity and Change'
p3732
S'2.83'
p3733
sS'Trump: The Best Real Estate Advice I Ever Received: 100 Top Experts Share Their Strategies'
p3734
S'3.55'
p3735
sS'Fields of Gold'
p3736
S'0.00'
p3737
sS'Aristophanes 1: Clouds/Wasps/Birds'
p3738
S'3.75'
p3739
sS'The Wonder of Boys: What Parents, Mentors and Educators Can Do to Shape Boys into Exceptional Men'
p3740
S'3.70'
p3741
sS"Don't Make Me Think: A Common Sense Approach to Web Usability"
p3742
S'4.23'
p3743
sS'The House of God'
p3744
S'3.95'
p3745
sS'Open City 6: The Only Woman He Ever Left'
p3746
S'0.00'
p3747
sS'The Fall of the Amazing Zalindas  (Sherlock Holmes and the Baker Street Irregulars #1)'
p3748
S'3.79'
p3749
sS"A Don't Sweat the Small Stuff Treasury: A Special Collection for the Office"
p3750
S'5.00'
p3751
sS"The Tragedy of Pudd'nhead Wilson/Those Extraordinary Twins"
p3752
S'3.95'
p3753
sS'The Oedipus Plays of Sophocles: Oedipus the King; Oedipus at Colonus; Antigone'
p3754
S'3.96'
p3755
sS"The River (Brian's Saga, #2)"
p3756
S'3.77'
p3757
sS"Sophocles' Tragic World: Divinity, Nature, Society"
p3758
S'4.33'
p3759
sS'The Whaleship Essex: The True Story of Moby Dick'
p3760
S'4.67'
p3761
sS'Disney: The First 100 Years'
p3762
S'3.91'
p3763
sS'Generation X: Tales for an Accelerated Culture'
p3764
S'3.73'
p3765
sS"The Cod's Tale"
p3766
S'4.01'
p3767
sS'Privileged Witness (Witness Series, #3)'
p3768
S'4.03'
p3769
sS'Gap Creek'
p3770
S'3.71'
p3771
sS'Love & Transformation: An Ovid Reader'
p3772
S'3.83'
p3773
sS'Cod: A Biography of the Fish that Changed the World'
p3774
S'3.92'
p3775
sS'Public Places-Urban Spaces: The Dimensions of Urban Design'
p3776
S'4.17'
p3777
sS'Seven Habits of Highly Effective People'
p3778
S'4.03'
p3779
sS'El Cuaderno De Noah'
p3780
S'4.06'
p3781
sS"Public Places: My Life in the Theater, with Peter O'Toole and Beyond"
p3782
S'3.88'
p3783
sS'The Richest Man in Babylon: The Success Secrets of the Ancients'
p3784
S'4.22'
p3785
sS'Rudy! An Investigative Biography Of Rudolph Giuliani'
p3786
S'3.61'
p3787
sS'Children of Heracles. Hippolytus. Andromache. Hecuba'
p3788
S'4.29'
p3789
sS'Moby Dick: Library Edition'
p3790
S'3.46'
p3791
sS'The Three Theban Plays: Antigone / Oedipus the King / Oedipus at Colonus'
p3792
S'3.96'
p3793
sS'A Storm Without Rain: A Novel in Time'
p3794
S'3.95'
p3795
sS'Jazz Guitar Chord Solos'
p3796
S'3.71'
p3797
sS'Snow Crash: The Official Strategy Guide'
p3798
S'0.00'
p3799
sS'Parmenides/Philebus/Symposium/Phaedrus/Alcibiades 1-2/Hipparchus/Amatores (Platonis Opera, #2)'
p3800
S'4.87'
p3801
sS"Death and the King's Horseman"
p3802
S'3.72'
p3803
sS'The Curious Incident of the Dog In the Night-time'
p3804
S'3.85'
p3805
sS'Complete Works of William Shakespeare'
p3806
S'4.57'
p3807
sS"The Creative Myth and the Cosmic Hero: Text and Context in Ernest Becker's the Denial of Death"
p3808
S'4.00'
p3809
sS"Don't Despair on Thursdays!: The Children's Grief-Management Book"
p3810
S'3.58'
p3811
sS'The Simple Art of Murder'
p3812
S'4.16'
p3813
sS'The Mouse and the Motorcycle (Read-Aloud Edition)'
p3814
S'3.90'
p3815
sS"Liar's Poker: A Harry Garnish Mystery"
p3816
S'3.31'
p3817
sS'Beyond the Red Notebook'
p3818
S'4.00'
p3819
sS'The Power Broker: Robert Moses and the Fall of New York'
p3820
S'4.49'
p3821
sS'Memorial del Convento'
p3822
S'3.90'
p3823
sS'Enchanted April: Acting Edition'
p3824
S'3.52'
p3825
sS'Gorgias/Timaeus'
p3826
S'3.69'
p3827
sS'Of Mice and Men'
p3828
S'3.84'
p3829
sS'The Long-Distance Relationship Survival Guide: Secrets and Strategies from Successful Couples Who Have Gone the Distance'
p3830
S'3.41'
p3831
sS'Country Living Stylish Storage: Simple Ways to Contain Your Clutter'
p3832
S'3.00'
p3833
sS'The Lord of the Rings: Weapons and Warfare'
p3834
S'4.53'
p3835
sS'Euripides: Medea'
p3836
S'3.73'
p3837
sS'Moby Dick: or The White Whale (Oxford Illustrated Classics)'
p3838
S'3.66'
p3839
sS"Jane Austen's Letters"
p3840
S'4.14'
p3841
sS'Walk Fast, Talk Loud and Smile: How to Succeed in Sales and Have Fun Doing It'
p3842
S'5.00'
p3843
sS'Orient Express'
p3844
S'3.47'
p3845
sS'Alcestis'
p3846
S'3.81'
p3847
sS'Mandie and the Long Goodbye (Mandie Books, 30)'
p3848
S'3.96'
p3849
sS"Betty Crocker's Picture Cookbook, Facsimile Edition"
p3850
S'4.34'
p3851
sS'Fats That Heal, Fats That Kill'
p3852
S'4.15'
p3853
sS"A Don't Sweat the Small Stuff Treasury: A Special Selection for Teachers"
p3854
S'4.00'
p3855
sS'The Canterbury Tales'
p3856
S'3.48'
p3857
sS'Classical Period : Poetics of Drama (Greek Literature, Volume 3)'
p3858
S'5.00'
p3859
sS'The Chemistry And Physics Of Intermetallic Materials (Special Topics In Inorganic Chemistry)'
p3860
S'5.00'
p3861
sS'The Big Sleep'
p3862
S'4.04'
p3863
sS'A Catholic Perspective on the Purpose Driven Life'
p3864
S'3.69'
p3865
sS'Der Sturz von Hyperion'
p3866
S'4.17'
p3867
sS'Doubting Thomas'
p3868
S'4.80'
p3869
sS'What If the Zebras Lost Their Stripes?'
p3870
S'4.25'
p3871
sS'The Quiet American'
p3872
S'3.95'
p3873
sS'Warrior of the Light'
p3874
S'3.69'
p3875
sS'Jazz Guitar Chord Workout'
p3876
S'0.00'
p3877
sS'Scholar of Decay (Ravenloft, #14)'
p3878
S'3.42'
p3879
sS'The Last Dance: Encountering Death and Dying'
p3880
S'3.80'
p3881
sS'Quiet Days in Clichy'
p3882
S'3.71'
p3883
sS'Kindred Spirit: A Biography of L. M. Montgomery, Creator of Anne of Green Gables'
p3884
S'3.73'
p3885
sS'Twelve Steps and Twelve Traditions'
p3886
S'4.47'
p3887
sS'Avalanche'
p3888
S'3.68'
p3889
sS'The Secret Garden'
p3890
S'4.12'
p3891
sS'Protagoras/Philebus/Gorgias'
p3892
S'4.07'
p3893
sS'New York Trilogy: New York Underground, Trapped, Love and Sex'
p3894
S'0.00'
p3895
sS"Don't Panic: Douglas Adams & The Hitchhiker's Guide to the Galaxy"
p3896
S'4.30'
p3897
sS'The Road to Dune (Dune Universe)'
p3898
S'3.82'
p3899
sS'The Wish Giver: Three Tales of Coven Tree (Trophy Newbery)'
p3900
S'3.82'
p3901
sS'The Gorgias of Plato'
p3902
S'3.90'
p3903
sS'Madame Bovary'
p3904
S'3.64'
p3905
sS'Dragonball Z: Extreme Glow-in-the-dark Sticker Activity'
p3906
S'4.19'
p3907
sS'Ethnic Variations in Dying, Death and Grief: Diversity in Universality'
p3908
S'3.50'
p3909
sS'The Bone Collector (Lincoln Rhyme, #1)'
p3910
S'4.18'
p3911
sS'Girlfriend in a Coma'
p3912
S'3.61'
p3913
sS'Bernie Mac'
p3914
S'5.00'
p3915
sS'Perimenopause the Natural Way'
p3916
S'0.00'
p3917
sS"Holy Cows and Hog Heaven: The Food Buyer's Guide to Farm Friendly Food"
p3918
S'4.00'
p3919
sS"The Hitchhiker's Guide to the Galaxy: Quintessential Phase (Hitchhiker's Guide: Radio Play, #5)"
p3920
S'4.39'
p3921
sS'My Life in Dog Years'
p3922
S'4.10'
p3923
sS"The Secrets of Frank Herbert's Dune"
p3924
S'3.47'
p3925
sS'Sophocles 1: Ajax/Women of Trachis/Electra/Philoctetes'
p3926
S'4.12'
p3927
sS"Our Kind of People: Inside America's Black Upper Class"
p3928
S'3.62'
p3929
sS'Jane Austen: The Complete Novels'
p3930
S'4.54'
p3931
sS'The Winning Investment Habits of Warren Buffett & George Soros'
p3932
S'3.92'
p3933
sS'Ballet Shoes for Anna'
p3934
S'3.78'
p3935
sS'In an Uncertain World: Tough Choices from Wall Street to Washington'
p3936
S'3.73'
p3937
sS'Angels and Demons in Art'
p3938
S'4.08'
p3939
sS'Ready for Anything: 52 Productivity Principles for Getting Things Done'
p3940
S'3.78'
p3941
sS"Plato's Erotic Dialogues: Symposium/Phaedrus (Ancient Greek Philosophy)"
p3942
S'3.94'
p3943
sS'The Chap Manifesto: Revolutionary Etiquette for the Modern Gentleman'
p3944
S'3.99'
p3945
sS'Daily Reflections For Highly Effective People : Living The 7 Habits Of Highly Successful People Every Day'
p3946
S'3.93'
p3947
sS'The City of God'
p3948
S'3.87'
p3949
sS'The Ravishing of Lol Stein'
p3950
S'3.70'
p3951
sS'Harriet the Spy, Double Agent (Harriet the Spy Adventures)'
p3952
S'3.71'
p3953
sS'Farewell, My Lovely'
p3954
S'4.17'
p3955
sS'The Gandhi Quartet'
p3956
S'4.00'
p3957
sS'Letterhead and Logo Design 9'
p3958
S'4.15'
p3959
sS'La Caida de Hyperion'
p3960
S'4.17'
p3961
sS'La Place de la Concorde Suisse'
p3962
S'3.88'
p3963
sS'The Good Earth (House of Earth, #1)'
p3964
S'3.97'
p3965
sS'The History of Graphic Design'
p3966
S'4.14'
p3967
sS'How to Cook Everything: The Basics: Simple Recipes Anyone Can Cook'
p3968
S'4.26'
p3969
sS'Fullmetal Alchemist, Vol. 3 (Fullmetal Alchemist, #3)'
p3970
S'4.55'
p3971
sS'Teaching English Abroad'
p3972
S'3.61'
p3973
sS"Phil Gordon's Little Green Book: Lessons and Teachings in No Limit Texas Hold'em"
p3974
S'3.80'
p3975
sS'Henry Miller on Writing'
p3976
S'4.21'
p3977
sS'Hyperion and Selected Poems'
p3978
S'4.00'
p3979
sS"A Don't Sweat the Small Stuff Treasury: A Special Selection for Fathers"
p3980
S'4.00'
p3981
sS'The Hyperion Omnibus: Hyperion / The Fall of Hyperion'
p3982
S'4.39'
p3983
sS'Teaching with the Brain in Mind'
p3984
S'4.09'
p3985
sS'Think and Grow Rich: Instant Motivator'
p3986
S'4.16'
p3987
sS'First Love, Last Rites'
p3988
S'3.67'
p3989
sS'The Birds and Other Plays'
p3990
S'4.06'
p3991
sS'The Invention of Solitude: A Memoir'
p3992
S'3.83'
p3993
sS'Huck Finn and Tom Sawyer Among the Indians'
p3994
S'3.56'
p3995
sS'Leadership and Self-Deception: Getting Out of the Box'
p3996
S'4.11'
p3997
sS'The Effective Corrections Manager: Correctional Supervision for the Future'
p3998
S'3.00'
p3999
sS'The Book of Illumination: Kitab al-Tanwir fi Isqat al-Tadbir'
p4000
S'4.35'
p4001
sS'Growing Little Women: Capturing Teachable Moments with Your Daughter'
p4002
S'4.21'
p4003
sS'John Adams'
p4004
S'4.06'
p4005
sS'Ghostly Tales (Portraits of Little Women)'
p4006
S'3.79'
p4007
sS'J.R.R. Tolkien 4-Book Boxed Set: The Hobbit and The Lord of the Rings'
p4008
S'4.59'
p4009
sS'Eleanor Rigby'
p4010
S'3.64'
p4011
sS'The Untouchable'
p4012
S'3.96'
p4013
sS'A Walk to Remember'
p4014
S'4.15'
p4015
sS'Thucydides Reader: Annotated Passages from Books I-VIII of the Histories'
p4016
S'4.00'
p4017
sS'The Lord of the Rings- 3 volumes set (The Lord of the Rings, #1-3)'
p4018
S'4.47'
p4019
sS'Writing'
p4020
S'3.79'
p4021
sS'Aristophanes: An Author for the Stage'
p4022
S'0.00'
p4023
sS'Lucretius on Death and Anxiety: Poetry and Philosophy in de Rerum Natura'
p4024
S'4.40'
p4025
sS'Rails Cookbook: Recipes for Rapid Web Development with Ruby'
p4026
S'3.55'
p4027
sS'Horace\'s "Carmen Saeculare": Ritual Magic and the Poet`s Art'
p4028
S'5.00'
p4029
sS'The Mysteries of Sherlock Holmes (Illustrated Junior Library)'
p4030
S'4.35'
p4031
sS'How to Paint Your Motorcycle'
p4032
S'4.33'
p4033
sS'Daniel Defoe: Master of Fictions: His Life and Ideas'
p4034
S'3.40'
p4035
sS'Personal Finance For Dummie$ For Canadians'
p4036
S'3.79'
p4037
sS'How to Draw Dragonball'
p4038
S'4.00'
p4039
sS'Cinnamon and Roses (Rose Trilogy, #1)'
p4040
S'3.75'
p4041
sS'Kinds Of Minds: The Origins Of Consciousness (SCIENCE MASTERS)'
p4042
S'3.81'
p4043
sS'The Wit and Wisdom of Mark Twain'
p4044
S'4.23'
p4045
sS'Truth Decay: Defending Christianity Against the Challenges of Postmodernism'
p4046
S'3.82'
p4047
sS'The Terror'
p4048
S'4.00'
p4049
sS'The Interpreters'
p4050
S'3.55'
p4051
sS'London is the Best City in America'
p4052
S'3.44'
p4053
sS'American Government: Continuity and Change, Alternate Edition'
p4054
S'2.83'
p4055
sS'Keys to Investing in Real Estate'
p4056
S'2.00'
p4057
sS'Selected Poems of Herman Melville'
p4058
S'3.90'
p4059
sS'On the Beaten Path: An Appalachian Pilgrimage'
p4060
S'3.78'
p4061
sS'The Changeling'
p4062
S'4.15'
p4063
sS'One Hundred Years of Solitude'
p4064
S'4.03'
p4065
sS'The Witches of Worm'
p4066
S'3.68'
p4067
sS"Gentleman's Guide To Professional Appearance"
p4068
S'4.00'
p4069
sS'Collected Plays: Volume 1: A Dance of the Forests; The Swamp Dwellers; The Strong Breed; The Road; The Bacchae of Euripides: 001 (Includes a Dance of ... Breed/the Road/the Bacchae of Euripides)'
p4070
S'3.92'
p4071
sS'Redburn'
p4072
S'3.58'
p4073
sS'The Game: Penetrating the Secret Society of Pickup Artists'
p4074
S'3.73'
p4075
sS'Tomcat in Love'
p4076
S'3.41'
p4077
sS'Cambridge Wizard Student Guide The Curious Incident of the Dog in the Night Time (Cambridge Wizard English Student Guides)'
p4078
S'3.78'
p4079
sS'The Iliad'
p4080
S'3.82'
p4081
sS'The Virtue of Selfishness: A New Concept of Egoism'
p4082
S'3.46'
p4083
sS'The Lost Boy (Dave Pelzer #2)'
p4084
S'4.08'
p4085
sS'The Golden Tulip'
p4086
S'3.90'
p4087
sS'A Modest Proposal (Literary Casebook Series)'
p4088
S'4.05'
p4089
sS'Murder at The Washington Tribune (Capital Crimes, #21)'
p4090
S'3.53'
p4091
sS'La Dama y El Unicornio'
p4092
S'3.67'
p4093
sS'Cuentos de Eva Luna'
p4094
S'3.95'
p4095
sS"Ender's Game (Ender's Saga, #1)"
p4096
S'4.29'
p4097
sS"Today's Chicago Blues"
p4098
S'4.50'
p4099
sS"Dionysiac Poetics and Euripides' -Bacchae-"
p4100
S'4.56'
p4101
sS'Now Zen'
p4102
S'4.10'
p4103
sS'Vintage Didion'
p4104
S'4.11'
p4105
sS"Men: A User's Guide"
p4106
S'3.50'
p4107
sS'In the Garden: Essays in Honor of Frances Hodgson Burnett'
p4108
S'3.50'
p4109
sS'Hunters Of Dune (Dune Chronicles, #7)'
p4110
S'3.62'
p4111
sS'Quicksilver (The Baroque Cycle, #1)'
p4112
S'3.92'
p4113
sS'From Russia With Love (James Bond, #5)'
p4114
S'3.88'
p4115
sS'Point Deception (Cape Perdido, #1)'
p4116
S'3.69'
p4117
sS'Walk Gently This Good Earth'
p4118
S'3.49'
p4119
sS'Homeric Questions'
p4120
S'4.37'
p4121
sS"The Kids' Book about Death and Dying"
p4122
S'5.00'
p4123
sS"Cliffs Notes on Stevenson's Treasure Island and Kidnapped"
p4124
S'4.00'
p4125
sS'Euripides: Iphigenia at Aulis (Companions to Greek & Roman Tragedy)'
p4126
S'4.42'
p4127
sS"Real Estate Riches (Rich Dad's Advisors (Audio)) [ABRIDGED] (Rich Dad's Advisors (Audio))"
p4128
S'4.00'
p4129
sS'HTML, XHTML, and CSS (Visual Quickstart Guide)'
p4130
S'3.81'
p4131
sS'Collected Stories, 1911-1937'
p4132
S'4.26'
p4133
sS"Cleon, Knights, and Aristophanes' Politics"
p4134
S'4.00'
p4135
sS'Microserfs'
p4136
S'3.88'
p4137
sS'Vance Packard & American Social Criticism'
p4138
S'3.00'
p4139
sS'Taxonomic Monograph  of the Genus Aglaia (Meliaceae)'
p4140
S'3.50'
p4141
sS"Guns, Germs, and Steel (SparkNotes B&N Reader's Companion)"
p4142
S'3.98'
p4143
sS'The Untouchables'
p4144
S'3.86'
p4145
sS"The Leader's Handbook: Making Things Happen, Getting Things Done"
p4146
S'4.12'
p4147
s.