(dp1
I0
S'The History of The Decline and Fall of the Roman Empire Volume 2'
p2
sI1
S'Wonderful Balloon Ascents or, the Conquest of the Skies'
p3
sI2
S'With Edged Tools'
p4
sI3
S'The History of The Decline and Fall of the Roman Empire Volume 3'
p5
sI4
S'Orations'
p6
sI5
S'The History of The Decline and Fall of the Roman Empire Volume 4'
p7
sI6
S'Life of Cicero Volume One'
p8
sI7
S'Le C\xf4t\xe9 de Guermantes (Premi\xe8re partie)'
p9
sI8
S'Lord Kilgobbin'
p10
sI9
S'The Rose and the Ring'
p11
sI10
S'The History of The Decline and Fall of the Roman Empire Volume 5'
p12
sI11
S'The History of The Decline and Fall of the Roman Empire Volume 6'
p13
sI12
S'Explorations in Australia, The Journals of John McDouall Stuart When He Fixed The Centre Of The Continent And Successfully Crossed It From Sea To Sea'
p14
sI13
S'The History of The Decline and Fall of the Roman Empire Volume 1'
p15
sI14
S'The Lesson of the Master'
p16
sI15
S"A Connecticut Yankee in King Arthur's Court, Complete"
p17
sI16
S'The Beasts of Tarzan'
p18
sI17
S'Filipino Popular Tales'
p19
sI18
S'Edison, His Life and Inventions'
p20
sI19
S"Gulliver's Travels into several remote nations of the world"
p21
sI20
S'Dombey and Son'
p22
sI21
S'The Pilgrims Of The Rhine'
p23
sI22
S'The Life of St. Declan of Ardmore'
p24
sI23
S'The Development Psychology of Psychopathology'
p25
sI24
S'Issues in Ethics'
p26
sI25
S'Wars and Empire'
p27
sI26
S'Nina Balatka'
p28
sI27
S'The Magnificent Ambersons'
p29
sI28
S'Lemorne Versus Huell'
p30
sI29
S'An Ideal Husband A Play'
p31
sI30
S'The Road to Damascus A Trilogy'
p32
sI31
S'The Divine Comedy, Complete The Vision of Paradise, Purgatory and Hell'
p33
sI32
S'Two Years in the Forbidden City'
p34
sI33
S'Sketches by Boz illustrative of everyday life and every-day people'
p35
sI34
S'Our Mutual Friend'
p36
sI35
S'My Garden Acquaintance'
p37
sI36
S'Normandy, Part 2 The Scenery & Romance Of Its Ancient Towns'
p38
sI37
S'Introduction to the Dramas of Balzac'
p39
sI38
S'Normandy, Part 3 The Scenery & Romance Of Its Ancient Towns'
p40
sI39
S'Normandy, Part 1 The Scenery & Romance Of Its Ancient Towns'
p41
sI40
S'Stage-Land'
p42
sI41
S'Captivity and Restoration'
p43
sI42
S'Evergreens From a volume entitled "Idle Thoughts of an Idle Fellow"'
p44
sI43
S"Eve's Diary, Complete"
p45
sI44
S"Eve's Diary, Part 2"
p46
sI45
S"Eve's Diary, Part 3"
p47
sI46
S"Eve's Diary, Part 1"
p48
sI47
S'Dreams From a volume entitled "Idle Thoughts of an Idle Fellow"'
p49
sI48
S'Tom Grogan'
p50
sI49
S'Roughing It, Part 1.'
p51
sI50
S'Roughing It, Part 5.'
p52
sI51
S'Roughing It, Part 6.'
p53
sI52
S'Roughing It, Part 8.'
p54
sI53
S'Roughing It, Part 3.'
p55
sI54
S'Roughing It, Part 4.'
p56
sI55
S'Roughing It, Part 7.'
p57
sI56
S'The Art of Money Getting or, Golden Rules for Making Money'
p58
sI57
S'Roughing It, Part 2.'
p59
sI58
S'Andivius Hedulio'
p60
sI59
S'By Sheer Pluck A Tale of the Ashanti War'
p61
sI60
S'Racketty-Packetty House'
p62
sI61
S"Charles O'Malley, The Irish Dragoon, Volume 1 (of 2)"
p63
sI62
S'Normandy, Complete The Scenery & Romance Of Its Ancient Towns'
p64
sI63
S'Plays: Comrades; Facing Death; Pariah; Easter'
p65
sI64
S'The Woman With The Fan'
p66
sI65
S'Democracy and Education'
p67
sI66
S'Clocks From a volume entitled "Idle Thoughts of an Idle Fellow"'
p68
sI67
S'Lucky Pehr'
p69
sI68
S'Lourdes From the "Three Cities"'
p70
sI69
S'The Confutatio Pontificia'
p71
sI70
S'Polly of the Circus'
p72
sI71
S'The Mysterious Affair at Styles'
p73
sI72
S'Passing of the Third Floor Back'
p74
sI73
S'The Face And The Mask'
p75
sI74
S"Monsieur Lecoq, Premi\xc3\xa8re Partie, L'enqu\xc3\xaate"
p76
sI75
S"Monsieur Lecoq, Premi\xe8re Partie, L'enqu\xeate"
p77
sI76
S'The Fallen Star; and, A Dissertation on the Origin of Evil'
p78
sI77
S'Revenge!'
p79
sI78
S'Cetywayo and his White Neighbours Remarks on Recent Events in Zululand, Natal, and the Transvaal'
p80
sI79
S'Tales of Two Countries'
p81
sI80
S'Philosophy 4 A Story of Harvard University'
p82
sI81
S'Jack in the Forecastle'
p83
sI82
S"Charles O'Malley, The Irish Dragoon, Volume 2 (of 2)"
p84
sI83
S"L'Assommoir"
p85
sI84
S'The Dominion of the Air'
p86
sI85
S'Mrs. Korner Sins Her Mercies'
p87
sI86
S'Baby Mine'
p88
sI87
S'The Cost of Kindness From a volume entitled "Idle Thoughts of an Idle Fellow"'
p89
sI88
S'The Soul of Nicholas Snyders Or, The Miser Of Zandam'
p90
sI89
S"The Philosopher's Joke"
p91
sI90
S'Four Arthurian Romances "Erec et Enide", "Cliges", "Yvain", and "Lancelot"'
p92
sI91
S'Robin Hood'
p93
sI92
S'The Doings Of Raffles Haw'
p94
sI93
S'The Phoenix and the Carpet'
p95
sI94
S'Lectures of Col. R. G. Ingersoll - Latest'
p96
sI95
S'Canadian Crusoes A Tale of The Rice Lake Plains'
p97
sI96
S'The Theory of the Leisure Class'
p98
sI97
S'Jasmin: Barber, Poet, Philanthropist'
p99
sI98
S'The Bible, Douay-Rheims, Old and New Testaments, Complete The Challoner Revision'
p100
sI99
S'Memoirs of Sherlock Holmes'
p101
sI100
S'The Story of the Amulet'
p102
sI101
S'The Argonautica'
p103
sI102
S'The Vision of Paradise, Part 1. Translated By The Rev. H. F. Cary, Illustrated by Gustave Dore'
p104
sI103
S'The Vision of Paradise, Part 2. Translated By The Rev. H. F. Cary, Illustrated by Gustave Dore'
p105
sI104
S'The Vision of Purgatory, Part 3 Translated By The Rev. H. F. Cary, Illustrated by Gustave Dore'
p106
sI105
S'The Vision of Purgatory, Complete Translated By The Rev. H. F. Cary, Illustrated by Gustave Dore'
p107
sI106
S'The Vision of Purgatory, Part 4 Translated By The Rev. H. F. Cary, Illustrated by Gustave Dore'
p108
sI107
S'The Vision of Purgatory, Part 5 Translated By The Rev. H. F. Cary, Illustrated by Gustave Dore'
p109
sI108
S'The Vision of Purgatory, Part 2 Translated By The Rev. H. F. Cary, Illustrated by Gustave Dore'
p110
sI109
S'The Vision of Purgatory, Part 1 Translated By The Rev. H. F. Cary, Illustrated by Gustave Dore'
p111
sI110
S'The Vision of Paradise, Part 3. Translated By The Rev. H. F. Cary, Illustrated by Gustave Dore'
p112
sI111
S'The Vision of Paradise, Complete Translated By The Rev. H. F. Cary, Illustrated by Gustave Dore'
p113
sI112
S'Little Britain'
p114
sI113
S'The Golden Sayings of Epictetus'
p115
sI114
S'The Boy Captives An Incident of the Indian War of 1695'
p116
sI115
S'The Last Galley Impressions and Tales'
p117
sI116
S'Rome From the "Three Cities"'
p118
sI117
S'The Vision of Hell, Part 8, Translated By The Rev. H. F. Cary, Illustrated by Gustave Dore The Inferno'
p119
sI118
S'The Vision of Hell, Part 3, Translated By The Rev. H. F. Cary, Illustrated by Gustave Dore The Inferno'
p120
sI119
S'The Vision of Hell, Part 5, Translated By The Rev. H. F. Cary, Illustrated by Gustave Dore The Inferno'
p121
sI120
S'The Vision of Hell, Part 6, Translated By The Rev. H. F. Cary, Illustrated by Gustave Dore The Inferno'
p122
sI121
S'The Vision of Hell, Part 10, Translated By The Rev. H. F. Cary, Illustrated by Gustave Dore The Inferno'
p123
sI122
S'The Vision of Hell, Part 9, Translated By The Rev. H. F. Cary, Illustrated by Gustave Dore The Inferno'
p124
sI123
S'The Vision of Hell, Part 7, Translated By The Rev. H. F. Cary, Illustrated by Gustave Dore The Inferno'
p125
sI124
S'The Vision of Hell, Part 4, Translated By The Rev. H. F. Cary, Illustrated by Gustave Dore The Inferno'
p126
sI125
S'The Vision of Hell, Part 2, Translated By The Rev. H. F. Cary, Illustrated by Gustave Dore The Inferno'
p127
sI126
S'The Vision of Hell, Complete, Translated By The Rev. H. F. Cary, Illustrated by Gustave Dore The Inferno'
p128
sI127
S'Yankee Gypsies'
p129
sI128
S'Gaspar Ruiz'
p130
sI129
S'Robert Elsmere'
p131
sI130
S'Through the Fray A Tale of the Luddite Riots'
p132
sI131
S'A Little Bush Maid'
p133
sI132
S'The Vision of Hell, Part 1, Illustrated by Gustave Dore The Inferno'
p134
sI133
S'The Impostures of Scapin'
p135
sI134
S'The Dore Gallery of Bible Illustrations, Volume 8 Illustrated by Gustave Dore'
p136
sI135
S'The Dore Gallery of Bible Illustrations, Volume 7 Illustrated by Gustave Dore'
p137
sI136
S'The Dore Gallery of Bible Illustrations, Volume 6 Illustrated by Gustave Dore'
p138
sI137
S'The Dore Gallery of Bible Illustrations, Volume 3 Illustrated by Gustave Dore'
p139
sI138
S'The Dore Gallery of Bible Illustrations, Volume 9 Illustrated by Gustave Dore'
p140
sI139
S'The Dore Gallery of Bible Illustrations, Volume 4 Illustrated by Gustave Dore'
p141
sI140
S'The Dore Gallery of Bible Illustrations, Volume 1 Illustrated by Gustave Dore'
p142
sI141
S'The Dore Gallery of Bible Illustrations, Volume 2 Illustrated by Gustave Dore'
p143
sI142
S'The Dore Gallery of Bible Illustrations, Volume 5 Illustrated by Gustave Dore'
p144
sI143
S'The Love of Ulrich Nebendahl'
p145
sI144
S'Life in the Iron-Mills'
p146
sI146
S"Monsieur Lecoq, Seconde Partie, L'honneur Du Nom"
p147
sI147
S'The Dore Gallery of Bible Illustrations, Complete'
p148
sI148
S'A Man of Means'
p149
sI149
S'A History of Aeronautics'
p150
sI150
S'The Complete Plays of Gilbert and Sullivan The 14 Gilbert And Sullivan Plays'
p151
sI151
S'Tremendous Trifles'
p152
sI152
S'This Side of Paradise'
p153
sI153
S'A  Passionate Pilgrim'
p154
sI154
S'Louisa Pallant'
p155
sI155
S'Canyons of the Colorado'
p156
sI156
S'A Fool For Love'
p157
sI157
S'Pamela Giraud'
p158
sI158
S'Plays: The Father; Countess Julie; The Outlaw; The Stronger'
p159
sI159
S'The Last Hope'
p160
sI160
S'Issues in Population and Bioethics'
p161
sI161
S'Poems of Paul Verlaine'
p162
sI162
S'The First Book of Factoids'
p163
sI163
S'Idle Thoughts of an Idle Fellow'
p164
sI164
S'Life On The Mississippi, Part 10.'
p165
sI165
S'Life On The Mississippi, Part 12.'
p166
sI166
S'Life On The Mississippi, Part 11.'
p167
sI167
S'Frenzied Fiction'
p168
sI168
S'The Saint'
p169
sI169
S'Marse Henry, Complete An Autobiography'
p170
sI170
S'The Russian Revolution; The Jugo-Slav Movement'
p171
sI171
S'The Sturdy Oak A Composite Novel of American Politics by Fourteen American Authors'
p172
sI172
S'Life On The Mississippi, Part 6.'
p173
sI173
S'Life On The Mississippi, Part 2.'
p174
sI174
S'Life On The Mississippi, Part 4.'
p175
sI175
S'Life On The Mississippi, Part 8.'
p176
sI176
S'Life On The Mississippi, Part 3.'
p177
sI177
S'Life On The Mississippi, Part 5.'
p178
sI178
S'Life On The Mississippi, Part 9.'
p179
sI179
S'Life On The Mississippi, Part 7.'
p180
sI180
S'Life On The Mississippi, Part 1.'
p181
sI181
S'The Christian A Story'
p182
sI182
S"Young People's Pride"
p183
sI183
S'Lorna Doone, A Romance of Exmoor'
p184
sI184
S'Poems of Henry Timrod'
p185
sI185
S'Memoirs of Carwin the Biloquist (A Fragment)'
p186
sI186
S'C\xe6sar or Nothing'
p187
sI187
S'Between Friends'
p188
sI188
S'The Importance of Being Earnest A Trivial Comedy for Serious People'
p189
sI189
S'The Life of Francis Marion'
p190
sI190
S'Men, Women and Ghosts'
p191
sI191
S'Lays of Ancient Rome'
p192
sI192
S'The Black Arrow a Tale of Two Roses'
p193
sI193
S'Frankenstein or The Modern Prometheus'
p194
sI194
S'Reminiscences of Tolstoy By His Son'
p195
sI195
S"India's Love Lyrics"
p196
sI196
S'Dr. Faustus'
p197
sI197
S'The Aeroplane Speaks'
p198
sI198
S'The Virginians'
p199
sI199
S'Ghosts'
p200
sI200
S'Barlasch of the Guard'
p201
sI201
S'Henrik Ibsen'
p202
sI202
S"Colonel Thorndyke's Secret"
p203
sI203
S'A Street Of Paris And Its Inhabitant'
p204
sI204
S'The Young Engineers in Arizona Laying Tracks on the Man-killer Quicksand'
p205
sI205
S'Gargantua and Pantagruel, Book III. Five Books Of The Lives, Heroic Deeds And Sayings Of Gargantua And His Son Pantagruel'
p206
sI206
S'Gargantua and Pantagruel, Book IV. Five Books Of The Lives, Heroic Deeds And Sayings Of Gargantua And His Son Pantagruel'
p207
sI207
S'Gargantua and Pantagruel, Book II. Five Books Of The Lives, Heroic Deeds And Sayings Of Gargantua And His Son Pantagruel'
p208
sI208
S'Gargantua and Pantagruel, Book I. Five Books Of The Lives, Heroic Deeds And Sayings Of Gargantua And His Son Pantagruel'
p209
sI209
S'Gargantua and Pantagruel, Book V. Five Books Of The Lives, Heroic Deeds And Sayings Of Gargantua And His Son Pantagruel'
p210
sI210
S'The History of the Telephone'
p211
sI211
S"Captain Cook's Journal During the First Voyage Round the World"
p212
sI212
S'Imaginations and Reveries'
p213
sI213
S'Early Bardic Literature, Ireland'
p214
sI214
S'National Being Some Thoughts on an Irish Polity'
p215
sI215
S'Lectures of Col. R. G. Ingersoll, Volume I'
p216
sI216
S'Democracy In America, Volume 2 (of 2)'
p217
sI217
S'Democracy In America, Volume 1 (of 2)'
p218
sI218
S'The Possessed or, The Devils'
p219
sI219
S'Lincoln Letters'
p220
sI220
S'Hunting Sketches'
p221
sI221
S'Price/Cost Indexes from 1875 to 1989 Estimated to 2010'
p222
sI222
S'The Return of Tarzan'
p223
sI223
S'Ivanhoe A Romance'
p224
s.