(dp1
I0
S'The Return of Sherlock Holmes'
p2
sI1
S'Alice\xe2\x80\x99s Adventures in Wonderland'
p3
sI2
S'The Count of Monte Cristo'
p4
sI3
S'Through the Looking-Glass'
p5
sI4
S'The Three Musketeers'
p6
sI5
S'The Waste Land'
p7
sI6
S'Pride and Prejudice'
p8
sI7
S'Les Mis\xc3\xa9rables Complete in Five Volumes'
p9
sI8
S'Anna Karenina'
p10
sI9
S'The Jungle'
p11
sI10
S'Great Expectations'
p12
sI11
S'Mansfield Park'
p13
sI12
S'Emma'
p14
sI13
S'Peter Pan Peter Pan and Wendy'
p15
sI14
S'The Awakening and Selected Short Stories'
p16
sI15
S'The Man Who Was Thursday A Nightmare'
p17
sI16
S'The Sea-Gull'
p18
sI17
S"Pascal's Pens\xc3\xa9es"
p19
sI18
S'The Prince and The Pauper, Complete'
p20
sI19
S'Songs of Innocence and Songs of Experience'
p21
sI20
S'Thus Spake Zarathustra A Book for All and None'
p22
sI21
S'Uncle Tom\xe2\x80\x99s Cabin'
p23
sI22
S'Walden, and On The Duty Of Civil Disobedience'
p24
sI23
S'The Turn of the Screw'
p25
sI24
S'Aesop\xe2\x80\x99s Fables'
p26
sI25
S'The Call of the Wild'
p27
sI26
S'Heart of Darkness'
p28
sI27
S'The Tempest The Works of William Shakespeare [Cambridge Edition] [9 vols.]'
p29
sI28
S'The Jungle Book'
p30
sI29
S'Madame Bovary'
p31
sI30
S'A Study In Scarlet'
p32
sI31
S'Crime and Punishment'
p33
sI32
S'Grimms\xe2\x80\x99 Fairy Tales'
p34
sI33
S'War and Peace'
p35
sI34
S'Notre-Dame de Paris The Hunchback of Notre Dame'
p36
sI35
S'Project Gutenberg EBook of Title: The Idiot, by Fyodor Dostoyevsky This eBook is for the use of anyone anywhere at no cost and with almost no restrictions whatsoever.  You may copy it, give it away or re-use it under the terms of the Project Gutenberg License included with this eBook or online at www.gutenberg.org Title: Title: The Idiot'
p37
sI36
S'Moby Dick; or The Whale'
p38
sI37
S'The Brothers Karamazov'
p39
sI38
S'Dubliners'
p40
sI39
S'The Hound of the Baskervilles'
p41
sI40
S'Maupassant Original Short Stories (180), Complete'
p42
sI41
S'The Essays of Montaigne, Complete'
p43
sI42
S'The Confessions of Jean Jacques Rousseau In 12 books--Privately Printed for the Members of the Aldus Society--London, 1903'
p44
sI43
S'The Legend of Sleepy Hollow'
p45
sI44
S'The Strange Case Of Dr. Jekyll And Mr. Hyde'
p46
sI45
S'Ulysses'
p47
sI46
S'Ethan Frome'
p48
sI47
S'The Social Contract & Discourses'
p49
sI48
S'The Birth of Tragedy or Hellenism and Pessimism'
p50
sI49
S'The Life and Adventures of Robinson Crusoe'
p51
sI50
S'Ecce Homo Complete Works, Volume Seventeen'
p52
sI51
S'The Genealogy of Morals The Complete Works, Volume Thirteen, edited by Dr. Oscar Levy.'
p53
sI52
S'The Adventures of Tom Sawyer, Complete'
p54
sI53
S'Adventures of Huckleberry Finn, Complete'
p55
sI54
S'David Copperfield'
p56
sI55
S'Hard Times'
p57
sI56
S'This Side of Paradise'
p58
sI57
S'The Man Who Would Be King'
p59
sI58
S"Gulliver's Travels into several remote nations of the world"
p60
sI59
S'The Last of the Mohicans'
p61
sI60
S'A Tale of Two Cities A Story of the French Revolution'
p62
sI61
S'The King James Bible'
p63
sI62
S'Around the World in 80 Days'
p64
sI63
S"Shakespeare's Sonnets"
p65
sI64
S'Persuasion'
p66
sI65
S'The Cask of Amontillado'
p67
sI66
S'The Masque of the Red Death'
p68
sI67
S'A Modest Proposal For preventing the children of poor people in Ireland, from being a burden on their parents or country, and for making them beneficial to the publick - 1729'
p69
sI68
S'Heroes and Hero Worship'
p70
sI69
S"Tess of the d'Urbervilles A Pure Woman"
p71
sI70
S'King Richard III'
p72
sI73
S'Romeo and Juliet'
p73
sI75
S'As You Like It'
p74
sI76
S'Utilitarianism'
p75
sI78
S'Treasure Island'
p76
sI79
S'On the Origin of Species 1st Edition'
p77
sI80
S'The Prince'
p78
sI81
S'Anthem'
p79
sI82
S'Jane Eyre an Autobiography'
p80
sI83
S'The Legends Of King Arthur And His Knights'
p81
sI84
S'Leaves of Grass'
p82
sI85
S'The Lost World'
p83
sI86
S'The Federalist Papers'
p84
sI87
S'Middlemarch'
p85
sI88
S'Faust'
p86
sI89
S'Common Sense'
p87
sI90
S'The Republic'
p88
sI93
S'Protagoras'
p89
sI94
S'Symposium'
p90
sI95
S'Sense and Sensibility'
p91
sI96
S'Beowulf An Anglo-Saxon Epic Poem, Translated From The Heyne-Socin Text by Lesslie Hall'
p92
sI97
S'Ion'
p93
sI98
S'Phaedrus'
p94
sI99
S'Euthyphro'
p95
sI100
S'Meno'
p96
sI101
S'Apology Also known as "The Death of Socrates"'
p97
sI102
S'Phaedo The Last Hours Of Socrates'
p98
sI103
S'The Adventures of Sherlock Holmes'
p99
sI104
S'Gorgias'
p100
sI105
S'The Raven'
p101
sI106
S'Theaetetus'
p102
sI107
S'The Odyssey'
p103
sI108
S'Sophist'
p104
sI109
S'The Picture of Dorian Gray'
p105
sI110
S'The Antichrist'
p106
sI111
S'Poetics'
p107
sI112
S'Candide'
p108
sI113
S'Paradise Lost'
p109
sI114
S'The Napoleon of Notting Hill'
p110
sI115
S'Autobiography of Benjamin Franklin'
p111
sI116
S'The Sign of the Four'
p112
sI117
S'Utopia'
p113
sI118
S'Don Juan'
p114
sI119
S'Kim'
p115
sI125
S'The Aeneid'
p116
sI126
S'The Narrative of the Life of Frederick Douglass An American Slave'
p117
sI127
S''
sI128
S'Story of My Life'
p118
sI129
S'Essay on Man Moral Essays and Satires'
p119
sI130
S'Siddhartha'
p120
sI131
S'The Sorrows of Young Werther'
p121
sI132
S"A Doll's House"
p122
sI133
S'The Clouds'
p123
sI134
S'The History Of The Decline And Fall Of The Roman Empire Table of Contents with links in the HTML file to the two Project Gutenberg editions (12 volumes)'
p124
sI135
S'Meditations'
p125
sI136
S'The Kama Sutra of Vatsyayana Translated From The Sanscrit In Seven Parts With Preface, Introduction and Concluding Remarks'
p126
sI137
S'The Middle Class Gentleman (Le Bourgeois Gentilhomme)'
p127
sI138
S'The Birds'
p128
sI139
S'Leviathan'
p129
sI140
S'The Confessions of Saint Augustine'
p130
sI141
S'The Scarlet Letter'
p131
sI142
S'An Inquiry into the Nature and Causes of the Wealth of Nations'
p132
sI143
S'A Vindication of the Rights of Woman Title: Vindication of the Rights of Women'
p133
sI144
S'Dracula'
p134
sI145
S'On Liberty'
p135
sI146
S'The Time Machine'
p136
sI147
S'The War of the Worlds'
p137
sI148
S'The Ethics'
p138
sI149
S'Human, All Too Human A Book for Free Spirits'
p139
sI150
S'Pygmalion'
p140
sI151
S'The Souls of Black Folk'
p141
sI152
S'Hedda Gabler Play In Four Acts'
p142
sI153
S'Dr. Jekyll and Mr. Hyde'
p143
sI154
S'A Portrait of the Artist as a Young Man'
p144
sI155
S'The Critique of Pure Reason'
p145
sI156
S'Beyond Good and Evil'
p146
sI157
S'Twelve Years a Slave Narrative of Solomon Northup, a Citizen of New-York, Kidnapped in Washington City in 1841, and Rescued in 1853, from a Cotton Plantation near the Red River in Louisiana'
p147
sI158
S'A Christmas Carol A Ghost Story of Christmas'
p148
sI159
S'A Treatise of Human Nature'
p149
sI160
S'Little Women'
p150
sI161
S'Metamorphosis'
p151
sI162
S'The Invisible Man'
p152
sI164
S'The Age of Innocence'
p153
sI165
S'Emile'
p154
sI166
S'The Wonderful Wizard of Oz'
p155
sI167
S'The Problems of Philosophy'
p156
sI168
S'A Discourse on Method'
p157
sI169
S'Notes from the Underground'
p158
sI170
S'The Communist Manifesto'
p159
sI171
S'The Iliad of Homer'
p160
sI172
S'A Princess of Mars'
p161
sI173
S'Politics A Treatise on Government'
p162
sI174
S'On the Duty of Civil Disobedience'
p163
sI175
S'The History of the Peloponnesian War'
p164
sI176
S"Swann's Way Remembrance of Things Past, Volume One"
p165
sI177
S'Oliver Twist'
p166
sI178
S'Second Treatise of Government'
p167
sI179
S'Wuthering Heights'
p168
sI180
S'Lysistrata'
p169
sI181
S'The Tragical History of Dr. Faustus'
p170
sI182
S'Tarzan of the Apes'
p171
sI183
S'The Trial'
p172
sI184
S'The Frogs'
p173
sI185
S'The Return of Tarzan'
p174
sI186
S'The Possessed or, The Devils'
p175
sI187
S'My Man Jeeves'
p176
sI188
S'Frankenstein or The Modern Prometheus'
p177
sI189
S'The Importance of Being Earnest A Trivial Comedy for Serious People'
p178
sI190
S'The Beasts of Tarzan'
p179
sI191
S'Democracy and Education'
p180
sI192
S'The Grand Inquisitor'
p181
sI193
S'The Divine Comedy, Complete The Vision of Paradise, Purgatory and Hell'
p182
sI194
S'The Fall of the House of Usher'
p183
sI195
S'An Enquiry Concerning Human Understanding'
p184
sI196
S'The Rape of the Lock and Other Poems'
p185
sI197
S'The Beautiful and the Damned'
p186
sI198
S'Don Quixote'
p187
s.