(dp1
S'8170'
p2
I209
sS'8389'
p3
I94
sS'8421'
p4
I162
sS'8407-8'
p5
I181
sS'8155'
p6
I202
sS'8153'
p7
I204
sS'8150'
p8
I203
sS'8789'
p9
I126
sS'885-0'
p10
I29
sS'8549'
p11
I64
sS'8121-8'
p12
I199
sS'8783'
p13
I119
sS'8782'
p14
I124
sS'8781'
p15
I118
sS'8780'
p16
I125
sS'8787'
p17
I122
sS'8786'
p18
I117
sS'8785'
p19
I123
sS'8784'
p20
I120
sS'8420'
p21
I160
sS'8663-8'
p22
I79
sS'8403-8'
p23
I182
sS'8650-8'
p24
I75
sS'819'
p25
I210
sS'8460-8'
p26
I169
sS'8650-0'
p27
I74
sS'8435-8'
p28
I171
sS'8499-8'
p29
I158
sS'814'
p30
I220
sS'8654'
p31
I76
sS'816'
p32
I216
sS'8465-8'
p33
I170
sS'8638'
p34
I81
sS'8140'
p35
I215
sS'8875-8'
p36
I30
sS'84'
p37
I193
sS'8732'
p38
I130
sS'8158'
p39
I200
sS'8703'
p40
I137
sS'8702'
p41
I141
sS'8701'
p42
I140
sS'8788'
p43
I121
sS'882-0'
p44
I33
sS'8668-8'
p45
I77
sS'8705'
p46
I142
sS'8704'
p47
I139
sS'8709'
p48
I138
sS'8708'
p49
I134
sS'821'
p50
I20
sS'820'
p51
I18
sS'823'
p52
I22
sS'895-8'
p53
I11
sS'8082-8'
p54
I155
sS'8472'
p55
I173
sS'871-8'
p56
I113
sS'894-8'
p57
I10
sS'8600'
p58
I83
sS'8109-8'
p59
I213
sS'88'
p60
I221
sS'8528'
p61
I45
sS'8441'
p62
I187
sS'82'
p63
I223
sS'81'
p64
I222
sS'86'
p65
I15
sS'8526'
p66
I46
sS'8525'
p67
I43
sS'85'
p68
I16
sS'832'
p69
I91
sS'830'
p70
I101
sS'831'
p71
I90
sS'836'
p72
I93
sS'837'
p73
I100
sS'838'
p74
I97
sS'8073'
p75
I156
sS'8737-8'
p76
I129
sS'8394'
p77
I92
sS'8455-8'
p78
I168
sS'8800'
p79
I31
sS'892-8'
p80
I3
sS'8707'
p81
I135
sS'891-8'
p82
I0
sS'8730'
p83
I131
sS'8706'
p84
I136
sS'8516'
p85
I68
sS'8681-8'
p86
I73
sS'8776-8'
p87
I133
sS'8206'
p88
I21
sS'8457'
p89
I167
sS'8382-8'
p90
I95
sS'8674-8'
p91
I82
sS'844'
p92
I188
sS'843'
p93
I189
sS'842'
p94
I185
sS'8713-8'
p95
I148
sS'840'
p96
I183
sS'8897'
p97
I26
sS'8593-8'
p98
I39
sS'849'
p99
I163
sS'8939'
p100
I2
sS'847-8'
p101
I191
sS'8505-8'
p102
I62
sS'8727'
p103
I115
sS'8218'
p104
I25
sS'8719-8'
p105
I146
sS'8215'
p106
I23
sS'8216'
p107
I24
sS'8092-8'
p108
I151
sS'8945-8'
p109
I6
sS'8110'
p110
I219
sS'8117'
p111
I218
sS'8197'
p112
I195
sS'855'
p113
I66
sS'856'
p114
I47
sS'857'
p115
I42
sS'850'
p116
I48
sS'851'
p117
I41
sS'852'
p118
I65
sS'853'
p119
I69
sS'8123'
p120
I198
sS'858'
p121
I40
sS'829-0'
p122
I19
sS'813'
p123
I194
sS'8946-8'
p124
I7
sS'8598'
p125
I37
sS'8867-8'
p126
I27
sS'8594-8'
p127
I36
sS'8941-8'
p128
I8
sS'8793'
p129
I106
sS'8105'
p130
I212
sS'8104'
p131
I214
sS'8300-8'
p132
I98
sS'8779'
p133
I132
sS'8574'
p134
I60
sS'890-8'
p135
I13
sS'8576'
p136
I59
sS'8479'
p137
I178
sS'8478'
p138
I175
sS'8475'
p139
I177
sS'8474'
p140
I174
sS'8477'
p141
I179
sS'8476'
p142
I172
sS'8471'
p143
I180
sS'8473'
p144
I176
sS'805-8'
p145
I152
sS'869'
p146
I88
sS'868'
p147
I89
sS'8595'
p148
I38
sS'841'
p149
I190
sS'861'
p150
I84
sS'860'
p151
I86
sS'863'
p152
I71
sS'862'
p153
I80
sS'865'
p154
I72
sS'815'
p155
I217
sS'867'
p156
I85
sS'866'
p157
I87
sS'8589'
p158
I52
sS'8588'
p159
I55
sS'8667'
p160
I78
sS'8581'
p161
I56
sS'8583'
p162
I57
sS'8582'
p163
I49
sS'8585'
p164
I54
sS'8584'
p165
I53
sS'8587'
p166
I51
sS'8586'
p167
I50
sS'883'
p168
I34
sS'881'
p169
I28
sS'880'
p170
I35
sS'8577-8'
p171
I61
sS'889'
p172
I32
sS'8106'
p173
I211
sS'8299-8'
p174
I17
sS'8500-8'
p175
I63
sS'848'
p176
I192
sS'833-8'
p177
I96
sS'8426-8'
p178
I161
sS'8710'
p179
I147
sS'878'
p180
I127
sS'879'
p181
I114
sS'876'
p182
I144
sS'8527'
p183
I44
sS'874'
p184
I149
sS'870'
p185
I143
sS'808'
p186
I150
sS'8736-8'
p187
I128
sS'8493'
p188
I159
sS'893-8'
p189
I5
sS'834-8'
p190
I99
sS'8510-8'
p191
I67
sS'8167'
p192
I207
sS'8166'
p193
I208
sS'896'
p194
I4
sS'897'
p195
I9
sS'898'
p196
I14
sS'899'
p197
I1
sS'8169'
p198
I206
sS'8168'
p199
I205
sS'8444-8'
p200
I186
sS'8079'
p201
I157
sS'8798'
p202
I110
sS'8799'
p203
I111
sS'859'
p204
I70
sS'845-8'
p205
I184
sS'8790'
p206
I109
sS'8791'
p207
I108
sS'8792'
p208
I104
sS'8532-8'
p209
I58
sS'8794'
p210
I107
sS'8795'
p211
I105
sS'8796'
p212
I102
sS'8797'
p213
I103
sS'8152-8'
p214
I201
sS'8080'
p215
I153
sS'8081'
p216
I154
sS'818'
p217
I197
sS'8726-8'
p218
I116
sS'8480'
p219
I164
sS'8481'
p220
I166
sS'8482'
p221
I165
sS'8911'
p222
I12
sS'811-8'
p223
I196
sS'877'
p224
I112
s.