(dp1
S'Henrik Ibsen'
p2
S'8152-8'
p3
sS'Introduction to the Dramas of Balzac'
p4
S'8598'
p5
sS'The Saint'
p6
S'8455-8'
p7
sS'The Boy Captives An Incident of the Indian War of 1695'
p8
S'879'
p9
sS'The Complete Plays of Gilbert and Sullivan The 14 Gilbert And Sullivan Plays'
p10
S'808'
p11
sS'The Vision of Hell, Part 6, Translated By The Rev. H. F. Cary, Illustrated by Gustave Dore The Inferno'
p12
S'8784'
p13
sS'The Lesson of the Master'
p14
S'898'
p15
sS'With Edged Tools'
p16
S'8939'
p17
sS'Passing of the Third Floor Back'
p18
S'865'
p19
sS'Issues in Ethics'
p20
S'8216'
p21
sS'Frankenstein or The Modern Prometheus'
p22
S'84'
p23
sS'Wonderful Balloon Ascents or, the Conquest of the Skies'
p24
S'899'
p25
sS'The Vision of Hell, Part 4, Translated By The Rev. H. F. Cary, Illustrated by Gustave Dore The Inferno'
p26
S'8782'
p27
sS'The Life of St. Declan of Ardmore'
p28
S'823'
p29
sS'The Dominion of the Air'
p30
S'861'
p31
sS'The Rose and the Ring'
p32
S'897'
p33
sS"Colonel Thorndyke's Secret"
p34
S'8155'
p35
sS'The Pilgrims Of The Rhine'
p36
S'8206'
p37
sS'A  Passionate Pilgrim'
p38
S'8080'
p39
sS'Gargantua and Pantagruel, Book III. Five Books Of The Lives, Heroic Deeds And Sayings Of Gargantua And His Son Pantagruel'
p40
S'8168'
p41
sS'The Dore Gallery of Bible Illustrations, Volume 5 Illustrated by Gustave Dore'
p42
S'8705'
p43
sS"Captain Cook's Journal During the First Voyage Round the World"
p44
S'8106'
p45
sS'National Being Some Thoughts on an Irish Polity'
p46
S'8104'
p47
sS'Lectures of Col. R. G. Ingersoll - Latest'
p48
S'8389'
p49
sS'Polly of the Circus'
p50
S'859'
p51
sS'The Vision of Purgatory, Part 2 Translated By The Rev. H. F. Cary, Illustrated by Gustave Dore'
p52
S'8791'
p53
sS'Roughing It, Part 8.'
p54
S'8589'
p55
sS'The Mysterious Affair at Styles'
p56
S'863'
p57
sS'Jasmin: Barber, Poet, Philanthropist'
p58
S'838'
p59
sS'A Man of Means'
p60
S'8713-8'
p61
sS'The Importance of Being Earnest A Trivial Comedy for Serious People'
p62
S'844'
p63
sS'The Return of Tarzan'
p64
S'81'
p65
sS'Orations'
p66
S'896'
p67
sS'Cetywayo and his White Neighbours Remarks on Recent Events in Zululand, Natal, and the Transvaal'
p68
S'8667'
p69
sS'The Last Galley Impressions and Tales'
p70
S'8727'
p71
sS'Life On The Mississippi, Part 8.'
p72
S'8478'
p73
sS'Price/Cost Indexes from 1875 to 1989 Estimated to 2010'
p74
S'88'
p75
sS'Life On The Mississippi, Part 6.'
p76
S'8476'
p77
sS'The Vision of Paradise, Part 3. Translated By The Rev. H. F. Cary, Illustrated by Gustave Dore'
p78
S'8798'
p79
sS'The Vision of Purgatory, Part 3 Translated By The Rev. H. F. Cary, Illustrated by Gustave Dore'
p80
S'8792'
p81
sS'Louisa Pallant'
p82
S'8081'
p83
sS'Plays: Comrades; Facing Death; Pariah; Easter'
p84
S'8500-8'
p85
sS'Little Britain'
p86
S'877'
p87
sS'Gargantua and Pantagruel, Book V. Five Books Of The Lives, Heroic Deeds And Sayings Of Gargantua And His Son Pantagruel'
p88
S'8170'
p89
sS'A Street Of Paris And Its Inhabitant'
p90
S'8150'
p91
sS'Baby Mine'
p92
S'860'
p93
sS'This Side of Paradise'
p94
S'805-8'
p95
sS'The Vision of Hell, Complete, Translated By The Rev. H. F. Cary, Illustrated by Gustave Dore The Inferno'
p96
S'8789'
p97
sS'Issues in Population and Bioethics'
p98
S'8420'
p99
sS'Roughing It, Part 7.'
p100
S'8588'
p101
sS'Canyons of the Colorado'
p102
S'8082-8'
p103
sS'The Theory of the Leisure Class'
p104
S'833-8'
p105
sS'The Vision of Hell, Part 5, Translated By The Rev. H. F. Cary, Illustrated by Gustave Dore The Inferno'
p106
S'8783'
p107
sS'Lourdes From the "Three Cities"'
p108
S'8516'
p109
sS'The Vision of Hell, Part 8, Translated By The Rev. H. F. Cary, Illustrated by Gustave Dore The Inferno'
p110
S'8786'
p111
sS'Hunting Sketches'
p112
S'814'
p113
sS'Reminiscences of Tolstoy By His Son'
p114
S'813'
p115
sS"The Philosopher's Joke"
p116
S'868'
p117
sS'Gargantua and Pantagruel, Book IV. Five Books Of The Lives, Heroic Deeds And Sayings Of Gargantua And His Son Pantagruel'
p118
S'8169'
p119
sS'Normandy, Complete The Scenery & Romance Of Its Ancient Towns'
p120
S'8505-8'
p121
sS'The Life of Francis Marion'
p122
S'843'
p123
sS'Life On The Mississippi, Part 7.'
p124
S'8477'
p125
sS'Plays: The Father; Countess Julie; The Outlaw; The Stronger'
p126
S'8499-8'
p127
sS'Filipino Popular Tales'
p128
S'8299-8'
p129
sS'Nina Balatka'
p130
S'8897'
p131
sS"Charles O'Malley, The Irish Dragoon, Volume 1 (of 2)"
p132
S'8577-8'
p133
sS'Ghosts'
p134
S'8121-8'
p135
sS'Life in the Iron-Mills'
p136
S'876'
p137
sS'A Little Bush Maid'
p138
S'8730'
p139
sS'The Dore Gallery of Bible Illustrations, Complete'
p140
S'8710'
p141
sS'Life On The Mississippi, Part 10.'
p142
S'8480'
p143
sS'Jack in the Forecastle'
p144
S'8638'
p145
sS'The Dore Gallery of Bible Illustrations, Volume 8 Illustrated by Gustave Dore'
p146
S'8708'
p147
sS'The Dore Gallery of Bible Illustrations, Volume 1 Illustrated by Gustave Dore'
p148
S'8701'
p149
sS'Roughing It, Part 6.'
p150
S'8587'
p151
sS'Andivius Hedulio'
p152
S'8532-8'
p153
sS'Democracy and Education'
p154
S'852'
p155
sS'Tom Grogan'
p156
S'850'
p157
sS'Life On The Mississippi, Part 1.'
p158
S'8471'
p159
sS'The Last Hope'
p160
S'8493'
p161
sS'Lorna Doone, A Romance of Exmoor'
p162
S'840'
p163
sS'The Dore Gallery of Bible Illustrations, Volume 3 Illustrated by Gustave Dore'
p164
S'8703'
p165
sS'The Love of Ulrich Nebendahl'
p166
S'870'
p167
sS'The Vision of Purgatory, Part 5 Translated By The Rev. H. F. Cary, Illustrated by Gustave Dore'
p168
S'8794'
p169
sS'C\xe6sar or Nothing'
p170
S'8444-8'
p171
sS'The Vision of Hell, Part 2, Translated By The Rev. H. F. Cary, Illustrated by Gustave Dore The Inferno'
p172
S'8780'
p173
sS'The Sturdy Oak A Composite Novel of American Politics by Fourteen American Authors'
p174
S'8435-8'
p175
sS'The Divine Comedy, Complete The Vision of Paradise, Purgatory and Hell'
p176
S'8800'
p177
sS'The Virginians'
p178
S'8123'
p179
sS"Eve's Diary, Part 1"
p180
S'8526'
p181
sS"L'Assommoir"
p182
S'8600'
p183
sS"Eve's Diary, Part 3"
p184
S'8528'
p185
sS"Eve's Diary, Part 2"
p186
S'8527'
p187
sS'Poems of Paul Verlaine'
p188
S'8426-8'
p189
sS'Gaspar Ruiz'
p190
S'8736-8'
p191
sS'The Vision of Hell, Part 9, Translated By The Rev. H. F. Cary, Illustrated by Gustave Dore The Inferno'
p192
S'8787'
p193
sS"Monsieur Lecoq, Seconde Partie, L'honneur Du Nom"
p194
S'8719-8'
p195
sS'A History of Aeronautics'
p196
S'874'
p197
sS'Frenzied Fiction'
p198
S'8457'
p199
sS'Dombey and Son'
p200
S'821'
p201
sS'Roughing It, Part 5.'
p202
S'8586'
p203
sS'Lucky Pehr'
p204
S'8510-8'
p205
sS'Captivity and Restoration'
p206
S'851'
p207
sS'The Cost of Kindness From a volume entitled "Idle Thoughts of an Idle Fellow"'
p208
S'866'
p209
sS'The Vision of Hell, Part 3, Translated By The Rev. H. F. Cary, Illustrated by Gustave Dore The Inferno'
p210
S'8781'
p211
sS'Men, Women and Ghosts'
p212
S'841'
p213
sS'The Impostures of Scapin'
p214
S'8776-8'
p215
sS'Pamela Giraud'
p216
S'8079'
p217
sS'The Woman With The Fan'
p218
S'8549'
p219
sS'The Face And The Mask'
p220
S'8681-8'
p221
sS'Idle Thoughts of an Idle Fellow'
p222
S'849'
p223
sS"India's Love Lyrics"
p224
S'8197'
p225
sS'The Vision of Paradise, Complete Translated By The Rev. H. F. Cary, Illustrated by Gustave Dore'
p226
S'8799'
p227
sS'The Soul of Nicholas Snyders Or, The Miser Of Zandam'
p228
S'869'
p229
sS'Life On The Mississippi, Part 5.'
p230
S'8475'
p231
sS'By Sheer Pluck A Tale of the Ashanti War'
p232
S'8576'
p233
sS'The History of The Decline and Fall of the Roman Empire Volume 6'
p234
S'895-8'
p235
sS'The Story of the Amulet'
p236
S'837'
p237
sS'The History of The Decline and Fall of the Roman Empire Volume 4'
p238
S'893-8'
p239
sS'The History of The Decline and Fall of the Roman Empire Volume 5'
p240
S'894-8'
p241
sS'The History of The Decline and Fall of the Roman Empire Volume 2'
p242
S'891-8'
p243
sS'The History of The Decline and Fall of the Roman Empire Volume 3'
p244
S'892-8'
p245
sS'The History of The Decline and Fall of the Roman Empire Volume 1'
p246
S'890-8'
p247
sS'Lord Kilgobbin'
p248
S'8941-8'
p249
sS'Life On The Mississippi, Part 12.'
p250
S'8482'
p251
sS'Sketches by Boz illustrative of everyday life and every-day people'
p252
S'882-0'
p253
sS'Roughing It, Part 4.'
p254
S'8585'
p255
sS'The Golden Sayings of Epictetus'
p256
S'871-8'
p257
sS'Early Bardic Literature, Ireland'
p258
S'8109-8'
p259
sS'Explorations in Australia, The Journals of John McDouall Stuart When He Fixed The Centre Of The Continent And Successfully Crossed It From Sea To Sea'
p260
S'8911'
p261
sS'Through the Fray A Tale of the Luddite Riots'
p262
S'8732'
p263
sS'Lemorne Versus Huell'
p264
S'881'
p265
sS'Gargantua and Pantagruel, Book II. Five Books Of The Lives, Heroic Deeds And Sayings Of Gargantua And His Son Pantagruel'
p266
S'8167'
p267
sS'Imaginations and Reveries'
p268
S'8105'
p269
sS'Memoirs of Sherlock Holmes'
p270
S'834-8'
p271
sS'Clocks From a volume entitled "Idle Thoughts of an Idle Fellow"'
p272
S'855'
p273
sS'Stage-Land'
p274
S'858'
p275
sS'Philosophy 4 A Story of Harvard University'
p276
S'862'
p277
sS'Dreams From a volume entitled "Idle Thoughts of an Idle Fellow"'
p278
S'856'
p279
sS'The Possessed or, The Devils'
p280
S'8117'
p281
sS'The Vision of Hell, Part 7, Translated By The Rev. H. F. Cary, Illustrated by Gustave Dore The Inferno'
p282
S'8785'
p283
sS'Four Arthurian Romances "Erec et Enide", "Cliges", "Yvain", and "Lancelot"'
p284
S'831'
p285
sS'Our Mutual Friend'
p286
S'883'
p287
sS'The Beasts of Tarzan'
p288
S'85'
p289
sS'The Bible, Douay-Rheims, Old and New Testaments, Complete The Challoner Revision'
p290
S'8300-8'
p291
sS'An Ideal Husband A Play'
p292
S'885-0'
p293
sS'Revenge!'
p294
S'8668-8'
p295
sS'The Dore Gallery of Bible Illustrations, Volume 9 Illustrated by Gustave Dore'
p296
S'8709'
p297
sS'The Vision of Hell, Part 1, Illustrated by Gustave Dore The Inferno'
p298
S'8779'
p299
sS'Lincoln Letters'
p300
S'8110'
p301
sS'Lays of Ancient Rome'
p302
S'847-8'
p303
sS'Life On The Mississippi, Part 2.'
p304
S'8472'
p305
sS'The Doings Of Raffles Haw'
p306
S'8394'
p307
sS'The Russian Revolution; The Jugo-Slav Movement'
p308
S'8465-8'
p309
sS'The Dore Gallery of Bible Illustrations, Volume 6 Illustrated by Gustave Dore'
p310
S'8706'
p311
sS'Wars and Empire'
p312
S'8218'
p313
sS'Roughing It, Part 3.'
p314
S'8584'
p315
sS'Mrs. Korner Sins Her Mercies'
p316
S'867'
p317
sS"Eve's Diary, Complete"
p318
S'8525'
p319
sS'Life On The Mississippi, Part 11.'
p320
S'8481'
p321
sS'A Fool For Love'
p322
S'8073'
p323
sS'The Vision of Purgatory, Part 1 Translated By The Rev. H. F. Cary, Illustrated by Gustave Dore'
p324
S'8790'
p325
sS'Life On The Mississippi, Part 3.'
p326
S'8473'
p327
sS'Two Years in the Forbidden City'
p328
S'889'
p329
sS'The Vision of Paradise, Part 2. Translated By The Rev. H. F. Cary, Illustrated by Gustave Dore'
p330
S'8797'
p331
sS'The Art of Money Getting or, Golden Rules for Making Money'
p332
S'8581'
p333
sS'Ivanhoe A Romance'
p334
S'82'
p335
sS'Life On The Mississippi, Part 4.'
p336
S'8474'
p337
sS'The Argonautica'
p338
S'830'
p339
sS"Charles O'Malley, The Irish Dragoon, Volume 2 (of 2)"
p340
S'8674-8'
p341
sS'The Magnificent Ambersons'
p342
S'8867-8'
p343
sS'Lectures of Col. R. G. Ingersoll, Volume I'
p344
S'8140'
p345
sS'Robin Hood'
p346
S'832'
p347
sS'The Confutatio Pontificia'
p348
S'853'
p349
sS'The Christian A Story'
p350
S'8407-8'
p351
sS"Monsieur Lecoq, Premi\xc3\xa8re Partie, L'enqu\xc3\xaate"
p352
S'8650-0'
p353
sS'The Vision of Paradise, Part 1. Translated By The Rev. H. F. Cary, Illustrated by Gustave Dore'
p354
S'8796'
p355
sS"Gulliver's Travels into several remote nations of the world"
p356
S'829-0'
p357
sS'Between Friends'
p358
S'8441'
p359
sS'Marse Henry, Complete An Autobiography'
p360
S'8460-8'
p361
sS'Yankee Gypsies'
p362
S'878'
p363
sS'Barlasch of the Guard'
p364
S'8158'
p365
sS"Young People's Pride"
p366
S'8403-8'
p367
sS'Evergreens From a volume entitled "Idle Thoughts of an Idle Fellow"'
p368
S'857'
p369
sS'Gargantua and Pantagruel, Book I. Five Books Of The Lives, Heroic Deeds And Sayings Of Gargantua And His Son Pantagruel'
p370
S'8166'
p371
sS'The Black Arrow a Tale of Two Roses'
p372
S'848'
p373
sS'Roughing It, Part 2.'
p374
S'8583'
p375
sS'The Aeroplane Speaks'
p376
S'818'
p377
sS'Democracy In America, Volume 2 (of 2)'
p378
S'816'
p379
sS'Robert Elsmere'
p380
S'8737-8'
p381
sS'The Dore Gallery of Bible Illustrations, Volume 7 Illustrated by Gustave Dore'
p382
S'8707'
p383
sS"Monsieur Lecoq, Premi\xe8re Partie, L'enqu\xeate"
p384
S'8650-8'
p385
sS'The Dore Gallery of Bible Illustrations, Volume 4 Illustrated by Gustave Dore'
p386
S'8704'
p387
sS'Canadian Crusoes A Tale of The Rice Lake Plains'
p388
S'8382-8'
p389
sS'The Vision of Purgatory, Complete Translated By The Rev. H. F. Cary, Illustrated by Gustave Dore'
p390
S'8795'
p391
sS'Democracy In America, Volume 1 (of 2)'
p392
S'815'
p393
sS"A Connecticut Yankee in King Arthur's Court, Complete"
p394
S'86'
p395
sS'My Garden Acquaintance'
p396
S'880'
p397
sS'The Phoenix and the Carpet'
p398
S'836'
p399
sS'Normandy, Part 3 The Scenery & Romance Of Its Ancient Towns'
p400
S'8595'
p401
sS'Normandy, Part 1 The Scenery & Romance Of Its Ancient Towns'
p402
S'8593-8'
p403
sS'Tales of Two Countries'
p404
S'8663-8'
p405
sS'The Vision of Hell, Part 10, Translated By The Rev. H. F. Cary, Illustrated by Gustave Dore The Inferno'
p406
S'8788'
p407
sS'Dr. Faustus'
p408
S'811-8'
p409
sS'Rome From the "Three Cities"'
p410
S'8726-8'
p411
sS'Roughing It, Part 1.'
p412
S'8582'
p413
sS'Normandy, Part 2 The Scenery & Romance Of Its Ancient Towns'
p414
S'8594-8'
p415
sS'The Fallen Star; and, A Dissertation on the Origin of Evil'
p416
S'8654'
p417
sS'The Dore Gallery of Bible Illustrations, Volume 2 Illustrated by Gustave Dore'
p418
S'8702'
p419
sS'The History of the Telephone'
p420
S'819'
p421
sS'Racketty-Packetty House'
p422
S'8574'
p423
sS'Poems of Henry Timrod'
p424
S'845-8'
p425
sS'The First Book of Factoids'
p426
S'8421'
p427
sS'The Vision of Purgatory, Part 4 Translated By The Rev. H. F. Cary, Illustrated by Gustave Dore'
p428
S'8793'
p429
sS'Memoirs of Carwin the Biloquist (A Fragment)'
p430
S'842'
p431
sS'Edison, His Life and Inventions'
p432
S'820'
p433
sS'Tremendous Trifles'
p434
S'8092-8'
p435
sS'The Young Engineers in Arizona Laying Tracks on the Man-killer Quicksand'
p436
S'8153'
p437
sS'Life of Cicero Volume One'
p438
S'8945-8'
p439
sS'The Road to Damascus A Trilogy'
p440
S'8875-8'
p441
sS'Life On The Mississippi, Part 9.'
p442
S'8479'
p443
sS'Le C\xf4t\xe9 de Guermantes (Premi\xe8re partie)'
p444
S'8946-8'
p445
sS'The Development Psychology of Psychopathology'
p446
S'8215'
p447
s.