(dp1
S''
I127
sS'Maupassant Original Short Stories (180), Complete'
p2
I40
sS'The Masque of the Red Death'
p3
I66
sS'Anthem'
p4
I81
sS'The Critique of Pure Reason'
p5
I155
sS'Euthyphro'
p6
I99
sS'Beowulf An Anglo-Saxon Epic Poem, Translated From The Heyne-Socin Text by Lesslie Hall'
p7
I96
sS'The Return of Sherlock Holmes'
p8
I0
sS'The Trial'
p9
I183
sS'Madame Bovary'
p10
I29
sS'An Enquiry Concerning Human Understanding'
p11
I195
sS'Around the World in 80 Days'
p12
I62
sS'The Man Who Was Thursday A Nightmare'
p13
I15
sS'Meditations'
p14
I135
sS'Treasure Island'
p15
I78
sS'The Three Musketeers'
p16
I4
sS'War and Peace'
p17
I33
sS'A Vindication of the Rights of Woman Title: Vindication of the Rights of Women'
p18
I143
sS'Candide'
p19
I112
sS'The Call of the Wild'
p20
I25
sS'The Count of Monte Cristo'
p21
I2
sS'Second Treatise of Government'
p22
I178
sS'The Importance of Being Earnest A Trivial Comedy for Serious People'
p23
I189
sS'The Return of Tarzan'
p24
I185
sS'The Sign of the Four'
p25
I116
sS'The Beautiful and the Damned'
p26
I197
sS'The Legend of Sleepy Hollow'
p27
I43
sS'Little Women'
p28
I160
sS'Middlemarch'
p29
I87
sS'Grimms\xe2\x80\x99 Fairy Tales'
p30
I32
sS'Democracy and Education'
p31
I191
sS'The Antichrist'
p32
I110
sS'The Scarlet Letter'
p33
I141
sS'Ulysses'
p34
I45
sS'The Souls of Black Folk'
p35
I151
sS'Phaedo The Last Hours Of Socrates'
p36
I102
sS'Tarzan of the Apes'
p37
I182
sS'The Legends Of King Arthur And His Knights'
p38
I83
sS'The Time Machine'
p39
I146
sS'The Adventures of Sherlock Holmes'
p40
I103
sS'King Richard III'
p41
I70
sS'The War of the Worlds'
p42
I147
sS'A Modest Proposal For preventing the children of poor people in Ireland, from being a burden on their parents or country, and for making them beneficial to the publick - 1729'
p43
I67
sS'Hedda Gabler Play In Four Acts'
p44
I152
sS'Walden, and On The Duty Of Civil Disobedience'
p45
I22
sS'David Copperfield'
p46
I54
sS'Through the Looking-Glass'
p47
I3
sS'The Fall of the House of Usher'
p48
I194
sS'A Christmas Carol A Ghost Story of Christmas'
p49
I158
sS'A Discourse on Method'
p50
I168
sS'The Middle Class Gentleman (Le Bourgeois Gentilhomme)'
p51
I137
sS'The Hound of the Baskervilles'
p52
I39
sS'The Odyssey'
p53
I107
sS'The Cask of Amontillado'
p54
I65
sS'The Tragical History of Dr. Faustus'
p55
I181
sS'An Inquiry into the Nature and Causes of the Wealth of Nations'
p56
I142
sS'The Clouds'
p57
I133
sS'Uncle Tom\xe2\x80\x99s Cabin'
p58
I21
sS'Notes from the Underground'
p59
I169
sS"Swann's Way Remembrance of Things Past, Volume One"
p60
I176
sS'Ion'
p61
I97
sS'Dubliners'
p62
I38
sS'Ecce Homo Complete Works, Volume Seventeen'
p63
I50
sS'The King James Bible'
p64
I61
sS"Shakespeare's Sonnets"
p65
I63
sS'The Aeneid'
p66
I125
sS'The Jungle Book'
p67
I28
sS'The Frogs'
p68
I184
sS'Paradise Lost'
p69
I113
sS'Emma'
p70
I12
sS'A Study In Scarlet'
p71
I30
sS'Songs of Innocence and Songs of Experience'
p72
I19
sS'Utopia'
p73
I117
sS'Pride and Prejudice'
p74
I6
sS'The Divine Comedy, Complete The Vision of Paradise, Purgatory and Hell'
p75
I193
sS'On the Origin of Species 1st Edition'
p76
I79
sS'Anna Karenina'
p77
I8
sS'The Invisible Man'
p78
I162
sS'Les Mis\xc3\xa9rables Complete in Five Volumes'
p79
I7
sS'Apology Also known as "The Death of Socrates"'
p80
I101
sS'The Brothers Karamazov'
p81
I37
sS'The Essays of Montaigne, Complete'
p82
I41
sS'The Prince and The Pauper, Complete'
p83
I18
sS'Siddhartha'
p84
I130
sS'The History Of The Decline And Fall Of The Roman Empire Table of Contents with links in the HTML file to the two Project Gutenberg editions (12 volumes)'
p85
I134
sS'Dr. Jekyll and Mr. Hyde'
p86
I153
sS'Beyond Good and Evil'
p87
I156
sS'Essay on Man Moral Essays and Satires'
p88
I129
sS'The Napoleon of Notting Hill'
p89
I114
sS'Ethan Frome'
p90
I46
sS'The Last of the Mohicans'
p91
I59
sS'The Communist Manifesto'
p92
I170
sS'Politics A Treatise on Government'
p93
I173
sS'Frankenstein or The Modern Prometheus'
p94
I188
sS'The Life and Adventures of Robinson Crusoe'
p95
I49
sS'The Kama Sutra of Vatsyayana Translated From The Sanscrit In Seven Parts With Preface, Introduction and Concluding Remarks'
p96
I136
sS'Romeo and Juliet'
p97
I73
sS'The Birth of Tragedy or Hellenism and Pessimism'
p98
I48
sS'This Side of Paradise'
p99
I56
sS'Oliver Twist'
p100
I177
sS'The Prince'
p101
I80
sS'Persuasion'
p102
I64
sS'Human, All Too Human A Book for Free Spirits'
p103
I149
sS'On Liberty'
p104
I145
sS"Pascal's Pens\xc3\xa9es"
p105
I17
sS'The Iliad of Homer'
p106
I171
sS'The Federalist Papers'
p107
I86
sS'Autobiography of Benjamin Franklin'
p108
I115
sS'The Adventures of Tom Sawyer, Complete'
p109
I52
sS'A Princess of Mars'
p110
I172
sS'Adventures of Huckleberry Finn, Complete'
p111
I53
sS'Notre-Dame de Paris The Hunchback of Notre Dame'
p112
I34
sS'Utilitarianism'
p113
I76
sS'The Waste Land'
p114
I5
sS'Story of My Life'
p115
I128
sS'The Narrative of the Life of Frederick Douglass An American Slave'
p116
I126
sS'Twelve Years a Slave Narrative of Solomon Northup, a Citizen of New-York, Kidnapped in Washington City in 1841, and Rescued in 1853, from a Cotton Plantation near the Red River in Louisiana'
p117
I157
sS'The Confessions of Saint Augustine'
p118
I140
sS'The Possessed or, The Devils'
p119
I186
sS'Poetics'
p120
I111
sS'The History of the Peloponnesian War'
p121
I175
sS'Jane Eyre an Autobiography'
p122
I82
sS'A Tale of Two Cities A Story of the French Revolution'
p123
I60
sS'The Turn of the Screw'
p124
I23
sS'Leviathan'
p125
I139
sS'Crime and Punishment'
p126
I31
sS'The Rape of the Lock and Other Poems'
p127
I196
sS'The Wonderful Wizard of Oz'
p128
I166
sS'Don Quixote'
p129
I198
sS'The Strange Case Of Dr. Jekyll And Mr. Hyde'
p130
I44
sS'Don Juan'
p131
I118
sS'The Age of Innocence'
p132
I164
sS'The Tempest The Works of William Shakespeare [Cambridge Edition] [9 vols.]'
p133
I27
sS'The Confessions of Jean Jacques Rousseau In 12 books--Privately Printed for the Members of the Aldus Society--London, 1903'
p134
I42
sS'The Problems of Philosophy'
p135
I167
sS'The Lost World'
p136
I85
sS'Gorgias'
p137
I104
sS"Tess of the d'Urbervilles A Pure Woman"
p138
I69
sS'Common Sense'
p139
I89
sS'The Picture of Dorian Gray'
p140
I109
sS'Metamorphosis'
p141
I161
sS'Peter Pan Peter Pan and Wendy'
p142
I13
sS'Heart of Darkness'
p143
I26
sS'The Social Contract & Discourses'
p144
I47
sS'The Sea-Gull'
p145
I16
sS'Alice\xe2\x80\x99s Adventures in Wonderland'
p146
I1
sS'The Awakening and Selected Short Stories'
p147
I14
sS'Theaetetus'
p148
I106
sS'Meno'
p149
I100
sS'A Portrait of the Artist as a Young Man'
p150
I154
sS'Lysistrata'
p151
I180
sS'Symposium'
p152
I94
sS'Mansfield Park'
p153
I11
sS'The Genealogy of Morals The Complete Works, Volume Thirteen, edited by Dr. Oscar Levy.'
p154
I51
sS"Gulliver's Travels into several remote nations of the world"
p155
I58
sS'Pygmalion'
p156
I150
sS'Dracula'
p157
I144
sS'Sophist'
p158
I108
sS'The Jungle'
p159
I9
sS'Kim'
p160
I119
sS'Aesop\xe2\x80\x99s Fables'
p161
I24
sS'Great Expectations'
p162
I10
sS'On the Duty of Civil Disobedience'
p163
I174
sS'My Man Jeeves'
p164
I187
sS'The Sorrows of Young Werther'
p165
I131
sS'The Birds'
p166
I138
sS'Sense and Sensibility'
p167
I95
sS'The Grand Inquisitor'
p168
I192
sS'Faust'
p169
I88
sS'Protagoras'
p170
I93
sS'Wuthering Heights'
p171
I179
sS'Leaves of Grass'
p172
I84
sS'The Beasts of Tarzan'
p173
I190
sS'Emile'
p174
I165
sS'A Treatise of Human Nature'
p175
I159
sS'Heroes and Hero Worship'
p176
I68
sS"A Doll's House"
p177
I132
sS'The Republic'
p178
I90
sS'Project Gutenberg EBook of Title: The Idiot, by Fyodor Dostoyevsky This eBook is for the use of anyone anywhere at no cost and with almost no restrictions whatsoever.  You may copy it, give it away or re-use it under the terms of the Project Gutenberg License included with this eBook or online at www.gutenberg.org Title: Title: The Idiot'
p179
I35
sS'Hard Times'
p180
I55
sS'Thus Spake Zarathustra A Book for All and None'
p181
I20
sS'The Ethics'
p182
I148
sS'Moby Dick; or The Whale'
p183
I36
sS'As You Like It'
p184
I75
sS'The Raven'
p185
I105
sS'The Man Who Would Be King'
p186
I57
sS'Phaedrus'
p187
I98
s.