(dp1
S'Henrik Ibsen'
p2
I201
sS'Introduction to the Dramas of Balzac'
p3
I37
sS'The Saint'
p4
I168
sS'The Boy Captives An Incident of the Indian War of 1695'
p5
I114
sS'The Complete Plays of Gilbert and Sullivan The 14 Gilbert And Sullivan Plays'
p6
I150
sS'The Vision of Hell, Part 6, Translated By The Rev. H. F. Cary, Illustrated by Gustave Dore The Inferno'
p7
I120
sS'The Lesson of the Master'
p8
I14
sS'With Edged Tools'
p9
I2
sS'Passing of the Third Floor Back'
p10
I72
sS'Issues in Ethics'
p11
I24
sS'Frankenstein or The Modern Prometheus'
p12
I193
sS'Wonderful Balloon Ascents or, the Conquest of the Skies'
p13
I1
sS'The Vision of Hell, Part 4, Translated By The Rev. H. F. Cary, Illustrated by Gustave Dore The Inferno'
p14
I124
sS'The Life of St. Declan of Ardmore'
p15
I22
sS'The Dominion of the Air'
p16
I84
sS'The Rose and the Ring'
p17
I9
sS"Colonel Thorndyke's Secret"
p18
I202
sS'The Pilgrims Of The Rhine'
p19
I21
sS'A  Passionate Pilgrim'
p20
I153
sS'Gargantua and Pantagruel, Book III. Five Books Of The Lives, Heroic Deeds And Sayings Of Gargantua And His Son Pantagruel'
p21
I205
sS'The Dore Gallery of Bible Illustrations, Volume 5 Illustrated by Gustave Dore'
p22
I142
sS"Captain Cook's Journal During the First Voyage Round the World"
p23
I211
sS'National Being Some Thoughts on an Irish Polity'
p24
I214
sS'Lectures of Col. R. G. Ingersoll - Latest'
p25
I94
sS'Polly of the Circus'
p26
I70
sS'The Vision of Purgatory, Part 2 Translated By The Rev. H. F. Cary, Illustrated by Gustave Dore'
p27
I108
sS'Roughing It, Part 8.'
p28
I52
sS'The Mysterious Affair at Styles'
p29
I71
sS'Jasmin: Barber, Poet, Philanthropist'
p30
I97
sS'A Man of Means'
p31
I148
sS'The Importance of Being Earnest A Trivial Comedy for Serious People'
p32
I188
sS'The Return of Tarzan'
p33
I222
sS'Orations'
p34
I4
sS'Cetywayo and his White Neighbours Remarks on Recent Events in Zululand, Natal, and the Transvaal'
p35
I78
sS'The Last Galley Impressions and Tales'
p36
I115
sS'Life On The Mississippi, Part 8.'
p37
I175
sS'Price/Cost Indexes from 1875 to 1989 Estimated to 2010'
p38
I221
sS'Life On The Mississippi, Part 6.'
p39
I172
sS'The Vision of Paradise, Part 3. Translated By The Rev. H. F. Cary, Illustrated by Gustave Dore'
p40
I110
sS'The Vision of Purgatory, Part 3 Translated By The Rev. H. F. Cary, Illustrated by Gustave Dore'
p41
I104
sS'Louisa Pallant'
p42
I154
sS'Plays: Comrades; Facing Death; Pariah; Easter'
p43
I63
sS'Little Britain'
p44
I112
sS'Gargantua and Pantagruel, Book V. Five Books Of The Lives, Heroic Deeds And Sayings Of Gargantua And His Son Pantagruel'
p45
I209
sS'A Street Of Paris And Its Inhabitant'
p46
I203
sS'Baby Mine'
p47
I86
sS'This Side of Paradise'
p48
I152
sS'The Vision of Hell, Complete, Translated By The Rev. H. F. Cary, Illustrated by Gustave Dore The Inferno'
p49
I126
sS'Issues in Population and Bioethics'
p50
I160
sS'Roughing It, Part 7.'
p51
I55
sS'Canyons of the Colorado'
p52
I155
sS'The Theory of the Leisure Class'
p53
I96
sS'The Vision of Hell, Part 5, Translated By The Rev. H. F. Cary, Illustrated by Gustave Dore The Inferno'
p54
I119
sS'Lourdes From the "Three Cities"'
p55
I68
sS'The Vision of Hell, Part 8, Translated By The Rev. H. F. Cary, Illustrated by Gustave Dore The Inferno'
p56
I117
sS'Hunting Sketches'
p57
I220
sS'Reminiscences of Tolstoy By His Son'
p58
I194
sS"The Philosopher's Joke"
p59
I89
sS'Gargantua and Pantagruel, Book IV. Five Books Of The Lives, Heroic Deeds And Sayings Of Gargantua And His Son Pantagruel'
p60
I206
sS'Normandy, Complete The Scenery & Romance Of Its Ancient Towns'
p61
I62
sS'The Life of Francis Marion'
p62
I189
sS'Life On The Mississippi, Part 7.'
p63
I179
sS'Plays: The Father; Countess Julie; The Outlaw; The Stronger'
p64
I158
sS'Filipino Popular Tales'
p65
I17
sS'Nina Balatka'
p66
I26
sS"Charles O'Malley, The Irish Dragoon, Volume 1 (of 2)"
p67
I61
sS'Ghosts'
p68
I199
sS'Life in the Iron-Mills'
p69
I144
sS'A Little Bush Maid'
p70
I131
sS'The Dore Gallery of Bible Illustrations, Complete'
p71
I147
sS'Life On The Mississippi, Part 10.'
p72
I164
sS'Jack in the Forecastle'
p73
I81
sS'The Dore Gallery of Bible Illustrations, Volume 8 Illustrated by Gustave Dore'
p74
I134
sS'The Dore Gallery of Bible Illustrations, Volume 1 Illustrated by Gustave Dore'
p75
I140
sS'Roughing It, Part 6.'
p76
I51
sS'Andivius Hedulio'
p77
I58
sS'Democracy and Education'
p78
I65
sS'Tom Grogan'
p79
I48
sS'Life On The Mississippi, Part 1.'
p80
I180
sS'The Last Hope'
p81
I159
sS'Lorna Doone, A Romance of Exmoor'
p82
I183
sS'The Dore Gallery of Bible Illustrations, Volume 3 Illustrated by Gustave Dore'
p83
I137
sS'The Love of Ulrich Nebendahl'
p84
I143
sS'The Vision of Purgatory, Part 5 Translated By The Rev. H. F. Cary, Illustrated by Gustave Dore'
p85
I107
sS'C\xe6sar or Nothing'
p86
I186
sS'The Vision of Hell, Part 2, Translated By The Rev. H. F. Cary, Illustrated by Gustave Dore The Inferno'
p87
I125
sS'The Sturdy Oak A Composite Novel of American Politics by Fourteen American Authors'
p88
I171
sS'The Divine Comedy, Complete The Vision of Paradise, Purgatory and Hell'
p89
I31
sS'The Virginians'
p90
I198
sS"Eve's Diary, Part 1"
p91
I46
sS"L'Assommoir"
p92
I83
sS"Eve's Diary, Part 3"
p93
I45
sS"Eve's Diary, Part 2"
p94
I44
sS'Poems of Paul Verlaine'
p95
I161
sS'Gaspar Ruiz'
p96
I128
sS'The Vision of Hell, Part 9, Translated By The Rev. H. F. Cary, Illustrated by Gustave Dore The Inferno'
p97
I122
sS"Monsieur Lecoq, Seconde Partie, L'honneur Du Nom"
p98
I146
sS'A History of Aeronautics'
p99
I149
sS'Frenzied Fiction'
p100
I167
sS'Dombey and Son'
p101
I20
sS'Roughing It, Part 5.'
p102
I50
sS'Lucky Pehr'
p103
I67
sS'Captivity and Restoration'
p104
I41
sS'The Cost of Kindness From a volume entitled "Idle Thoughts of an Idle Fellow"'
p105
I87
sS'The Vision of Hell, Part 3, Translated By The Rev. H. F. Cary, Illustrated by Gustave Dore The Inferno'
p106
I118
sS'Men, Women and Ghosts'
p107
I190
sS'The Impostures of Scapin'
p108
I133
sS'Pamela Giraud'
p109
I157
sS'The Woman With The Fan'
p110
I64
sS'The Face And The Mask'
p111
I73
sS'Idle Thoughts of an Idle Fellow'
p112
I163
sS"India's Love Lyrics"
p113
I195
sS'The Vision of Paradise, Complete Translated By The Rev. H. F. Cary, Illustrated by Gustave Dore'
p114
I111
sS'The Soul of Nicholas Snyders Or, The Miser Of Zandam'
p115
I88
sS'Life On The Mississippi, Part 5.'
p116
I177
sS'By Sheer Pluck A Tale of the Ashanti War'
p117
I59
sS'The History of The Decline and Fall of the Roman Empire Volume 6'
p118
I11
sS'The Story of the Amulet'
p119
I100
sS'The History of The Decline and Fall of the Roman Empire Volume 4'
p120
I5
sS'The History of The Decline and Fall of the Roman Empire Volume 5'
p121
I10
sS'The History of The Decline and Fall of the Roman Empire Volume 2'
p122
I0
sS'The History of The Decline and Fall of the Roman Empire Volume 3'
p123
I3
sS'The History of The Decline and Fall of the Roman Empire Volume 1'
p124
I13
sS'Lord Kilgobbin'
p125
I8
sS'Life On The Mississippi, Part 12.'
p126
I165
sS'Sketches by Boz illustrative of everyday life and every-day people'
p127
I33
sS'Roughing It, Part 4.'
p128
I54
sS'The Golden Sayings of Epictetus'
p129
I113
sS'Early Bardic Literature, Ireland'
p130
I213
sS'Explorations in Australia, The Journals of John McDouall Stuart When He Fixed The Centre Of The Continent And Successfully Crossed It From Sea To Sea'
p131
I12
sS'Through the Fray A Tale of the Luddite Riots'
p132
I130
sS'Lemorne Versus Huell'
p133
I28
sS'Gargantua and Pantagruel, Book II. Five Books Of The Lives, Heroic Deeds And Sayings Of Gargantua And His Son Pantagruel'
p134
I207
sS'Imaginations and Reveries'
p135
I212
sS'Memoirs of Sherlock Holmes'
p136
I99
sS'Clocks From a volume entitled "Idle Thoughts of an Idle Fellow"'
p137
I66
sS'Stage-Land'
p138
I40
sS'Philosophy 4 A Story of Harvard University'
p139
I80
sS'Dreams From a volume entitled "Idle Thoughts of an Idle Fellow"'
p140
I47
sS'The Possessed or, The Devils'
p141
I218
sS'The Vision of Hell, Part 7, Translated By The Rev. H. F. Cary, Illustrated by Gustave Dore The Inferno'
p142
I123
sS'Four Arthurian Romances "Erec et Enide", "Cliges", "Yvain", and "Lancelot"'
p143
I90
sS'Our Mutual Friend'
p144
I34
sS'The Beasts of Tarzan'
p145
I16
sS'The Bible, Douay-Rheims, Old and New Testaments, Complete The Challoner Revision'
p146
I98
sS'An Ideal Husband A Play'
p147
I29
sS'Revenge!'
p148
I77
sS'The Dore Gallery of Bible Illustrations, Volume 9 Illustrated by Gustave Dore'
p149
I138
sS'The Vision of Hell, Part 1, Illustrated by Gustave Dore The Inferno'
p150
I132
sS'Lincoln Letters'
p151
I219
sS'Lays of Ancient Rome'
p152
I191
sS'Life On The Mississippi, Part 2.'
p153
I173
sS'The Doings Of Raffles Haw'
p154
I92
sS'The Russian Revolution; The Jugo-Slav Movement'
p155
I170
sS'The Dore Gallery of Bible Illustrations, Volume 6 Illustrated by Gustave Dore'
p156
I136
sS'Wars and Empire'
p157
I25
sS'Roughing It, Part 3.'
p158
I53
sS'Mrs. Korner Sins Her Mercies'
p159
I85
sS"Eve's Diary, Complete"
p160
I43
sS'Life On The Mississippi, Part 11.'
p161
I166
sS'A Fool For Love'
p162
I156
sS'The Vision of Purgatory, Part 1 Translated By The Rev. H. F. Cary, Illustrated by Gustave Dore'
p163
I109
sS'Life On The Mississippi, Part 3.'
p164
I176
sS'Two Years in the Forbidden City'
p165
I32
sS'The Vision of Paradise, Part 2. Translated By The Rev. H. F. Cary, Illustrated by Gustave Dore'
p166
I103
sS'The Art of Money Getting or, Golden Rules for Making Money'
p167
I56
sS'Ivanhoe A Romance'
p168
I223
sS'Life On The Mississippi, Part 4.'
p169
I174
sS'The Argonautica'
p170
I101
sS"Charles O'Malley, The Irish Dragoon, Volume 2 (of 2)"
p171
I82
sS'The Magnificent Ambersons'
p172
I27
sS'Lectures of Col. R. G. Ingersoll, Volume I'
p173
I215
sS'Robin Hood'
p174
I91
sS'The Confutatio Pontificia'
p175
I69
sS'The Christian A Story'
p176
I181
sS"Monsieur Lecoq, Premi\xc3\xa8re Partie, L'enqu\xc3\xaate"
p177
I74
sS'The Vision of Paradise, Part 1. Translated By The Rev. H. F. Cary, Illustrated by Gustave Dore'
p178
I102
sS"Gulliver's Travels into several remote nations of the world"
p179
I19
sS'Between Friends'
p180
I187
sS'Marse Henry, Complete An Autobiography'
p181
I169
sS'Yankee Gypsies'
p182
I127
sS'Barlasch of the Guard'
p183
I200
sS"Young People's Pride"
p184
I182
sS'Evergreens From a volume entitled "Idle Thoughts of an Idle Fellow"'
p185
I42
sS'Gargantua and Pantagruel, Book I. Five Books Of The Lives, Heroic Deeds And Sayings Of Gargantua And His Son Pantagruel'
p186
I208
sS'The Black Arrow a Tale of Two Roses'
p187
I192
sS'Roughing It, Part 2.'
p188
I57
sS'The Aeroplane Speaks'
p189
I197
sS'Democracy In America, Volume 2 (of 2)'
p190
I216
sS'Robert Elsmere'
p191
I129
sS'The Dore Gallery of Bible Illustrations, Volume 7 Illustrated by Gustave Dore'
p192
I135
sS"Monsieur Lecoq, Premi\xe8re Partie, L'enqu\xeate"
p193
I75
sS'The Dore Gallery of Bible Illustrations, Volume 4 Illustrated by Gustave Dore'
p194
I139
sS'Canadian Crusoes A Tale of The Rice Lake Plains'
p195
I95
sS'The Vision of Purgatory, Complete Translated By The Rev. H. F. Cary, Illustrated by Gustave Dore'
p196
I105
sS'Democracy In America, Volume 1 (of 2)'
p197
I217
sS"A Connecticut Yankee in King Arthur's Court, Complete"
p198
I15
sS'My Garden Acquaintance'
p199
I35
sS'The Phoenix and the Carpet'
p200
I93
sS'Normandy, Part 3 The Scenery & Romance Of Its Ancient Towns'
p201
I38
sS'Normandy, Part 1 The Scenery & Romance Of Its Ancient Towns'
p202
I39
sS'Tales of Two Countries'
p203
I79
sS'The Vision of Hell, Part 10, Translated By The Rev. H. F. Cary, Illustrated by Gustave Dore The Inferno'
p204
I121
sS'Dr. Faustus'
p205
I196
sS'Rome From the "Three Cities"'
p206
I116
sS'Roughing It, Part 1.'
p207
I49
sS'Normandy, Part 2 The Scenery & Romance Of Its Ancient Towns'
p208
I36
sS'The Fallen Star; and, A Dissertation on the Origin of Evil'
p209
I76
sS'The Dore Gallery of Bible Illustrations, Volume 2 Illustrated by Gustave Dore'
p210
I141
sS'The History of the Telephone'
p211
I210
sS'Racketty-Packetty House'
p212
I60
sS'Poems of Henry Timrod'
p213
I184
sS'The First Book of Factoids'
p214
I162
sS'The Vision of Purgatory, Part 4 Translated By The Rev. H. F. Cary, Illustrated by Gustave Dore'
p215
I106
sS'Memoirs of Carwin the Biloquist (A Fragment)'
p216
I185
sS'Edison, His Life and Inventions'
p217
I18
sS'Tremendous Trifles'
p218
I151
sS'The Young Engineers in Arizona Laying Tracks on the Man-killer Quicksand'
p219
I204
sS'Life of Cicero Volume One'
p220
I6
sS'The Road to Damascus A Trilogy'
p221
I30
sS'Life On The Mississippi, Part 9.'
p222
I178
sS'Le C\xf4t\xe9 de Guermantes (Premi\xe8re partie)'
p223
I7
sS'The Development Psychology of Psychopathology'
p224
I23
s.