(dp1
S'pg46'
p2
I158
sS'pg42'
p3
I153
sS'pg4280'
p4
I155
sS'1934-0'
p5
I19
sS'pg139'
p6
I85
sS'pg2680'
p7
I135
sS'pg2527'
p8
I131
sS'2413-0'
p9
I29
sS'pg1656'
p10
I101
sS'pg1322'
p11
I84
sS'pg71'
p12
I174
sS'pg1635'
p13
I97
sS'12-0'
p14
I3
sS'pg1636'
p15
I98
sS'pg730'
p16
I177
sS'pg1642'
p17
I99
sS'pg2226'
p18
I119
sS'pg1063'
p19
I65
sS'pg1064'
p20
I66
sS'pg1228'
p21
I79
sS'1754-0'
p22
I16
sS'pg78'
p23
I182
sS'2554-0'
p24
I31
sS'pg8800'
p25
I193
sS'140-0'
p26
I9
sS'11-0'
p27
I1
sS'pg20058'
p28
I114
sS'521-0'
p29
I49
sS'pg21700'
p30
I118
sS'1321-0'
p31
I5
sS'pg6762'
p32
I173
sS'pg2383'
p33
I127
sS'18269-0'
p34
I17
sS'pg145'
p35
I87
sS'pg147'
p36
I89
sS'158-0'
p37
I12
sS'74-0'
p38
I52
sS'pg7700'
p39
I180
sS'16-0'
p40
I13
sS'pg1112'
p41
I73
sS'pg541'
p42
I164
sS'2638-0'
p43
I35
sS'pg34901'
p44
I145
sS'pg3013'
p45
I138
sS'pg7998'
p46
I184
sS'pg45631'
p47
I157
sS'pg4705'
p48
I159
sS'98-0'
p49
I60
sS'pg3800'
p50
I148
sS'pg4363'
p51
I156
sS'pg61'
p52
I170
sS'pg1661'
p53
I103
sS'pg20203'
p54
I115
sS'pg345'
p55
I144
sS'43-0'
p56
I44
sS'1695-0'
p57
I15
sS'pg2542'
p58
I132
sS'2610-0'
p59
I34
sS'3090-0'
p60
I40
sS'52190-0'
p61
I50
sS'pg7370'
p62
I178
sS'pg1260'
p63
I82
sS'pg7849'
p64
I183
sS'1399-0'
p65
I8
sS'pg1103'
p66
I70
sS'2600-0'
p67
I33
sS'pg1726'
p68
I106
sS'pg2130'
p69
I117
sS'203-0'
p70
I21
sS'pg2097'
p71
I116
sS'236-0'
p72
I28
sS'pg10'
p73
I61
sS'pg19942'
p74
I112
sS'pg1672'
p75
I104
sS'pg55'
p76
I166
sS'pg38145'
p77
I149
sS'23042-0'
p78
I27
sS'pg3825'
p79
I150
sS'pg27827'
p80
I136
sS'pg8578'
p81
I192
sS'pg3300'
p82
I142
sS'1257-0'
p83
I4
sS'pg4093'
p84
I152
sS'21-0'
p85
I24
sS'pg161'
p86
I95
sS'52319-0'
p87
I51
sS'pg9830'
p88
I197
sS'4517-0'
p89
I46
sS'2701-0'
p90
I36
sS'pg25717'
p91
I134
sS'pg768'
p92
I179
sS'pg932'
p93
I194
sS'pg2562'
p94
I133
sS'76-0'
p95
I53
sS'pg1404'
p96
I86
sS'pg1643'
p97
I100
sS'pg174'
p98
I109
sS'209-0'
p99
I23
sS'pg12753'
p100
I83
sS'pg1974'
p101
I111
sS'1837-0'
p102
I18
sS'3600-0'
p103
I41
sS'pg1080'
p104
I67
sS'pg5230'
p105
I162
sS'pg9800'
p106
I196
sS'pg62'
p107
I172
sS'829-0'
p108
I58
sS'8147-0'
p109
I57
sS'28054-0'
p110
I37
sS'pg852'
p111
I191
sS'786-0'
p112
I55
sS'pg779'
p113
I181
sS'pg2397'
p114
I128
sS'1184-0'
p115
I2
sS'pg9662'
p116
I195
sS'1400-0'
p117
I10
sS'1998-0'
p118
I20
sS'pg3207'
p119
I139
sS'pg103'
p120
I62
sS'pg105'
p121
I64
sS'141-0'
p122
I11
sS'pg5827'
p123
I167
sS'pg1091'
p124
I68
sS'pg81'
p125
I185
sS'1342-0'
p126
I6
sS'244-0'
p127
I30
sS'pg85'
p128
I190
sS'pg84'
p129
I188
sS'pg1250'
p130
I81
sS'219-0'
p131
I26
sS'108-0'
p132
I0
sS'pg2992'
p133
I137
sS'766-0'
p134
I54
sS'46333-0'
p135
I47
sS'pg8117'
p136
I186
sS'pg11224'
p137
I76
sS'pg1735'
p138
I108
sS'pg3420'
p139
I143
sS'41-0'
p140
I43
sS'pg3296'
p141
I140
sS'pg14591'
p142
I88
sS'pg110'
p143
I69
sS'135-0'
p144
I7
sS'pg2500'
p145
I130
sS'pg4217'
p146
I154
sS'pg228'
p147
I125
sS'pg844'
p148
I189
sS'205-0'
p149
I22
sS'pg5427'
p150
I165
sS'pg19322'
p151
I110
sS'pg996'
p152
I198
sS'pg23'
p153
I126
sS'pg2428'
p154
I129
sS'pg36'
p155
I147
sS'3913-0'
p156
I42
sS'pg514'
p157
I160
sS'pg35'
p158
I146
sS'pg33'
p159
I141
sS'2852-0'
p160
I39
sS'pg408'
p161
I151
sS'pg8164'
p162
I187
sS'pg1658'
p163
I102
sS'pg1727'
p164
I107
sS'pg1041'
p165
I63
sS'pg1121'
p166
I75
sS'940-0'
p167
I59
sS'51356-0'
p168
I48
sS'pg59'
p169
I168
sS'2814-0'
p170
I38
sS'pg7178'
p171
I176
sS'pg17192'
p172
I105
sS'pg1600'
p173
I94
sS'4300-0'
p174
I45
sS'pg120'
p175
I78
sS'pg16328'
p176
I96
sS'160-0'
p177
I14
sS'pg1591'
p178
I93
sS'pg7142'
p179
I175
sS'pg1497'
p180
I90
sS'pg600'
p181
I169
sS'pg20'
p182
I113
sS'215-0'
p183
I25
sS'pg6130'
p184
I171
sS'pg5200'
p185
I161
sS'805-0'
p186
I56
sS'2591-0'
p187
I32
sS'pg1232'
p188
I80
s.