(dp1
S'pg46'
p2
S'A Christmas Carol A Ghost Story of Christmas'
p3
sS'pg42'
p4
S'Dr. Jekyll and Mr. Hyde'
p5
sS'pg4280'
p6
S'The Critique of Pure Reason'
p7
sS'pg38145'
p8
S'Human, All Too Human A Book for Free Spirits'
p9
sS'1934-0'
p10
S'Songs of Innocence and Songs of Experience'
p11
sS'pg5827'
p12
S'The Problems of Philosophy'
p13
sS'521-0'
p14
S'The Life and Adventures of Robinson Crusoe'
p15
sS'pg2680'
p16
S'Meditations'
p17
sS'pg4363'
p18
S'Beyond Good and Evil'
p19
sS'2413-0'
p20
S'Madame Bovary'
p21
sS'3913-0'
p22
S'The Confessions of Jean Jacques Rousseau In 12 books--Privately Printed for the Members of the Aldus Society--London, 1903'
p23
sS'pg1322'
p24
S'Leaves of Grass'
p25
sS'pg71'
p26
S'On the Duty of Civil Disobedience'
p27
sS'pg1635'
p28
S'Ion'
p29
sS'1321-0'
p30
S'The Waste Land'
p31
sS'pg1636'
p32
S'Phaedrus'
p33
sS'pg730'
p34
S'Oliver Twist'
p35
sS'pg1404'
p36
S'The Federalist Papers'
p37
sS'pg1063'
p38
S'The Cask of Amontillado'
p39
sS'pg1064'
p40
S'The Masque of the Red Death'
p41
sS'2852-0'
p42
S'The Hound of the Baskervilles'
p43
sS'1754-0'
p44
S'The Sea-Gull'
p45
sS'pg78'
p46
S'Tarzan of the Apes'
p47
sS'2554-0'
p48
S'Crime and Punishment'
p49
sS'140-0'
p50
S'The Jungle'
p51
sS'11-0'
p52
S'Alice\xe2\x80\x99s Adventures in Wonderland'
p53
sS'pg20058'
p54
S'The Napoleon of Notting Hill'
p55
sS'pg7178'
p56
S"Swann's Way Remembrance of Things Past, Volume One"
p57
sS'pg21700'
p58
S'Don Juan'
p59
sS'12-0'
p60
S'Through the Looking-Glass'
p61
sS'pg6762'
p62
S'Politics A Treatise on Government'
p63
sS'pg2130'
p64
S'Utopia'
p65
sS'18269-0'
p66
S"Pascal's Pens\xc3\xa9es"
p67
sS'209-0'
p68
S'The Turn of the Screw'
p69
sS'pg145'
p70
S'Middlemarch'
p71
sS'pg147'
p72
S'Common Sense'
p73
sS'158-0'
p74
S'Emma'
p75
sS'1695-0'
p76
S'The Man Who Was Thursday A Nightmare'
p77
sS'pg7700'
p78
S'Lysistrata'
p79
sS'16-0'
p80
S'Peter Pan Peter Pan and Wendy'
p81
sS'pg1112'
p82
S'Romeo and Juliet'
p83
sS'pg541'
p84
S'The Age of Innocence'
p85
sS'pg1600'
p86
S'Symposium'
p87
sS'pg34901'
p88
S'On Liberty'
p89
sS'pg3013'
p90
S'The Birds'
p91
sS'pg7998'
p92
S'The Frogs'
p93
sS'pg45631'
p94
S'Twelve Years a Slave Narrative of Solomon Northup, a Citizen of New-York, Kidnapped in Washington City in 1841, and Rescued in 1853, from a Cotton Plantation near the Red River in Louisiana'
p95
sS'pg55'
p96
S'The Wonderful Wizard of Oz'
p97
sS'98-0'
p98
S'A Tale of Two Cities A Story of the French Revolution'
p99
sS'pg3800'
p100
S'The Ethics'
p101
sS'pg7142'
p102
S'The History of the Peloponnesian War'
p103
sS'pg61'
p104
S'The Communist Manifesto'
p105
sS'pg1661'
p106
S'The Adventures of Sherlock Holmes'
p107
sS'pg852'
p108
S'Democracy and Education'
p109
sS'pg345'
p110
S'Dracula'
p111
sS'pg11224'
p112
S'Utilitarianism'
p113
sS'74-0'
p114
S'The Adventures of Tom Sawyer, Complete'
p115
sS'pg2542'
p116
S"A Doll's House"
p117
sS'2610-0'
p118
S'Notre-Dame de Paris The Hunchback of Notre Dame'
p119
sS'3090-0'
p120
S'Maupassant Original Short Stories (180), Complete'
p121
sS'52190-0'
p122
S'Ecce Homo Complete Works, Volume Seventeen'
p123
sS'pg7370'
p124
S'Second Treatise of Government'
p125
sS'pg1260'
p126
S'Jane Eyre an Autobiography'
p127
sS'pg7849'
p128
S'The Trial'
p129
sS'236-0'
p130
S'The Jungle Book'
p131
sS'pg1103'
p132
S'King Richard III'
p133
sS'2600-0'
p134
S'War and Peace'
p135
sS'pg2226'
p136
S'Kim'
p137
sS'pg2383'
p138
S''
sS'203-0'
p139
S'Uncle Tom\xe2\x80\x99s Cabin'
p140
sS'pg2097'
p141
S'The Sign of the Four'
p142
sS'1399-0'
p143
S'Anna Karenina'
p144
sS'pg10'
p145
S'The King James Bible'
p146
sS'46333-0'
p147
S'The Social Contract & Discourses'
p148
sS'pg1672'
p149
S'Gorgias'
p150
sS'pg8117'
p151
S'The Possessed or, The Devils'
p152
sS'23042-0'
p153
S'The Tempest The Works of William Shakespeare [Cambridge Edition] [9 vols.]'
p154
sS'pg3825'
p155
S'Pygmalion'
p156
sS'pg844'
p157
S'The Importance of Being Earnest A Trivial Comedy for Serious People'
p158
sS'pg8578'
p159
S'The Grand Inquisitor'
p160
sS'pg3300'
p161
S'An Inquiry into the Nature and Causes of the Wealth of Nations'
p162
sS'1257-0'
p163
S'The Three Musketeers'
p164
sS'pg4093'
p165
S'Hedda Gabler Play In Four Acts'
p166
sS'21-0'
p167
S'Aesop\xe2\x80\x99s Fables'
p168
sS'pg161'
p169
S'Sense and Sensibility'
p170
sS'52319-0'
p171
S'The Genealogy of Morals The Complete Works, Volume Thirteen, edited by Dr. Oscar Levy.'
p172
sS'pg408'
p173
S'The Souls of Black Folk'
p174
sS'2701-0'
p175
S'Moby Dick; or The Whale'
p176
sS'pg25717'
p177
S'The History Of The Decline And Fall Of The Roman Empire Table of Contents with links in the HTML file to the two Project Gutenberg editions (12 volumes)'
p178
sS'pg768'
p179
S'Wuthering Heights'
p180
sS'pg932'
p181
S'The Fall of the House of Usher'
p182
sS'pg1121'
p183
S'As You Like It'
p184
sS'pg2562'
p185
S'The Clouds'
p186
sS'76-0'
p187
S'Adventures of Huckleberry Finn, Complete'
p188
sS'pg1642'
p189
S'Euthyphro'
p190
sS'pg1643'
p191
S'Meno'
p192
sS'pg174'
p193
S'The Picture of Dorian Gray'
p194
sS'pg27827'
p195
S'The Kama Sutra of Vatsyayana Translated From The Sanscrit In Seven Parts With Preface, Introduction and Concluding Remarks'
p196
sS'pg12753'
p197
S'The Legends Of King Arthur And His Knights'
p198
sS'pg1974'
p199
S'Poetics'
p200
sS'1837-0'
p201
S'The Prince and The Pauper, Complete'
p202
sS'3600-0'
p203
S'The Essays of Montaigne, Complete'
p204
sS'pg1080'
p205
S'A Modest Proposal For preventing the children of poor people in Ireland, from being a burden on their parents or country, and for making them beneficial to the publick - 1729'
p206
sS'pg5230'
p207
S'The Invisible Man'
p208
sS'pg9800'
p209
S'The Rape of the Lock and Other Poems'
p210
sS'pg4705'
p211
S'A Treatise of Human Nature'
p212
sS'829-0'
p213
S"Gulliver's Travels into several remote nations of the world"
p214
sS'8147-0'
p215
S'The Man Who Would Be King'
p216
sS'28054-0'
p217
S'The Brothers Karamazov'
p218
sS'786-0'
p219
S'Hard Times'
p220
sS'pg779'
p221
S'The Tragical History of Dr. Faustus'
p222
sS'pg2397'
p223
S'Story of My Life'
p224
sS'1184-0'
p225
S'The Count of Monte Cristo'
p226
sS'pg9662'
p227
S'An Enquiry Concerning Human Understanding'
p228
sS'1400-0'
p229
S'Great Expectations'
p230
sS'1998-0'
p231
S'Thus Spake Zarathustra A Book for All and None'
p232
sS'pg3207'
p233
S'Leviathan'
p234
sS'pg103'
p235
S'Around the World in 80 Days'
p236
sS'pg105'
p237
S'Persuasion'
p238
sS'141-0'
p239
S'Mansfield Park'
p240
sS'pg62'
p241
S'A Princess of Mars'
p242
sS'pg1091'
p243
S'Heroes and Hero Worship'
p244
sS'pg81'
p245
S'The Return of Tarzan'
p246
sS'1342-0'
p247
S'Pride and Prejudice'
p248
sS'244-0'
p249
S'A Study In Scarlet'
p250
sS'pg85'
p251
S'The Beasts of Tarzan'
p252
sS'pg84'
p253
S'Frankenstein or The Modern Prometheus'
p254
sS'pg2527'
p255
S'The Sorrows of Young Werther'
p256
sS'pg1250'
p257
S'Anthem'
p258
sS'219-0'
p259
S'Heart of Darkness'
p260
sS'108-0'
p261
S'The Return of Sherlock Holmes'
p262
sS'pg2992'
p263
S'The Middle Class Gentleman (Le Bourgeois Gentilhomme)'
p264
sS'766-0'
p265
S'David Copperfield'
p266
sS'pg1591'
p267
S'Protagoras'
p268
sS'pg19942'
p269
S'Candide'
p270
sS'pg20203'
p271
S'Autobiography of Benjamin Franklin'
p272
sS'43-0'
p273
S'The Strange Case Of Dr. Jekyll And Mr. Hyde'
p274
sS'pg1735'
p275
S'Sophist'
p276
sS'pg3420'
p277
S'A Vindication of the Rights of Woman Title: Vindication of the Rights of Women'
p278
sS'41-0'
p279
S'The Legend of Sleepy Hollow'
p280
sS'pg3296'
p281
S'The Confessions of Saint Augustine'
p282
sS'pg14591'
p283
S'Faust'
p284
sS'2638-0'
p285
S'Project Gutenberg EBook of Title: The Idiot, by Fyodor Dostoyevsky This eBook is for the use of anyone anywhere at no cost and with almost no restrictions whatsoever.  You may copy it, give it away or re-use it under the terms of the Project Gutenberg License included with this eBook or online at www.gutenberg.org Title: Title: The Idiot'
p286
sS'pg110'
p287
S"Tess of the d'Urbervilles A Pure Woman"
p288
sS'135-0'
p289
S'Les Mis\xc3\xa9rables Complete in Five Volumes'
p290
sS'pg2500'
p291
S'Siddhartha'
p292
sS'pg228'
p293
S'The Aeneid'
p294
sS'205-0'
p295
S'Walden, and On The Duty Of Civil Disobedience'
p296
sS'pg5427'
p297
S'Emile'
p298
sS'pg19322'
p299
S'The Antichrist'
p300
sS'pg996'
p301
S'Don Quixote'
p302
sS'pg23'
p303
S'The Narrative of the Life of Frederick Douglass An American Slave'
p304
sS'pg2428'
p305
S'Essay on Man Moral Essays and Satires'
p306
sS'pg36'
p307
S'The War of the Worlds'
p308
sS'pg1656'
p309
S'Apology Also known as "The Death of Socrates"'
p310
sS'pg514'
p311
S'Little Women'
p312
sS'pg35'
p313
S'The Time Machine'
p314
sS'pg33'
p315
S'The Scarlet Letter'
p316
sS'pg1228'
p317
S'On the Origin of Species 1st Edition'
p318
sS'4517-0'
p319
S'Ethan Frome'
p320
sS'pg8164'
p321
S'My Man Jeeves'
p322
sS'pg1658'
p323
S'Phaedo The Last Hours Of Socrates'
p324
sS'pg8800'
p325
S'The Divine Comedy, Complete The Vision of Paradise, Purgatory and Hell'
p326
sS'pg1041'
p327
S"Shakespeare's Sonnets"
p328
sS'pg1727'
p329
S'The Odyssey'
p330
sS'pg1726'
p331
S'Theaetetus'
p332
sS'940-0'
p333
S'The Last of the Mohicans'
p334
sS'51356-0'
p335
S'The Birth of Tragedy or Hellenism and Pessimism'
p336
sS'pg59'
p337
S'A Discourse on Method'
p338
sS'2814-0'
p339
S'Dubliners'
p340
sS'pg9830'
p341
S'The Beautiful and the Damned'
p342
sS'pg17192'
p343
S'The Raven'
p344
sS'4300-0'
p345
S'Ulysses'
p346
sS'pg120'
p347
S'Treasure Island'
p348
sS'pg16328'
p349
S'Beowulf An Anglo-Saxon Epic Poem, Translated From The Heyne-Socin Text by Lesslie Hall'
p350
sS'160-0'
p351
S'The Awakening and Selected Short Stories'
p352
sS'pg4217'
p353
S'A Portrait of the Artist as a Young Man'
p354
sS'pg1497'
p355
S'The Republic'
p356
sS'pg600'
p357
S'Notes from the Underground'
p358
sS'pg20'
p359
S'Paradise Lost'
p360
sS'215-0'
p361
S'The Call of the Wild'
p362
sS'pg139'
p363
S'The Lost World'
p364
sS'pg6130'
p365
S'The Iliad of Homer'
p366
sS'pg5200'
p367
S'Metamorphosis'
p368
sS'805-0'
p369
S'This Side of Paradise'
p370
sS'2591-0'
p371
S'Grimms\xe2\x80\x99 Fairy Tales'
p372
sS'pg1232'
p373
S'The Prince'
p374
s.