(dp1
S'8389'
p2
S'Lectures of Col. R. G. Ingersoll - Latest'
p3
sS'8218'
p4
S'Wars and Empire'
p5
sS'8407-8'
p6
S'The Christian A Story'
p7
sS'8155'
p8
S"Colonel Thorndyke's Secret"
p9
sS'8153'
p10
S'The Young Engineers in Arizona Laying Tracks on the Man-killer Quicksand'
p11
sS'8150'
p12
S'A Street Of Paris And Its Inhabitant'
p13
sS'8789'
p14
S'The Vision of Hell, Complete, Translated By The Rev. H. F. Cary, Illustrated by Gustave Dore The Inferno'
p15
sS'885-0'
p16
S'An Ideal Husband A Play'
p17
sS'8549'
p18
S'The Woman With The Fan'
p19
sS'8121-8'
p20
S'Ghosts'
p21
sS'8783'
p22
S'The Vision of Hell, Part 5, Translated By The Rev. H. F. Cary, Illustrated by Gustave Dore The Inferno'
p23
sS'8782'
p24
S'The Vision of Hell, Part 4, Translated By The Rev. H. F. Cary, Illustrated by Gustave Dore The Inferno'
p25
sS'8781'
p26
S'The Vision of Hell, Part 3, Translated By The Rev. H. F. Cary, Illustrated by Gustave Dore The Inferno'
p27
sS'8780'
p28
S'The Vision of Hell, Part 2, Translated By The Rev. H. F. Cary, Illustrated by Gustave Dore The Inferno'
p29
sS'8787'
p30
S'The Vision of Hell, Part 9, Translated By The Rev. H. F. Cary, Illustrated by Gustave Dore The Inferno'
p31
sS'8786'
p32
S'The Vision of Hell, Part 8, Translated By The Rev. H. F. Cary, Illustrated by Gustave Dore The Inferno'
p33
sS'8785'
p34
S'The Vision of Hell, Part 7, Translated By The Rev. H. F. Cary, Illustrated by Gustave Dore The Inferno'
p35
sS'8784'
p36
S'The Vision of Hell, Part 6, Translated By The Rev. H. F. Cary, Illustrated by Gustave Dore The Inferno'
p37
sS'86'
p38
S"A Connecticut Yankee in King Arthur's Court, Complete"
p39
sS'8420'
p40
S'Issues in Population and Bioethics'
p41
sS'8663-8'
p42
S'Tales of Two Countries'
p43
sS'8421'
p44
S'The First Book of Factoids'
p45
sS'829-0'
p46
S"Gulliver's Travels into several remote nations of the world"
p47
sS'8403-8'
p48
S"Young People's Pride"
p49
sS'8710'
p50
S'The Dore Gallery of Bible Illustrations, Complete'
p51
sS'819'
p52
S'The History of the Telephone'
p53
sS'8650-0'
p54
S"Monsieur Lecoq, Premi\xc3\xa8re Partie, L'enqu\xc3\xaate"
p55
sS'8435-8'
p56
S'The Sturdy Oak A Composite Novel of American Politics by Fourteen American Authors'
p57
sS'8499-8'
p58
S'Plays: The Father; Countess Julie; The Outlaw; The Stronger'
p59
sS'814'
p60
S'Hunting Sketches'
p61
sS'815'
p62
S'Democracy In America, Volume 1 (of 2)'
p63
sS'816'
p64
S'Democracy In America, Volume 2 (of 2)'
p65
sS'8465-8'
p66
S'The Russian Revolution; The Jugo-Slav Movement'
p67
sS'8638'
p68
S'Jack in the Forecastle'
p69
sS'8140'
p70
S'Lectures of Col. R. G. Ingersoll, Volume I'
p71
sS'8595'
p72
S'Normandy, Part 3 The Scenery & Romance Of Its Ancient Towns'
p73
sS'8525'
p74
S"Eve's Diary, Complete"
p75
sS'8875-8'
p76
S'The Road to Damascus A Trilogy'
p77
sS'8732'
p78
S'Through the Fray A Tale of the Luddite Riots'
p79
sS'8158'
p80
S'Barlasch of the Guard'
p81
sS'855'
p82
S'Clocks From a volume entitled "Idle Thoughts of an Idle Fellow"'
p83
sS'8703'
p84
S'The Dore Gallery of Bible Illustrations, Volume 3 Illustrated by Gustave Dore'
p85
sS'8702'
p86
S'The Dore Gallery of Bible Illustrations, Volume 2 Illustrated by Gustave Dore'
p87
sS'8701'
p88
S'The Dore Gallery of Bible Illustrations, Volume 1 Illustrated by Gustave Dore'
p89
sS'8455-8'
p90
S'The Saint'
p91
sS'882-0'
p92
S'Sketches by Boz illustrative of everyday life and every-day people'
p93
sS'8668-8'
p94
S'Revenge!'
p95
sS'8705'
p96
S'The Dore Gallery of Bible Illustrations, Volume 5 Illustrated by Gustave Dore'
p97
sS'8704'
p98
S'The Dore Gallery of Bible Illustrations, Volume 4 Illustrated by Gustave Dore'
p99
sS'8709'
p100
S'The Dore Gallery of Bible Illustrations, Volume 9 Illustrated by Gustave Dore'
p101
sS'8708'
p102
S'The Dore Gallery of Bible Illustrations, Volume 8 Illustrated by Gustave Dore'
p103
sS'821'
p104
S'Dombey and Son'
p105
sS'820'
p106
S'Edison, His Life and Inventions'
p107
sS'823'
p108
S'The Life of St. Declan of Ardmore'
p109
sS'895-8'
p110
S'The History of The Decline and Fall of the Roman Empire Volume 6'
p111
sS'871-8'
p112
S'The Golden Sayings of Epictetus'
p113
sS'8650-8'
p114
S"Monsieur Lecoq, Premi\xe8re Partie, L'enqu\xeate"
p115
sS'894-8'
p116
S'The History of The Decline and Fall of the Roman Empire Volume 5'
p117
sS'8600'
p118
S"L'Assommoir"
p119
sS'8109-8'
p120
S'Early Bardic Literature, Ireland'
p121
sS'88'
p122
S'Price/Cost Indexes from 1875 to 1989 Estimated to 2010'
p123
sS'8528'
p124
S"Eve's Diary, Part 3"
p125
sS'8441'
p126
S'Between Friends'
p127
sS'82'
p128
S'Ivanhoe A Romance'
p129
sS'81'
p130
S'The Return of Tarzan'
p131
sS'8527'
p132
S"Eve's Diary, Part 2"
p133
sS'8526'
p134
S"Eve's Diary, Part 1"
p135
sS'84'
p136
S'Frankenstein or The Modern Prometheus'
p137
sS'85'
p138
S'The Beasts of Tarzan'
p139
sS'832'
p140
S'Robin Hood'
p141
sS'883'
p142
S'Our Mutual Friend'
p143
sS'831'
p144
S'Four Arthurian Romances "Erec et Enide", "Cliges", "Yvain", and "Lancelot"'
p145
sS'836'
p146
S'The Phoenix and the Carpet'
p147
sS'8197'
p148
S"India's Love Lyrics"
p149
sS'838'
p150
S'Jasmin: Barber, Poet, Philanthropist'
p151
sS'8737-8'
p152
S'Robert Elsmere'
p153
sS'8394'
p154
S'The Doings Of Raffles Haw'
p155
sS'8460-8'
p156
S'Marse Henry, Complete An Autobiography'
p157
sS'8800'
p158
S'The Divine Comedy, Complete The Vision of Paradise, Purgatory and Hell'
p159
sS'892-8'
p160
S'The History of The Decline and Fall of the Roman Empire Volume 3'
p161
sS'8707'
p162
S'The Dore Gallery of Bible Illustrations, Volume 7 Illustrated by Gustave Dore'
p163
sS'891-8'
p164
S'The History of The Decline and Fall of the Roman Empire Volume 2'
p165
sS'8730'
p166
S'A Little Bush Maid'
p167
sS'8706'
p168
S'The Dore Gallery of Bible Illustrations, Volume 6 Illustrated by Gustave Dore'
p169
sS'8516'
p170
S'Lourdes From the "Three Cities"'
p171
sS'8681-8'
p172
S'The Face And The Mask'
p173
sS'8776-8'
p174
S'The Impostures of Scapin'
p175
sS'8206'
p176
S'The Pilgrims Of The Rhine'
p177
sS'8654'
p178
S'The Fallen Star; and, A Dissertation on the Origin of Evil'
p179
sS'8457'
p180
S'Frenzied Fiction'
p181
sS'8123'
p182
S'The Virginians'
p183
sS'8082-8'
p184
S'Canyons of the Colorado'
p185
sS'8674-8'
p186
S"Charles O'Malley, The Irish Dragoon, Volume 2 (of 2)"
p187
sS'844'
p188
S'The Importance of Being Earnest A Trivial Comedy for Serious People'
p189
sS'843'
p190
S'The Life of Francis Marion'
p191
sS'842'
p192
S'Memoirs of Carwin the Biloquist (A Fragment)'
p193
sS'8713-8'
p194
S'A Man of Means'
p195
sS'840'
p196
S'Lorna Doone, A Romance of Exmoor'
p197
sS'8897'
p198
S'Nina Balatka'
p199
sS'8593-8'
p200
S'Normandy, Part 1 The Scenery & Romance Of Its Ancient Towns'
p201
sS'849'
p202
S'Idle Thoughts of an Idle Fellow'
p203
sS'8584'
p204
S'Roughing It, Part 3.'
p205
sS'847-8'
p206
S'Lays of Ancient Rome'
p207
sS'8505-8'
p208
S'Normandy, Complete The Scenery & Romance Of Its Ancient Towns'
p209
sS'8727'
p210
S'The Last Galley Impressions and Tales'
p211
sS'8079'
p212
S'Pamela Giraud'
p213
sS'8719-8'
p214
S"Monsieur Lecoq, Seconde Partie, L'honneur Du Nom"
p215
sS'8215'
p216
S'The Development Psychology of Psychopathology'
p217
sS'8216'
p218
S'Issues in Ethics'
p219
sS'8092-8'
p220
S'Tremendous Trifles'
p221
sS'8945-8'
p222
S'Life of Cicero Volume One'
p223
sS'8110'
p224
S'Lincoln Letters'
p225
sS'8117'
p226
S'The Possessed or, The Devils'
p227
sS'8493'
p228
S'The Last Hope'
p229
sS'856'
p230
S'Dreams From a volume entitled "Idle Thoughts of an Idle Fellow"'
p231
sS'857'
p232
S'Evergreens From a volume entitled "Idle Thoughts of an Idle Fellow"'
p233
sS'850'
p234
S'Tom Grogan'
p235
sS'851'
p236
S'Captivity and Restoration'
p237
sS'852'
p238
S'Democracy and Education'
p239
sS'853'
p240
S'The Confutatio Pontificia'
p241
sS'8382-8'
p242
S'Canadian Crusoes A Tale of The Rice Lake Plains'
p243
sS'858'
p244
S'Stage-Land'
p245
sS'859'
p246
S'Polly of the Circus'
p247
sS'8911'
p248
S'Explorations in Australia, The Journals of John McDouall Stuart When He Fixed The Centre Of The Continent And Successfully Crossed It From Sea To Sea'
p249
sS'8946-8'
p250
S'Le C\xf4t\xe9 de Guermantes (Premi\xe8re partie)'
p251
sS'8598'
p252
S'Introduction to the Dramas of Balzac'
p253
sS'8867-8'
p254
S'The Magnificent Ambersons'
p255
sS'8797'
p256
S'The Vision of Paradise, Part 2. Translated By The Rev. H. F. Cary, Illustrated by Gustave Dore'
p257
sS'8941-8'
p258
S'Lord Kilgobbin'
p259
sS'8793'
p260
S'The Vision of Purgatory, Part 4 Translated By The Rev. H. F. Cary, Illustrated by Gustave Dore'
p261
sS'8105'
p262
S'Imaginations and Reveries'
p263
sS'8104'
p264
S'National Being Some Thoughts on an Irish Polity'
p265
sS'8300-8'
p266
S'The Bible, Douay-Rheims, Old and New Testaments, Complete The Challoner Revision'
p267
sS'8106'
p268
S"Captain Cook's Journal During the First Voyage Round the World"
p269
sS'8594-8'
p270
S'Normandy, Part 2 The Scenery & Romance Of Its Ancient Towns'
p271
sS'8574'
p272
S'Racketty-Packetty House'
p273
sS'890-8'
p274
S'The History of The Decline and Fall of the Roman Empire Volume 1'
p275
sS'8576'
p276
S'By Sheer Pluck A Tale of the Ashanti War'
p277
sS'8479'
p278
S'Life On The Mississippi, Part 9.'
p279
sS'8478'
p280
S'Life On The Mississippi, Part 8.'
p281
sS'8475'
p282
S'Life On The Mississippi, Part 5.'
p283
sS'8474'
p284
S'Life On The Mississippi, Part 4.'
p285
sS'8477'
p286
S'Life On The Mississippi, Part 7.'
p287
sS'8476'
p288
S'Life On The Mississippi, Part 6.'
p289
sS'8471'
p290
S'Life On The Mississippi, Part 1.'
p291
sS'8473'
p292
S'Life On The Mississippi, Part 3.'
p293
sS'8472'
p294
S'Life On The Mississippi, Part 2.'
p295
sS'869'
p296
S'The Soul of Nicholas Snyders Or, The Miser Of Zandam'
p297
sS'868'
p298
S"The Philosopher's Joke"
p299
sS'813'
p300
S'Reminiscences of Tolstoy By His Son'
p301
sS'841'
p302
S'Men, Women and Ghosts'
p303
sS'830'
p304
S'The Argonautica'
p305
sS'861'
p306
S'The Dominion of the Air'
p307
sS'860'
p308
S'Baby Mine'
p309
sS'863'
p310
S'The Mysterious Affair at Styles'
p311
sS'862'
p312
S'Philosophy 4 A Story of Harvard University'
p313
sS'865'
p314
S'Passing of the Third Floor Back'
p315
sS'867'
p316
S'Mrs. Korner Sins Her Mercies'
p317
sS'866'
p318
S'The Cost of Kindness From a volume entitled "Idle Thoughts of an Idle Fellow"'
p319
sS'8589'
p320
S'Roughing It, Part 8.'
p321
sS'8588'
p322
S'Roughing It, Part 7.'
p323
sS'8667'
p324
S'Cetywayo and his White Neighbours Remarks on Recent Events in Zululand, Natal, and the Transvaal'
p325
sS'8581'
p326
S'The Art of Money Getting or, Golden Rules for Making Money'
p327
sS'8583'
p328
S'Roughing It, Part 2.'
p329
sS'8582'
p330
S'Roughing It, Part 1.'
p331
sS'8585'
p332
S'Roughing It, Part 4.'
p333
sS'8939'
p334
S'With Edged Tools'
p335
sS'8587'
p336
S'Roughing It, Part 6.'
p337
sS'8586'
p338
S'Roughing It, Part 5.'
p339
sS'8170'
p340
S'Gargantua and Pantagruel, Book V. Five Books Of The Lives, Heroic Deeds And Sayings Of Gargantua And His Son Pantagruel'
p341
sS'881'
p342
S'Lemorne Versus Huell'
p343
sS'880'
p344
S'My Garden Acquaintance'
p345
sS'8577-8'
p346
S"Charles O'Malley, The Irish Dragoon, Volume 1 (of 2)"
p347
sS'8073'
p348
S'A Fool For Love'
p349
sS'8779'
p350
S'The Vision of Hell, Part 1, Illustrated by Gustave Dore The Inferno'
p351
sS'8299-8'
p352
S'Filipino Popular Tales'
p353
sS'8500-8'
p354
S'Plays: Comrades; Facing Death; Pariah; Easter'
p355
sS'848'
p356
S'The Black Arrow a Tale of Two Roses'
p357
sS'833-8'
p358
S'The Theory of the Leisure Class'
p359
sS'8426-8'
p360
S'Poems of Paul Verlaine'
p361
sS'878'
p362
S'Yankee Gypsies'
p363
sS'879'
p364
S'The Boy Captives An Incident of the Indian War of 1695'
p365
sS'876'
p366
S'Life in the Iron-Mills'
p367
sS'877'
p368
S'Little Britain'
p369
sS'874'
p370
S'A History of Aeronautics'
p371
sS'870'
p372
S'The Love of Ulrich Nebendahl'
p373
sS'808'
p374
S'The Complete Plays of Gilbert and Sullivan The 14 Gilbert And Sullivan Plays'
p375
sS'8736-8'
p376
S'Gaspar Ruiz'
p377
sS'893-8'
p378
S'The History of The Decline and Fall of the Roman Empire Volume 4'
p379
sS'834-8'
p380
S'Memoirs of Sherlock Holmes'
p381
sS'8510-8'
p382
S'Lucky Pehr'
p383
sS'8167'
p384
S'Gargantua and Pantagruel, Book II. Five Books Of The Lives, Heroic Deeds And Sayings Of Gargantua And His Son Pantagruel'
p385
sS'8166'
p386
S'Gargantua and Pantagruel, Book I. Five Books Of The Lives, Heroic Deeds And Sayings Of Gargantua And His Son Pantagruel'
p387
sS'896'
p388
S'Orations'
p389
sS'897'
p390
S'The Rose and the Ring'
p391
sS'898'
p392
S'The Lesson of the Master'
p393
sS'899'
p394
S'Wonderful Balloon Ascents or, the Conquest of the Skies'
p395
sS'8169'
p396
S'Gargantua and Pantagruel, Book IV. Five Books Of The Lives, Heroic Deeds And Sayings Of Gargantua And His Son Pantagruel'
p397
sS'8168'
p398
S'Gargantua and Pantagruel, Book III. Five Books Of The Lives, Heroic Deeds And Sayings Of Gargantua And His Son Pantagruel'
p399
sS'8444-8'
p400
S'C\xe6sar or Nothing'
p401
sS'889'
p402
S'Two Years in the Forbidden City'
p403
sS'8798'
p404
S'The Vision of Paradise, Part 3. Translated By The Rev. H. F. Cary, Illustrated by Gustave Dore'
p405
sS'8799'
p406
S'The Vision of Paradise, Complete Translated By The Rev. H. F. Cary, Illustrated by Gustave Dore'
p407
sS'845-8'
p408
S'Poems of Henry Timrod'
p409
sS'8790'
p410
S'The Vision of Purgatory, Part 1 Translated By The Rev. H. F. Cary, Illustrated by Gustave Dore'
p411
sS'8791'
p412
S'The Vision of Purgatory, Part 2 Translated By The Rev. H. F. Cary, Illustrated by Gustave Dore'
p413
sS'8792'
p414
S'The Vision of Purgatory, Part 3 Translated By The Rev. H. F. Cary, Illustrated by Gustave Dore'
p415
sS'8532-8'
p416
S'Andivius Hedulio'
p417
sS'8794'
p418
S'The Vision of Purgatory, Part 5 Translated By The Rev. H. F. Cary, Illustrated by Gustave Dore'
p419
sS'8795'
p420
S'The Vision of Purgatory, Complete Translated By The Rev. H. F. Cary, Illustrated by Gustave Dore'
p421
sS'8796'
p422
S'The Vision of Paradise, Part 1. Translated By The Rev. H. F. Cary, Illustrated by Gustave Dore'
p423
sS'837'
p424
S'The Story of the Amulet'
p425
sS'8788'
p426
S'The Vision of Hell, Part 10, Translated By The Rev. H. F. Cary, Illustrated by Gustave Dore The Inferno'
p427
sS'8152-8'
p428
S'Henrik Ibsen'
p429
sS'8080'
p430
S'A  Passionate Pilgrim'
p431
sS'8081'
p432
S'Louisa Pallant'
p433
sS'818'
p434
S'The Aeroplane Speaks'
p435
sS'8726-8'
p436
S'Rome From the "Three Cities"'
p437
sS'8480'
p438
S'Life On The Mississippi, Part 10.'
p439
sS'8481'
p440
S'Life On The Mississippi, Part 11.'
p441
sS'8482'
p442
S'Life On The Mississippi, Part 12.'
p443
sS'805-8'
p444
S'This Side of Paradise'
p445
sS'811-8'
p446
S'Dr. Faustus'
p447
s.