(dp1
S''
S'pg2383'
p2
sS'Maupassant Original Short Stories (180), Complete'
p3
S'3090-0'
p4
sS'The Masque of the Red Death'
p5
S'pg1064'
p6
sS'Anthem'
p7
S'pg1250'
p8
sS'The Critique of Pure Reason'
p9
S'pg4280'
p10
sS'Euthyphro'
p11
S'pg1642'
p12
sS'Beowulf An Anglo-Saxon Epic Poem, Translated From The Heyne-Socin Text by Lesslie Hall'
p13
S'pg16328'
p14
sS'The Return of Sherlock Holmes'
p15
S'108-0'
p16
sS'The Trial'
p17
S'pg7849'
p18
sS'Madame Bovary'
p19
S'2413-0'
p20
sS'An Enquiry Concerning Human Understanding'
p21
S'pg9662'
p22
sS'Around the World in 80 Days'
p23
S'pg103'
p24
sS'The Man Who Was Thursday A Nightmare'
p25
S'1695-0'
p26
sS'Meditations'
p27
S'pg2680'
p28
sS'Treasure Island'
p29
S'pg120'
p30
sS'The Three Musketeers'
p31
S'1257-0'
p32
sS'War and Peace'
p33
S'2600-0'
p34
sS'A Vindication of the Rights of Woman Title: Vindication of the Rights of Women'
p35
S'pg3420'
p36
sS'Candide'
p37
S'pg19942'
p38
sS'The Call of the Wild'
p39
S'215-0'
p40
sS'The Count of Monte Cristo'
p41
S'1184-0'
p42
sS'Second Treatise of Government'
p43
S'pg7370'
p44
sS'The Importance of Being Earnest A Trivial Comedy for Serious People'
p45
S'pg844'
p46
sS'The Return of Tarzan'
p47
S'pg81'
p48
sS'The Sign of the Four'
p49
S'pg2097'
p50
sS'The Beautiful and the Damned'
p51
S'pg9830'
p52
sS'The Legend of Sleepy Hollow'
p53
S'41-0'
p54
sS'Little Women'
p55
S'pg514'
p56
sS'Middlemarch'
p57
S'pg145'
p58
sS'Grimms\xe2\x80\x99 Fairy Tales'
p59
S'2591-0'
p60
sS'Democracy and Education'
p61
S'pg852'
p62
sS'The Antichrist'
p63
S'pg19322'
p64
sS'The Scarlet Letter'
p65
S'pg33'
p66
sS'Ulysses'
p67
S'4300-0'
p68
sS'The Souls of Black Folk'
p69
S'pg408'
p70
sS'Phaedo The Last Hours Of Socrates'
p71
S'pg1658'
p72
sS'Tarzan of the Apes'
p73
S'pg78'
p74
sS'The Legends Of King Arthur And His Knights'
p75
S'pg12753'
p76
sS'The Time Machine'
p77
S'pg35'
p78
sS'The Adventures of Sherlock Holmes'
p79
S'pg1661'
p80
sS'King Richard III'
p81
S'pg1103'
p82
sS'The War of the Worlds'
p83
S'pg36'
p84
sS'A Modest Proposal For preventing the children of poor people in Ireland, from being a burden on their parents or country, and for making them beneficial to the publick - 1729'
p85
S'pg1080'
p86
sS'Hedda Gabler Play In Four Acts'
p87
S'pg4093'
p88
sS'Walden, and On The Duty Of Civil Disobedience'
p89
S'205-0'
p90
sS'David Copperfield'
p91
S'766-0'
p92
sS'Through the Looking-Glass'
p93
S'12-0'
p94
sS'The Fall of the House of Usher'
p95
S'pg932'
p96
sS'A Christmas Carol A Ghost Story of Christmas'
p97
S'pg46'
p98
sS'A Discourse on Method'
p99
S'pg59'
p100
sS'The Middle Class Gentleman (Le Bourgeois Gentilhomme)'
p101
S'pg2992'
p102
sS'The Hound of the Baskervilles'
p103
S'2852-0'
p104
sS'The Odyssey'
p105
S'pg1727'
p106
sS'The Cask of Amontillado'
p107
S'pg1063'
p108
sS'The Tragical History of Dr. Faustus'
p109
S'pg779'
p110
sS'An Inquiry into the Nature and Causes of the Wealth of Nations'
p111
S'pg3300'
p112
sS'The Clouds'
p113
S'pg2562'
p114
sS'Uncle Tom\xe2\x80\x99s Cabin'
p115
S'203-0'
p116
sS'Notes from the Underground'
p117
S'pg600'
p118
sS"Swann's Way Remembrance of Things Past, Volume One"
p119
S'pg7178'
p120
sS'Ion'
p121
S'pg1635'
p122
sS'Dubliners'
p123
S'2814-0'
p124
sS'Ecce Homo Complete Works, Volume Seventeen'
p125
S'52190-0'
p126
sS'The King James Bible'
p127
S'pg10'
p128
sS"Shakespeare's Sonnets"
p129
S'pg1041'
p130
sS'The Aeneid'
p131
S'pg228'
p132
sS'The Jungle Book'
p133
S'236-0'
p134
sS'The Frogs'
p135
S'pg7998'
p136
sS'Paradise Lost'
p137
S'pg20'
p138
sS'Emma'
p139
S'158-0'
p140
sS'A Study In Scarlet'
p141
S'244-0'
p142
sS'Songs of Innocence and Songs of Experience'
p143
S'1934-0'
p144
sS'Utopia'
p145
S'pg2130'
p146
sS'Pride and Prejudice'
p147
S'1342-0'
p148
sS'The Divine Comedy, Complete The Vision of Paradise, Purgatory and Hell'
p149
S'pg8800'
p150
sS'On the Origin of Species 1st Edition'
p151
S'pg1228'
p152
sS'Anna Karenina'
p153
S'1399-0'
p154
sS'The Invisible Man'
p155
S'pg5230'
p156
sS'Les Mis\xc3\xa9rables Complete in Five Volumes'
p157
S'135-0'
p158
sS'Apology Also known as "The Death of Socrates"'
p159
S'pg1656'
p160
sS'The Brothers Karamazov'
p161
S'28054-0'
p162
sS'The Essays of Montaigne, Complete'
p163
S'3600-0'
p164
sS'The Prince and The Pauper, Complete'
p165
S'1837-0'
p166
sS'Siddhartha'
p167
S'pg2500'
p168
sS'The History Of The Decline And Fall Of The Roman Empire Table of Contents with links in the HTML file to the two Project Gutenberg editions (12 volumes)'
p169
S'pg25717'
p170
sS'Dr. Jekyll and Mr. Hyde'
p171
S'pg42'
p172
sS'Beyond Good and Evil'
p173
S'pg4363'
p174
sS'Essay on Man Moral Essays and Satires'
p175
S'pg2428'
p176
sS'The Napoleon of Notting Hill'
p177
S'pg20058'
p178
sS'Ethan Frome'
p179
S'4517-0'
p180
sS'The Last of the Mohicans'
p181
S'940-0'
p182
sS'The Communist Manifesto'
p183
S'pg61'
p184
sS'Politics A Treatise on Government'
p185
S'pg6762'
p186
sS'Frankenstein or The Modern Prometheus'
p187
S'pg84'
p188
sS'The Life and Adventures of Robinson Crusoe'
p189
S'521-0'
p190
sS'The Kama Sutra of Vatsyayana Translated From The Sanscrit In Seven Parts With Preface, Introduction and Concluding Remarks'
p191
S'pg27827'
p192
sS'Romeo and Juliet'
p193
S'pg1112'
p194
sS'The Birth of Tragedy or Hellenism and Pessimism'
p195
S'51356-0'
p196
sS'This Side of Paradise'
p197
S'805-0'
p198
sS'Oliver Twist'
p199
S'pg730'
p200
sS'The Prince'
p201
S'pg1232'
p202
sS'Persuasion'
p203
S'pg105'
p204
sS'Human, All Too Human A Book for Free Spirits'
p205
S'pg38145'
p206
sS'On Liberty'
p207
S'pg34901'
p208
sS"Pascal's Pens\xc3\xa9es"
p209
S'18269-0'
p210
sS'The Iliad of Homer'
p211
S'pg6130'
p212
sS'The Federalist Papers'
p213
S'pg1404'
p214
sS'Autobiography of Benjamin Franklin'
p215
S'pg20203'
p216
sS'The Adventures of Tom Sawyer, Complete'
p217
S'74-0'
p218
sS'A Princess of Mars'
p219
S'pg62'
p220
sS'Adventures of Huckleberry Finn, Complete'
p221
S'76-0'
p222
sS'Notre-Dame de Paris The Hunchback of Notre Dame'
p223
S'2610-0'
p224
sS'Utilitarianism'
p225
S'pg11224'
p226
sS'The Waste Land'
p227
S'1321-0'
p228
sS'Story of My Life'
p229
S'pg2397'
p230
sS'The Narrative of the Life of Frederick Douglass An American Slave'
p231
S'pg23'
p232
sS'Twelve Years a Slave Narrative of Solomon Northup, a Citizen of New-York, Kidnapped in Washington City in 1841, and Rescued in 1853, from a Cotton Plantation near the Red River in Louisiana'
p233
S'pg45631'
p234
sS'The Confessions of Saint Augustine'
p235
S'pg3296'
p236
sS'The Possessed or, The Devils'
p237
S'pg8117'
p238
sS'Poetics'
p239
S'pg1974'
p240
sS'The History of the Peloponnesian War'
p241
S'pg7142'
p242
sS'Jane Eyre an Autobiography'
p243
S'pg1260'
p244
sS'A Tale of Two Cities A Story of the French Revolution'
p245
S'98-0'
p246
sS'The Turn of the Screw'
p247
S'209-0'
p248
sS'Leviathan'
p249
S'pg3207'
p250
sS'Crime and Punishment'
p251
S'2554-0'
p252
sS'The Rape of the Lock and Other Poems'
p253
S'pg9800'
p254
sS'The Wonderful Wizard of Oz'
p255
S'pg55'
p256
sS'Don Quixote'
p257
S'pg996'
p258
sS'The Strange Case Of Dr. Jekyll And Mr. Hyde'
p259
S'43-0'
p260
sS'Don Juan'
p261
S'pg21700'
p262
sS'The Age of Innocence'
p263
S'pg541'
p264
sS'The Tempest The Works of William Shakespeare [Cambridge Edition] [9 vols.]'
p265
S'23042-0'
p266
sS'The Confessions of Jean Jacques Rousseau In 12 books--Privately Printed for the Members of the Aldus Society--London, 1903'
p267
S'3913-0'
p268
sS'The Problems of Philosophy'
p269
S'pg5827'
p270
sS'The Lost World'
p271
S'pg139'
p272
sS'Gorgias'
p273
S'pg1672'
p274
sS"Tess of the d'Urbervilles A Pure Woman"
p275
S'pg110'
p276
sS'Common Sense'
p277
S'pg147'
p278
sS'The Picture of Dorian Gray'
p279
S'pg174'
p280
sS'Metamorphosis'
p281
S'pg5200'
p282
sS'Peter Pan Peter Pan and Wendy'
p283
S'16-0'
p284
sS'Heart of Darkness'
p285
S'219-0'
p286
sS'The Social Contract & Discourses'
p287
S'46333-0'
p288
sS'The Sea-Gull'
p289
S'1754-0'
p290
sS'Alice\xe2\x80\x99s Adventures in Wonderland'
p291
S'11-0'
p292
sS'The Awakening and Selected Short Stories'
p293
S'160-0'
p294
sS'Theaetetus'
p295
S'pg1726'
p296
sS'Meno'
p297
S'pg1643'
p298
sS'A Portrait of the Artist as a Young Man'
p299
S'pg4217'
p300
sS'Lysistrata'
p301
S'pg7700'
p302
sS'Symposium'
p303
S'pg1600'
p304
sS'Mansfield Park'
p305
S'141-0'
p306
sS'The Genealogy of Morals The Complete Works, Volume Thirteen, edited by Dr. Oscar Levy.'
p307
S'52319-0'
p308
sS"Gulliver's Travels into several remote nations of the world"
p309
S'829-0'
p310
sS'Pygmalion'
p311
S'pg3825'
p312
sS'Dracula'
p313
S'pg345'
p314
sS'Sophist'
p315
S'pg1735'
p316
sS'The Jungle'
p317
S'140-0'
p318
sS'Kim'
p319
S'pg2226'
p320
sS'Aesop\xe2\x80\x99s Fables'
p321
S'21-0'
p322
sS'Great Expectations'
p323
S'1400-0'
p324
sS'On the Duty of Civil Disobedience'
p325
S'pg71'
p326
sS'My Man Jeeves'
p327
S'pg8164'
p328
sS'The Sorrows of Young Werther'
p329
S'pg2527'
p330
sS'The Birds'
p331
S'pg3013'
p332
sS'Sense and Sensibility'
p333
S'pg161'
p334
sS'The Grand Inquisitor'
p335
S'pg8578'
p336
sS'Faust'
p337
S'pg14591'
p338
sS'Protagoras'
p339
S'pg1591'
p340
sS'Wuthering Heights'
p341
S'pg768'
p342
sS'Leaves of Grass'
p343
S'pg1322'
p344
sS'The Beasts of Tarzan'
p345
S'pg85'
p346
sS'Emile'
p347
S'pg5427'
p348
sS'A Treatise of Human Nature'
p349
S'pg4705'
p350
sS'Heroes and Hero Worship'
p351
S'pg1091'
p352
sS"A Doll's House"
p353
S'pg2542'
p354
sS'The Republic'
p355
S'pg1497'
p356
sS'Project Gutenberg EBook of Title: The Idiot, by Fyodor Dostoyevsky This eBook is for the use of anyone anywhere at no cost and with almost no restrictions whatsoever.  You may copy it, give it away or re-use it under the terms of the Project Gutenberg License included with this eBook or online at www.gutenberg.org Title: Title: The Idiot'
p357
S'2638-0'
p358
sS'Hard Times'
p359
S'786-0'
p360
sS'Thus Spake Zarathustra A Book for All and None'
p361
S'1998-0'
p362
sS'The Ethics'
p363
S'pg3800'
p364
sS'Moby Dick; or The Whale'
p365
S'2701-0'
p366
sS'As You Like It'
p367
S'pg1121'
p368
sS'The Raven'
p369
S'pg17192'
p370
sS'The Man Who Would Be King'
p371
S'8147-0'
p372
sS'Phaedrus'
p373
S'pg1636'
p374
s.